ARM GAS  C:\Users\cesco\AppData\Local\Temp\ccOskMVA.s 			page 1


   1              		.cpu cortex-m7
   2              		.arch armv7e-m
   3              		.fpu fpv5-d16
   4              		.eabi_attribute 28, 1
   5              		.eabi_attribute 20, 1
   6              		.eabi_attribute 21, 1
   7              		.eabi_attribute 23, 3
   8              		.eabi_attribute 24, 1
   9              		.eabi_attribute 25, 1
  10              		.eabi_attribute 26, 1
  11              		.eabi_attribute 30, 2
  12              		.eabi_attribute 34, 1
  13              		.eabi_attribute 18, 4
  14              		.file	"main.cpp"
  15              		.text
  16              	.Ltext0:
  17              		.cfi_sections	.debug_frame
  18              		.file 1 "main.cpp"
  19              		.section	.text._ZN5daisy9DaisySeedD2Ev,"axG",%progbits,_ZN5daisy9DaisySeedD5Ev,comdat
  20              		.align	1
  21              		.p2align 2,,3
  22              		.weak	_ZN5daisy9DaisySeedD2Ev
  23              		.syntax unified
  24              		.thumb
  25              		.thumb_func
  27              	_ZN5daisy9DaisySeedD2Ev:
  28              	.LVL0:
  29              	.LFB2533:
  30              		.file 2 "./libdaisy/src/daisy_seed.h"
   1:./libdaisy/src/daisy_seed.h **** #pragma once
   2:./libdaisy/src/daisy_seed.h **** #ifndef DSY_SEED_H
   3:./libdaisy/src/daisy_seed.h **** #define DSY_SEED_H
   4:./libdaisy/src/daisy_seed.h **** 
   5:./libdaisy/src/daisy_seed.h **** #include "daisy.h"
   6:./libdaisy/src/daisy_seed.h **** 
   7:./libdaisy/src/daisy_seed.h **** //Uncomment this out if you're still using the rev2 hardware
   8:./libdaisy/src/daisy_seed.h **** //#define SEED_REV2
   9:./libdaisy/src/daisy_seed.h **** 
  10:./libdaisy/src/daisy_seed.h **** namespace daisy
  11:./libdaisy/src/daisy_seed.h **** {
  12:./libdaisy/src/daisy_seed.h **** /**
  13:./libdaisy/src/daisy_seed.h ****    @brief This is the higher-level interface for the Daisy board. \n 
  14:./libdaisy/src/daisy_seed.h ****     All basic peripheral configuration/initialization is setup here. \n
  15:./libdaisy/src/daisy_seed.h **** 
  16:./libdaisy/src/daisy_seed.h ****    @ingroup boards
  17:./libdaisy/src/daisy_seed.h **** */
  18:./libdaisy/src/daisy_seed.h **** class DaisySeed
  19:./libdaisy/src/daisy_seed.h **** {
  20:./libdaisy/src/daisy_seed.h ****   public:
  21:./libdaisy/src/daisy_seed.h ****     DaisySeed() {}
  22:./libdaisy/src/daisy_seed.h ****     ~DaisySeed() {}
  31              		.loc 2 22 5 view -0
  32              		.cfi_startproc
  33              		@ args = 0, pretend = 0, frame = 0
  34              		@ frame_needed = 0, uses_anonymous_args = 0
  35              		@ link register save eliminated.
  36              	.LBB1814:
ARM GAS  C:\Users\cesco\AppData\Local\Temp\ccOskMVA.s 			page 2


  37              	.LBI1814:
  38              		.file 3 "./libdaisy/src/dev/codec_ak4556.h"
   1:./libdaisy/src/dev/codec_ak4556.h **** #pragma once
   2:./libdaisy/src/dev/codec_ak4556.h **** #ifndef DSY_CODEC_AK4556_H
   3:./libdaisy/src/dev/codec_ak4556.h **** #define DSY_CODEC_AK4556_H
   4:./libdaisy/src/dev/codec_ak4556.h **** 
   5:./libdaisy/src/dev/codec_ak4556.h **** #include "daisy_core.h"
   6:./libdaisy/src/dev/codec_ak4556.h **** #include "per/gpio.h"
   7:./libdaisy/src/dev/codec_ak4556.h **** 
   8:./libdaisy/src/dev/codec_ak4556.h **** namespace daisy
   9:./libdaisy/src/dev/codec_ak4556.h **** {
  10:./libdaisy/src/dev/codec_ak4556.h **** /** @brief Ak4556 Codec support 
  11:./libdaisy/src/dev/codec_ak4556.h ****  ** @author shensley
  12:./libdaisy/src/dev/codec_ak4556.h ****  ** @addtogroup codec
  13:./libdaisy/src/dev/codec_ak4556.h ****  ** 
  14:./libdaisy/src/dev/codec_ak4556.h ****  ** I don't see any real reason to have this be more than a function, but in case we want
  15:./libdaisy/src/dev/codec_ak4556.h ****  ** to add other functions down the road I wrapped the function in a class.
  16:./libdaisy/src/dev/codec_ak4556.h ****  ***/
  17:./libdaisy/src/dev/codec_ak4556.h **** class Ak4556
  18:./libdaisy/src/dev/codec_ak4556.h **** {
  19:./libdaisy/src/dev/codec_ak4556.h ****   public:
  20:./libdaisy/src/dev/codec_ak4556.h ****     Ak4556() {}
  21:./libdaisy/src/dev/codec_ak4556.h ****     ~Ak4556() {}
  39              		.loc 3 21 5 view .LVU1
  40              		.loc 3 21 5 is_stmt 0 view .LVU2
  41              	.LBE1814:
  42              	.LBB1815:
  43              	.LBI1815:
  44              		.file 4 "./libdaisy/src/sys/system.h"
   1:./libdaisy/src/sys/system.h **** #ifndef DSY_SYSTEM_H
   2:./libdaisy/src/sys/system.h **** #define DSY_SYSTEM_H
   3:./libdaisy/src/sys/system.h **** 
   4:./libdaisy/src/sys/system.h **** #ifndef UNIT_TEST // for unit tests, a dummy implementation is provided below
   5:./libdaisy/src/sys/system.h **** 
   6:./libdaisy/src/sys/system.h **** #include <cstdint>
   7:./libdaisy/src/sys/system.h **** #include "per/tim.h"
   8:./libdaisy/src/sys/system.h **** 
   9:./libdaisy/src/sys/system.h **** namespace daisy
  10:./libdaisy/src/sys/system.h **** {
  11:./libdaisy/src/sys/system.h **** /** A handle for interacting with the Core System.
  12:./libdaisy/src/sys/system.h ****  ** This includes the Clock tree, MPU, global DMA initialization,
  13:./libdaisy/src/sys/system.h ****  ** cache handling, and any other necessary global initiailzation
  14:./libdaisy/src/sys/system.h ****  **
  15:./libdaisy/src/sys/system.h ****  ** @author shensley
  16:./libdaisy/src/sys/system.h ****  ** @ingroup system
  17:./libdaisy/src/sys/system.h ****  */
  18:./libdaisy/src/sys/system.h **** class System
  19:./libdaisy/src/sys/system.h **** {
  20:./libdaisy/src/sys/system.h ****   public:
  21:./libdaisy/src/sys/system.h ****     /** Contains settings for initializing the System */
  22:./libdaisy/src/sys/system.h ****     struct Config
  23:./libdaisy/src/sys/system.h ****     {
  24:./libdaisy/src/sys/system.h ****         /** Specifies the system clock frequency that feeds APB/AHB clocks, etc. */
  25:./libdaisy/src/sys/system.h ****         enum class SysClkFreq
  26:./libdaisy/src/sys/system.h ****         {
  27:./libdaisy/src/sys/system.h ****             FREQ_400MHZ,
  28:./libdaisy/src/sys/system.h ****             FREQ_480MHZ,
ARM GAS  C:\Users\cesco\AppData\Local\Temp\ccOskMVA.s 			page 3


  29:./libdaisy/src/sys/system.h ****         };
  30:./libdaisy/src/sys/system.h **** 
  31:./libdaisy/src/sys/system.h ****         /** Method to call on the struct to set to defaults
  32:./libdaisy/src/sys/system.h ****          ** CPU Freq set to 400MHz
  33:./libdaisy/src/sys/system.h ****          ** Cache Enabled
  34:./libdaisy/src/sys/system.h ****          ** */
  35:./libdaisy/src/sys/system.h ****         void Defaults()
  36:./libdaisy/src/sys/system.h ****         {
  37:./libdaisy/src/sys/system.h ****             cpu_freq    = SysClkFreq::FREQ_400MHZ;
  38:./libdaisy/src/sys/system.h ****             use_dcache  = true;
  39:./libdaisy/src/sys/system.h ****             use_icache  = true;
  40:./libdaisy/src/sys/system.h ****             skip_clocks = false;
  41:./libdaisy/src/sys/system.h ****         }
  42:./libdaisy/src/sys/system.h **** 
  43:./libdaisy/src/sys/system.h ****         /** Method to call on the struct to set to boost mode:
  44:./libdaisy/src/sys/system.h ****          ** CPU Freq set to 480MHz
  45:./libdaisy/src/sys/system.h ****          ** Cache Enabled
  46:./libdaisy/src/sys/system.h ****          ** */
  47:./libdaisy/src/sys/system.h ****         void Boost()
  48:./libdaisy/src/sys/system.h ****         {
  49:./libdaisy/src/sys/system.h ****             cpu_freq    = SysClkFreq::FREQ_480MHZ;
  50:./libdaisy/src/sys/system.h ****             use_dcache  = true;
  51:./libdaisy/src/sys/system.h ****             use_icache  = true;
  52:./libdaisy/src/sys/system.h ****             skip_clocks = false;
  53:./libdaisy/src/sys/system.h ****         }
  54:./libdaisy/src/sys/system.h **** 
  55:./libdaisy/src/sys/system.h ****         SysClkFreq cpu_freq;
  56:./libdaisy/src/sys/system.h ****         bool       use_dcache;
  57:./libdaisy/src/sys/system.h ****         bool       use_icache;
  58:./libdaisy/src/sys/system.h ****         bool       skip_clocks;
  59:./libdaisy/src/sys/system.h ****     };
  60:./libdaisy/src/sys/system.h **** 
  61:./libdaisy/src/sys/system.h ****     /** Describes the different regions of memory available to the Daisy */
  62:./libdaisy/src/sys/system.h ****     enum MemoryRegion
  63:./libdaisy/src/sys/system.h ****     {
  64:./libdaisy/src/sys/system.h ****         INTERNAL_FLASH = 0,
  65:./libdaisy/src/sys/system.h ****         ITCMRAM,
  66:./libdaisy/src/sys/system.h ****         DTCMRAM,
  67:./libdaisy/src/sys/system.h ****         SRAM_D1,
  68:./libdaisy/src/sys/system.h ****         SRAM_D2,
  69:./libdaisy/src/sys/system.h ****         SRAM_D3,
  70:./libdaisy/src/sys/system.h ****         SDRAM,
  71:./libdaisy/src/sys/system.h ****         QSPI,
  72:./libdaisy/src/sys/system.h ****         INVALID_ADDRESS,
  73:./libdaisy/src/sys/system.h ****     };
  74:./libdaisy/src/sys/system.h **** 
  75:./libdaisy/src/sys/system.h ****     /** Bootloader struct for controlling bootloading parameters */
  76:./libdaisy/src/sys/system.h ****     struct BootInfo
  77:./libdaisy/src/sys/system.h ****     {
  78:./libdaisy/src/sys/system.h ****         enum class Type : uint32_t
  79:./libdaisy/src/sys/system.h ****         {
  80:./libdaisy/src/sys/system.h ****             INVALID      = 0x00000000,
  81:./libdaisy/src/sys/system.h ****             JUMP         = 0xDEADBEEF,
  82:./libdaisy/src/sys/system.h ****             SKIP_TIMEOUT = 0x5AFEB007,
  83:./libdaisy/src/sys/system.h ****             INF_TIMEOUT  = 0xB0074EFA,
  84:./libdaisy/src/sys/system.h ****         } status;
  85:./libdaisy/src/sys/system.h ****         uint32_t data;
ARM GAS  C:\Users\cesco\AppData\Local\Temp\ccOskMVA.s 			page 4


  86:./libdaisy/src/sys/system.h ****         enum class Version : uint32_t
  87:./libdaisy/src/sys/system.h ****         {
  88:./libdaisy/src/sys/system.h ****             LT_v6_0 = 0, // Less than v6.0
  89:./libdaisy/src/sys/system.h ****             NONE,        // No bootloader present
  90:./libdaisy/src/sys/system.h ****             v6_0,        // v6.0
  91:./libdaisy/src/sys/system.h ****             v6_1,        // v6.1 or greater
  92:./libdaisy/src/sys/system.h ****             LAST
  93:./libdaisy/src/sys/system.h ****         } version;
  94:./libdaisy/src/sys/system.h ****     };
  95:./libdaisy/src/sys/system.h **** 
  96:./libdaisy/src/sys/system.h ****     System() {}
  97:./libdaisy/src/sys/system.h ****     ~System() {}
  45              		.loc 4 97 5 is_stmt 1 view .LVU3
  46              		.loc 4 97 5 is_stmt 0 view .LVU4
  47              	.LBE1815:
  48              	.LBB1816:
  49              	.LBI1816:
  50              		.file 5 "./libdaisy/src/hid/usb.h"
   1:./libdaisy/src/hid/usb.h **** #pragma once
   2:./libdaisy/src/hid/usb.h **** #ifndef DSY_HID_USB_H
   3:./libdaisy/src/hid/usb.h **** #define DSY_HID_USB_H
   4:./libdaisy/src/hid/usb.h **** #include <stdint.h>
   5:./libdaisy/src/hid/usb.h **** #include <stdlib.h>
   6:./libdaisy/src/hid/usb.h **** 
   7:./libdaisy/src/hid/usb.h **** namespace daisy
   8:./libdaisy/src/hid/usb.h **** /** @addtogroup human_interface
   9:./libdaisy/src/hid/usb.h ****     @{
  10:./libdaisy/src/hid/usb.h **** */
  11:./libdaisy/src/hid/usb.h **** 
  12:./libdaisy/src/hid/usb.h **** {
  13:./libdaisy/src/hid/usb.h **** /** 
  14:./libdaisy/src/hid/usb.h ****     @brief Interface for initializing and using the USB Peripherals on the daisy
  15:./libdaisy/src/hid/usb.h ****     @author Stephen Hensley
  16:./libdaisy/src/hid/usb.h ****     @date December 2019
  17:./libdaisy/src/hid/usb.h **** */
  18:./libdaisy/src/hid/usb.h **** class UsbHandle
  19:./libdaisy/src/hid/usb.h **** {
  20:./libdaisy/src/hid/usb.h ****   public:
  21:./libdaisy/src/hid/usb.h ****     /** Return values for USBHandle Functions */
  22:./libdaisy/src/hid/usb.h ****     enum class Result
  23:./libdaisy/src/hid/usb.h ****     {
  24:./libdaisy/src/hid/usb.h ****         OK,
  25:./libdaisy/src/hid/usb.h ****         ERR,
  26:./libdaisy/src/hid/usb.h ****     };
  27:./libdaisy/src/hid/usb.h **** 
  28:./libdaisy/src/hid/usb.h ****     /** Specified which of the two USB Peripherals to initialize. */
  29:./libdaisy/src/hid/usb.h ****     enum UsbPeriph
  30:./libdaisy/src/hid/usb.h ****     {
  31:./libdaisy/src/hid/usb.h ****         FS_INTERNAL, /**< Internal pin */
  32:./libdaisy/src/hid/usb.h ****         FS_EXTERNAL, /**< FS External D+ pin is Pin 38 (GPIO32). FS External D- pin is Pin 37 (GPIO
  33:./libdaisy/src/hid/usb.h ****         FS_BOTH,     /**< Both */
  34:./libdaisy/src/hid/usb.h ****     };
  35:./libdaisy/src/hid/usb.h **** 
  36:./libdaisy/src/hid/usb.h **** 
  37:./libdaisy/src/hid/usb.h ****     /** Function called upon reception of a buffer */
  38:./libdaisy/src/hid/usb.h ****     typedef void (*ReceiveCallback)(uint8_t* buff, uint32_t* len);
  39:./libdaisy/src/hid/usb.h **** 
ARM GAS  C:\Users\cesco\AppData\Local\Temp\ccOskMVA.s 			page 5


  40:./libdaisy/src/hid/usb.h ****     UsbHandle() {}
  41:./libdaisy/src/hid/usb.h **** 
  42:./libdaisy/src/hid/usb.h ****     ~UsbHandle() {}
  51              		.loc 5 42 5 is_stmt 1 view .LVU5
  52              		.loc 5 42 5 is_stmt 0 view .LVU6
  53              	.LBE1816:
  54              	.LBB1817:
  55              	.LBI1817:
  56              		.file 6 "./libdaisy/src/per/adc.h"
   1:./libdaisy/src/per/adc.h **** #pragma once
   2:./libdaisy/src/per/adc.h **** #ifndef DSY_ADC_H
   3:./libdaisy/src/per/adc.h **** #define DSY_ADC_H /**< Macro */
   4:./libdaisy/src/per/adc.h **** #include <stdint.h>
   5:./libdaisy/src/per/adc.h **** #include <stdlib.h>
   6:./libdaisy/src/per/adc.h **** #include "daisy_core.h"
   7:./libdaisy/src/per/adc.h **** #include "per/gpio.h"
   8:./libdaisy/src/per/adc.h **** 
   9:./libdaisy/src/per/adc.h **** #define DSY_ADC_MAX_CHANNELS 16 /**< Maximum number of ADC channels */
  10:./libdaisy/src/per/adc.h **** 
  11:./libdaisy/src/per/adc.h **** namespace daisy
  12:./libdaisy/src/per/adc.h **** {
  13:./libdaisy/src/per/adc.h **** /** @addtogroup per_analog
  14:./libdaisy/src/per/adc.h ****     @{
  15:./libdaisy/src/per/adc.h **** */
  16:./libdaisy/src/per/adc.h **** 
  17:./libdaisy/src/per/adc.h **** /* While there may not be many configuration options here,
  18:./libdaisy/src/per/adc.h **** using a struct like this allows us to add more configuration
  19:./libdaisy/src/per/adc.h **** later without breaking existing functionality.
  20:./libdaisy/src/per/adc.h **** */
  21:./libdaisy/src/per/adc.h **** 
  22:./libdaisy/src/per/adc.h **** /** @brief   Configuration Structure for an ADC Channel 
  23:./libdaisy/src/per/adc.h ****  *  @details This can be used to configure a a single input, 
  24:./libdaisy/src/per/adc.h ****  *           or a multiplexed input, allowing up to 8 inputs on 
  25:./libdaisy/src/per/adc.h ****  *           one channel.
  26:./libdaisy/src/per/adc.h ****  *  @note    Sharing data lines to multiple muxes _is_ possible, but
  27:./libdaisy/src/per/adc.h ****  *           each channel sharing data lines must be set to the maximum
  28:./libdaisy/src/per/adc.h ****  *           number of channels, even if some multiplexers have fewer
  29:./libdaisy/src/per/adc.h ****  *           inputs connected.
  30:./libdaisy/src/per/adc.h **** */
  31:./libdaisy/src/per/adc.h **** struct AdcChannelConfig
  32:./libdaisy/src/per/adc.h **** {
  33:./libdaisy/src/per/adc.h ****     /** Which pin to use for multiplexing */
  34:./libdaisy/src/per/adc.h ****     enum MuxPin
  35:./libdaisy/src/per/adc.h ****     {
  36:./libdaisy/src/per/adc.h ****         MUX_SEL_0,    /**< & */
  37:./libdaisy/src/per/adc.h ****         MUX_SEL_1,    /**< & */
  38:./libdaisy/src/per/adc.h ****         MUX_SEL_2,    /**< & */
  39:./libdaisy/src/per/adc.h ****         MUX_SEL_LAST, /**< & */
  40:./libdaisy/src/per/adc.h ****     };
  41:./libdaisy/src/per/adc.h **** 
  42:./libdaisy/src/per/adc.h ****     /** \brief per channel conversion speed added to fixed time based on bitdepth, etc. */
  43:./libdaisy/src/per/adc.h ****     enum ConversionSpeed
  44:./libdaisy/src/per/adc.h ****     {
  45:./libdaisy/src/per/adc.h ****         SPEED_1CYCLES_5,
  46:./libdaisy/src/per/adc.h ****         SPEED_2CYCLES_5,
  47:./libdaisy/src/per/adc.h ****         SPEED_8CYCLES_5,
  48:./libdaisy/src/per/adc.h ****         SPEED_16CYCLES_5,
ARM GAS  C:\Users\cesco\AppData\Local\Temp\ccOskMVA.s 			page 6


  49:./libdaisy/src/per/adc.h ****         SPEED_32CYCLES_5,
  50:./libdaisy/src/per/adc.h ****         SPEED_64CYCLES_5,
  51:./libdaisy/src/per/adc.h ****         SPEED_387CYCLES_5,
  52:./libdaisy/src/per/adc.h ****         SPEED_810CYCLES_5,
  53:./libdaisy/src/per/adc.h ****     };
  54:./libdaisy/src/per/adc.h **** 
  55:./libdaisy/src/per/adc.h ****     /** Initializes a single ADC pin as an ADC. 
  56:./libdaisy/src/per/adc.h ****     \param pin Pin to init.
  57:./libdaisy/src/per/adc.h ****     \param speed conversion speed for this pin defaults to 8.5 cycles
  58:./libdaisy/src/per/adc.h ****      */
  59:./libdaisy/src/per/adc.h ****     void InitSingle(Pin pin, ConversionSpeed speed = SPEED_8CYCLES_5);
  60:./libdaisy/src/per/adc.h **** 
  61:./libdaisy/src/per/adc.h ****     /** 
  62:./libdaisy/src/per/adc.h ****     Initializes a single ADC pin as a Multiplexed ADC.
  63:./libdaisy/src/per/adc.h ****     Requires a CD405X Multiplexer connected to the pin.
  64:./libdaisy/src/per/adc.h ****     You only need to supply the mux pins that are required,
  65:./libdaisy/src/per/adc.h ****     e.g. a 4052 mux would only require mux_0 and mux_1.
  66:./libdaisy/src/per/adc.h ****     Internal Callbacks handle the pin addressing.
  67:./libdaisy/src/per/adc.h ****     \param adc_pin &
  68:./libdaisy/src/per/adc.h ****     \param mux_channels must be 1-8
  69:./libdaisy/src/per/adc.h ****     \param mux_0 First mux pin
  70:./libdaisy/src/per/adc.h ****     \param mux_1 Second mux pin
  71:./libdaisy/src/per/adc.h ****     \param mux_2 Third mux pin
  72:./libdaisy/src/per/adc.h ****     \param speed conversion speed for this pin defaults to 8.5 cycles
  73:./libdaisy/src/per/adc.h ****     */
  74:./libdaisy/src/per/adc.h ****     void InitMux(Pin             adc_pin,
  75:./libdaisy/src/per/adc.h ****                  size_t          mux_channels,
  76:./libdaisy/src/per/adc.h ****                  Pin             mux_0,
  77:./libdaisy/src/per/adc.h ****                  Pin             mux_1 = Pin(PORTX, 0),
  78:./libdaisy/src/per/adc.h ****                  Pin             mux_2 = Pin(PORTX, 0),
  79:./libdaisy/src/per/adc.h ****                  ConversionSpeed speed = SPEED_8CYCLES_5);
  80:./libdaisy/src/per/adc.h **** 
  81:./libdaisy/src/per/adc.h ****     GPIO            pin_;                   /**< & */
  82:./libdaisy/src/per/adc.h ****     GPIO            mux_pin_[MUX_SEL_LAST]; /**< & */
  83:./libdaisy/src/per/adc.h ****     uint8_t         mux_channels_;          /**< & */
  84:./libdaisy/src/per/adc.h ****     ConversionSpeed speed_;
  85:./libdaisy/src/per/adc.h **** };
  86:./libdaisy/src/per/adc.h **** 
  87:./libdaisy/src/per/adc.h **** /**
  88:./libdaisy/src/per/adc.h ****    @brief Handler for analog to digital conversion
  89:./libdaisy/src/per/adc.h **** */
  90:./libdaisy/src/per/adc.h **** class AdcHandle
  91:./libdaisy/src/per/adc.h **** {
  92:./libdaisy/src/per/adc.h ****   public:
  93:./libdaisy/src/per/adc.h ****     /** Supported oversampling amounts */
  94:./libdaisy/src/per/adc.h ****     enum OverSampling
  95:./libdaisy/src/per/adc.h ****     {
  96:./libdaisy/src/per/adc.h ****         OVS_NONE, /**< & */
  97:./libdaisy/src/per/adc.h ****         OVS_4,    /**< & */
  98:./libdaisy/src/per/adc.h ****         OVS_8,    /**< & */
  99:./libdaisy/src/per/adc.h ****         OVS_16,   /**< & */
 100:./libdaisy/src/per/adc.h ****         OVS_32,   /**< & */
 101:./libdaisy/src/per/adc.h ****         OVS_64,   /**< & */
 102:./libdaisy/src/per/adc.h ****         OVS_128,  /**< & */
 103:./libdaisy/src/per/adc.h ****         OVS_256,  /**< & */
 104:./libdaisy/src/per/adc.h ****         OVS_512,  /**< & */
 105:./libdaisy/src/per/adc.h ****         OVS_1024, /**< & */
ARM GAS  C:\Users\cesco\AppData\Local\Temp\ccOskMVA.s 			page 7


 106:./libdaisy/src/per/adc.h ****         OVS_LAST, /**< & */
 107:./libdaisy/src/per/adc.h ****     };
 108:./libdaisy/src/per/adc.h **** 
 109:./libdaisy/src/per/adc.h ****     AdcHandle() {}
 110:./libdaisy/src/per/adc.h ****     ~AdcHandle() {}
  57              		.loc 6 110 5 is_stmt 1 view .LVU7
  58              		.loc 6 110 5 is_stmt 0 view .LVU8
  59              	.LBE1817:
  60              	.LBB1818:
  61              	.LBI1818:
  62              		.file 7 "./libdaisy/src/hid/audio.h"
   1:./libdaisy/src/hid/audio.h **** #ifndef DSY_AUDIO_H
   2:./libdaisy/src/hid/audio.h **** #define DSY_AUDIO_H /**< & */
   3:./libdaisy/src/hid/audio.h **** 
   4:./libdaisy/src/hid/audio.h **** #include "per/sai.h"
   5:./libdaisy/src/hid/audio.h **** 
   6:./libdaisy/src/hid/audio.h **** namespace daisy
   7:./libdaisy/src/hid/audio.h **** {
   8:./libdaisy/src/hid/audio.h **** /** @brief Audio Engine Handle
   9:./libdaisy/src/hid/audio.h ****  *  @ingroup audio 
  10:./libdaisy/src/hid/audio.h ****  *  @details This class allows for higher level access to an audio engine.
  11:./libdaisy/src/hid/audio.h ****  *           If you're using a SOM like the DaisySeed or DaisyPatchSM (or any 
  12:./libdaisy/src/hid/audio.h ****  *            board that includes one of those objects) then the intialization
  13:./libdaisy/src/hid/audio.h ****  *            is already taken  care of.
  14:./libdaisy/src/hid/audio.h ****  *           If you're setting up your own custom hardware, or need to make changes
  15:./libdaisy/src/hid/audio.h ****  *           you will have to take the following steps:
  16:./libdaisy/src/hid/audio.h ****  *             1. Create and Initialize an SaiHandle or two depending on your requirements
  17:./libdaisy/src/hid/audio.h ****  *             2. Initialize the Audio Handle with the desired settings and the Initialized SaiHand
  18:./libdaisy/src/hid/audio.h ****  *             3. If the connected codec requires special configuration or initialization, do so
  19:./libdaisy/src/hid/audio.h ****  *             4. Write a callback method using either the AudioCallback or the InterleavingAudioCa
  20:./libdaisy/src/hid/audio.h ****  *             5. Start the Audio using one of the StartAudio function
  21:./libdaisy/src/hid/audio.h ****  */
  22:./libdaisy/src/hid/audio.h **** class AudioHandle
  23:./libdaisy/src/hid/audio.h **** {
  24:./libdaisy/src/hid/audio.h ****   public:
  25:./libdaisy/src/hid/audio.h ****     /** Manually configurable details about the Audio Engine */
  26:./libdaisy/src/hid/audio.h ****     /** TODO: Figure out how to get samplerate in here. */
  27:./libdaisy/src/hid/audio.h ****     struct Config
  28:./libdaisy/src/hid/audio.h ****     {
  29:./libdaisy/src/hid/audio.h ****         /** number of samples to process per callback */
  30:./libdaisy/src/hid/audio.h ****         size_t blocksize = 48;
  31:./libdaisy/src/hid/audio.h **** 
  32:./libdaisy/src/hid/audio.h ****         /**< Sample rate of audio */
  33:./libdaisy/src/hid/audio.h ****         SaiHandle::Config::SampleRate samplerate
  34:./libdaisy/src/hid/audio.h ****             = SaiHandle::Config::SampleRate::SAI_48KHZ;
  35:./libdaisy/src/hid/audio.h **** 
  36:./libdaisy/src/hid/audio.h ****         /** factor for adjustment before and after callback for hardware that may have extra headro
  37:./libdaisy/src/hid/audio.h ****         float postgain = 1.f;
  38:./libdaisy/src/hid/audio.h **** 
  39:./libdaisy/src/hid/audio.h ****         /** factor for additional one-sided compensation to audio path for hardware that may
  40:./libdaisy/src/hid/audio.h ****          *  have unequal input/output ranges
  41:./libdaisy/src/hid/audio.h ****          */
  42:./libdaisy/src/hid/audio.h ****         float output_compensation = 1.f;
  43:./libdaisy/src/hid/audio.h ****     };
  44:./libdaisy/src/hid/audio.h **** 
  45:./libdaisy/src/hid/audio.h ****     enum class Result
  46:./libdaisy/src/hid/audio.h ****     {
ARM GAS  C:\Users\cesco\AppData\Local\Temp\ccOskMVA.s 			page 8


  47:./libdaisy/src/hid/audio.h ****         OK,
  48:./libdaisy/src/hid/audio.h ****         ERR,
  49:./libdaisy/src/hid/audio.h ****     };
  50:./libdaisy/src/hid/audio.h **** 
  51:./libdaisy/src/hid/audio.h ****     /** Non-Interleaving input buffer
  52:./libdaisy/src/hid/audio.h ****      * Buffer arranged by float[chn][sample] 
  53:./libdaisy/src/hid/audio.h ****      * const so that the user can't modify the input
  54:./libdaisy/src/hid/audio.h ****      */
  55:./libdaisy/src/hid/audio.h ****     typedef const float* const* InputBuffer;
  56:./libdaisy/src/hid/audio.h **** 
  57:./libdaisy/src/hid/audio.h ****     /** Non-Interleaving output buffer
  58:./libdaisy/src/hid/audio.h ****      * Arranged by float[chn][sample] 
  59:./libdaisy/src/hid/audio.h ****      */
  60:./libdaisy/src/hid/audio.h ****     typedef float** OutputBuffer;
  61:./libdaisy/src/hid/audio.h **** 
  62:./libdaisy/src/hid/audio.h ****     /** Type for a Non-Interleaving audio callback 
  63:./libdaisy/src/hid/audio.h ****      * Non-Interleaving audio callbacks in daisy will be of this type
  64:./libdaisy/src/hid/audio.h ****      */
  65:./libdaisy/src/hid/audio.h ****     typedef void (*AudioCallback)(InputBuffer  in,
  66:./libdaisy/src/hid/audio.h ****                                   OutputBuffer out,
  67:./libdaisy/src/hid/audio.h ****                                   size_t       size);
  68:./libdaisy/src/hid/audio.h **** 
  69:./libdaisy/src/hid/audio.h ****     /** Interleaving Input buffer
  70:./libdaisy/src/hid/audio.h ****      ** audio is prepared as { L0, R0, L1, R1, . . . LN, RN }]
  71:./libdaisy/src/hid/audio.h ****      ** this is const, as the user shouldn't modify it
  72:./libdaisy/src/hid/audio.h ****     */
  73:./libdaisy/src/hid/audio.h ****     typedef const float* InterleavingInputBuffer;
  74:./libdaisy/src/hid/audio.h **** 
  75:./libdaisy/src/hid/audio.h ****     /** Interleaving Output buffer 
  76:./libdaisy/src/hid/audio.h ****      ** audio is prepared as { L0, R0, L1, R1, . . . LN, RN }
  77:./libdaisy/src/hid/audio.h ****     */
  78:./libdaisy/src/hid/audio.h ****     typedef float* InterleavingOutputBuffer;
  79:./libdaisy/src/hid/audio.h **** 
  80:./libdaisy/src/hid/audio.h ****     /** Interleaving Audio Callback 
  81:./libdaisy/src/hid/audio.h ****      * Interleaving audio callbacks in daisy must be of this type
  82:./libdaisy/src/hid/audio.h ****      */
  83:./libdaisy/src/hid/audio.h ****     typedef void (*InterleavingAudioCallback)(InterleavingInputBuffer  in,
  84:./libdaisy/src/hid/audio.h ****                                               InterleavingOutputBuffer out,
  85:./libdaisy/src/hid/audio.h ****                                               size_t                   size);
  86:./libdaisy/src/hid/audio.h **** 
  87:./libdaisy/src/hid/audio.h ****     AudioHandle() : pimpl_(nullptr) {}
  88:./libdaisy/src/hid/audio.h ****     ~AudioHandle() {}
  63              		.loc 7 88 5 is_stmt 1 view .LVU9
  64              		.loc 7 88 5 is_stmt 0 view .LVU10
  65              	.LBE1818:
  66              		.loc 2 22 19 view .LVU11
  67 0000 7047     		bx	lr
  68              		.cfi_endproc
  69              	.LFE2533:
  71              		.weak	_ZN5daisy9DaisySeedD1Ev
  72              		.thumb_set _ZN5daisy9DaisySeedD1Ev,_ZN5daisy9DaisySeedD2Ev
  73 0002 00BF     		.section	.text._ZN7daisysp6ChorusD2Ev,"axG",%progbits,_ZN7daisysp6ChorusD5Ev,comdat
  74              		.align	1
  75              		.p2align 2,,3
  76              		.weak	_ZN7daisysp6ChorusD2Ev
  77              		.syntax unified
  78              		.thumb
ARM GAS  C:\Users\cesco\AppData\Local\Temp\ccOskMVA.s 			page 9


  79              		.thumb_func
  81              	_ZN7daisysp6ChorusD2Ev:
  82              	.LVL1:
  83              	.LFB4536:
  84              		.file 8 "./DaisySP/Source/Effects/chorus.h"
   1:./DaisySP/Source/Effects/chorus.h **** /*
   2:./DaisySP/Source/Effects/chorus.h **** Copyright (c) 2020 Electrosmith, Corp
   3:./DaisySP/Source/Effects/chorus.h **** 
   4:./DaisySP/Source/Effects/chorus.h **** Use of this source code is governed by an MIT-style
   5:./DaisySP/Source/Effects/chorus.h **** license that can be found in the LICENSE file or at
   6:./DaisySP/Source/Effects/chorus.h **** https://opensource.org/licenses/MIT.
   7:./DaisySP/Source/Effects/chorus.h **** */
   8:./DaisySP/Source/Effects/chorus.h **** 
   9:./DaisySP/Source/Effects/chorus.h **** #pragma once
  10:./DaisySP/Source/Effects/chorus.h **** #ifndef DSY_CHORUS_H
  11:./DaisySP/Source/Effects/chorus.h **** #define DSY_CHORUS_H
  12:./DaisySP/Source/Effects/chorus.h **** #ifdef __cplusplus
  13:./DaisySP/Source/Effects/chorus.h **** 
  14:./DaisySP/Source/Effects/chorus.h **** #include <stdint.h>
  15:./DaisySP/Source/Effects/chorus.h **** #include "Utility/delayline.h"
  16:./DaisySP/Source/Effects/chorus.h **** 
  17:./DaisySP/Source/Effects/chorus.h **** /** @file chorus.h */
  18:./DaisySP/Source/Effects/chorus.h **** 
  19:./DaisySP/Source/Effects/chorus.h **** namespace daisysp
  20:./DaisySP/Source/Effects/chorus.h **** {
  21:./DaisySP/Source/Effects/chorus.h **** /**  
  22:./DaisySP/Source/Effects/chorus.h ****     @brief Single Chorus engine. Used in Chorus.
  23:./DaisySP/Source/Effects/chorus.h ****     @author Ben Sergentanis
  24:./DaisySP/Source/Effects/chorus.h **** */
  25:./DaisySP/Source/Effects/chorus.h **** class ChorusEngine
  26:./DaisySP/Source/Effects/chorus.h **** {
  27:./DaisySP/Source/Effects/chorus.h ****   public:
  28:./DaisySP/Source/Effects/chorus.h ****     ChorusEngine() {}
  29:./DaisySP/Source/Effects/chorus.h ****     ~ChorusEngine() {}
  30:./DaisySP/Source/Effects/chorus.h **** 
  31:./DaisySP/Source/Effects/chorus.h ****     /** Initialize the module
  32:./DaisySP/Source/Effects/chorus.h ****         \param sample_rate Audio engine sample rate.
  33:./DaisySP/Source/Effects/chorus.h ****     */
  34:./DaisySP/Source/Effects/chorus.h ****     void Init(float sample_rate);
  35:./DaisySP/Source/Effects/chorus.h **** 
  36:./DaisySP/Source/Effects/chorus.h ****     /** Get the next sample
  37:./DaisySP/Source/Effects/chorus.h ****         \param in Sample to process
  38:./DaisySP/Source/Effects/chorus.h ****     */
  39:./DaisySP/Source/Effects/chorus.h ****     float Process(float in);
  40:./DaisySP/Source/Effects/chorus.h **** 
  41:./DaisySP/Source/Effects/chorus.h ****     /** How much to modulate the delay by.
  42:./DaisySP/Source/Effects/chorus.h ****         \param depth Works 0-1.
  43:./DaisySP/Source/Effects/chorus.h ****     */
  44:./DaisySP/Source/Effects/chorus.h ****     void SetLfoDepth(float depth);
  45:./DaisySP/Source/Effects/chorus.h **** 
  46:./DaisySP/Source/Effects/chorus.h ****     /** Set lfo frequency.
  47:./DaisySP/Source/Effects/chorus.h ****         \param freq Frequency in Hz
  48:./DaisySP/Source/Effects/chorus.h ****     */
  49:./DaisySP/Source/Effects/chorus.h ****     void SetLfoFreq(float freq);
  50:./DaisySP/Source/Effects/chorus.h **** 
  51:./DaisySP/Source/Effects/chorus.h ****     /** Set the internal delay rate. 
  52:./DaisySP/Source/Effects/chorus.h ****         \param delay Tuned for 0-1. Maps to .1 to 50 ms.
ARM GAS  C:\Users\cesco\AppData\Local\Temp\ccOskMVA.s 			page 10


  53:./DaisySP/Source/Effects/chorus.h ****     */
  54:./DaisySP/Source/Effects/chorus.h ****     void SetDelay(float delay);
  55:./DaisySP/Source/Effects/chorus.h **** 
  56:./DaisySP/Source/Effects/chorus.h ****     /** Set the delay time in ms.
  57:./DaisySP/Source/Effects/chorus.h ****         \param ms Delay time in ms, 0 to 50 ms.
  58:./DaisySP/Source/Effects/chorus.h ****     */
  59:./DaisySP/Source/Effects/chorus.h ****     void SetDelayMs(float ms);
  60:./DaisySP/Source/Effects/chorus.h **** 
  61:./DaisySP/Source/Effects/chorus.h ****     /** Set the feedback amount.
  62:./DaisySP/Source/Effects/chorus.h ****         \param feedback Amount from 0-1.
  63:./DaisySP/Source/Effects/chorus.h ****     */
  64:./DaisySP/Source/Effects/chorus.h ****     void SetFeedback(float feedback);
  65:./DaisySP/Source/Effects/chorus.h **** 
  66:./DaisySP/Source/Effects/chorus.h ****   private:
  67:./DaisySP/Source/Effects/chorus.h ****     float                    sample_rate_;
  68:./DaisySP/Source/Effects/chorus.h ****     static constexpr int32_t kDelayLength
  69:./DaisySP/Source/Effects/chorus.h ****         = 2400; // 50 ms at 48kHz = .05 * 48000
  70:./DaisySP/Source/Effects/chorus.h **** 
  71:./DaisySP/Source/Effects/chorus.h ****     //triangle lfos
  72:./DaisySP/Source/Effects/chorus.h ****     float lfo_phase_;
  73:./DaisySP/Source/Effects/chorus.h ****     float lfo_freq_;
  74:./DaisySP/Source/Effects/chorus.h ****     float lfo_amp_;
  75:./DaisySP/Source/Effects/chorus.h **** 
  76:./DaisySP/Source/Effects/chorus.h ****     float feedback_;
  77:./DaisySP/Source/Effects/chorus.h **** 
  78:./DaisySP/Source/Effects/chorus.h ****     float delay_;
  79:./DaisySP/Source/Effects/chorus.h **** 
  80:./DaisySP/Source/Effects/chorus.h ****     DelayLine<float, kDelayLength> del_;
  81:./DaisySP/Source/Effects/chorus.h **** 
  82:./DaisySP/Source/Effects/chorus.h ****     float ProcessLfo();
  83:./DaisySP/Source/Effects/chorus.h **** };
  84:./DaisySP/Source/Effects/chorus.h **** 
  85:./DaisySP/Source/Effects/chorus.h **** //wraps up all of the chorus engines
  86:./DaisySP/Source/Effects/chorus.h **** /**  
  87:./DaisySP/Source/Effects/chorus.h ****     @brief Chorus Effect.
  88:./DaisySP/Source/Effects/chorus.h ****     @author Ben Sergentanis
  89:./DaisySP/Source/Effects/chorus.h ****     @date Jan 2021
  90:./DaisySP/Source/Effects/chorus.h ****     Based on https://www.izotope.com/en/learn/understanding-chorus-flangers-and-phasers-in-audio-pr
  91:./DaisySP/Source/Effects/chorus.h ****     and https://www.researchgate.net/publication/236629475_Implementing_Professional_Audio_Effects_
  92:./DaisySP/Source/Effects/chorus.h **** */
  93:./DaisySP/Source/Effects/chorus.h **** class Chorus
  94:./DaisySP/Source/Effects/chorus.h **** {
  95:./DaisySP/Source/Effects/chorus.h ****   public:
  96:./DaisySP/Source/Effects/chorus.h ****     Chorus() {}
  97:./DaisySP/Source/Effects/chorus.h ****     ~Chorus() {}
  85              		.loc 8 97 5 is_stmt 1 view -0
  86              		.cfi_startproc
  87              		@ args = 0, pretend = 0, frame = 0
  88              		@ frame_needed = 0, uses_anonymous_args = 0
  89              		@ link register save eliminated.
  90              		.loc 8 97 16 is_stmt 0 view .LVU13
  91 0000 7047     		bx	lr
  92              		.cfi_endproc
  93              	.LFE4536:
  95              		.weak	_ZN7daisysp6ChorusD1Ev
  96              		.thumb_set _ZN7daisysp6ChorusD1Ev,_ZN7daisysp6ChorusD2Ev
  97 0002 00BF     		.section	.text._ZN7daisysp6PhaserD2Ev,"axG",%progbits,_ZN7daisysp6PhaserD5Ev,comdat
ARM GAS  C:\Users\cesco\AppData\Local\Temp\ccOskMVA.s 			page 11


  98              		.align	1
  99              		.p2align 2,,3
 100              		.weak	_ZN7daisysp6PhaserD2Ev
 101              		.syntax unified
 102              		.thumb
 103              		.thumb_func
 105              	_ZN7daisysp6PhaserD2Ev:
 106              	.LVL2:
 107              	.LFB4582:
 108              		.file 9 "./DaisySP/Source/Effects/phaser.h"
   1:./DaisySP/Source/Effects/phaser.h **** /*
   2:./DaisySP/Source/Effects/phaser.h **** Copyright (c) 2020 Electrosmith, Corp
   3:./DaisySP/Source/Effects/phaser.h **** 
   4:./DaisySP/Source/Effects/phaser.h **** Use of this source code is governed by an MIT-style
   5:./DaisySP/Source/Effects/phaser.h **** license that can be found in the LICENSE file or at
   6:./DaisySP/Source/Effects/phaser.h **** https://opensource.org/licenses/MIT.
   7:./DaisySP/Source/Effects/phaser.h **** */
   8:./DaisySP/Source/Effects/phaser.h **** 
   9:./DaisySP/Source/Effects/phaser.h **** #pragma once
  10:./DaisySP/Source/Effects/phaser.h **** #ifndef DSY_PHASER_H
  11:./DaisySP/Source/Effects/phaser.h **** #define DSY_PHASER_H
  12:./DaisySP/Source/Effects/phaser.h **** #ifdef __cplusplus
  13:./DaisySP/Source/Effects/phaser.h **** 
  14:./DaisySP/Source/Effects/phaser.h **** #include <stdint.h>
  15:./DaisySP/Source/Effects/phaser.h **** #include "Utility/delayline.h"
  16:./DaisySP/Source/Effects/phaser.h **** 
  17:./DaisySP/Source/Effects/phaser.h **** /** @file phaser.h */
  18:./DaisySP/Source/Effects/phaser.h **** 
  19:./DaisySP/Source/Effects/phaser.h **** namespace daisysp
  20:./DaisySP/Source/Effects/phaser.h **** {
  21:./DaisySP/Source/Effects/phaser.h **** /**  
  22:./DaisySP/Source/Effects/phaser.h ****     @brief Single Phaser engine. Used in Phaser.
  23:./DaisySP/Source/Effects/phaser.h ****     @author Ben Sergentanis
  24:./DaisySP/Source/Effects/phaser.h **** */
  25:./DaisySP/Source/Effects/phaser.h **** class PhaserEngine
  26:./DaisySP/Source/Effects/phaser.h **** {
  27:./DaisySP/Source/Effects/phaser.h ****   public:
  28:./DaisySP/Source/Effects/phaser.h ****     PhaserEngine() {}
  29:./DaisySP/Source/Effects/phaser.h ****     ~PhaserEngine() {}
  30:./DaisySP/Source/Effects/phaser.h **** 
  31:./DaisySP/Source/Effects/phaser.h ****     /** Initialize the module
  32:./DaisySP/Source/Effects/phaser.h ****         \param sample_rate Audio engine sample rate.
  33:./DaisySP/Source/Effects/phaser.h ****     */
  34:./DaisySP/Source/Effects/phaser.h ****     void Init(float sample_rate);
  35:./DaisySP/Source/Effects/phaser.h **** 
  36:./DaisySP/Source/Effects/phaser.h ****     /** Get the next sample
  37:./DaisySP/Source/Effects/phaser.h ****         \param in Sample to process
  38:./DaisySP/Source/Effects/phaser.h ****     */
  39:./DaisySP/Source/Effects/phaser.h ****     float Process(float in);
  40:./DaisySP/Source/Effects/phaser.h **** 
  41:./DaisySP/Source/Effects/phaser.h ****     /** How much to modulate the allpass filter by.
  42:./DaisySP/Source/Effects/phaser.h ****         \param depth Works 0-1.
  43:./DaisySP/Source/Effects/phaser.h ****     */
  44:./DaisySP/Source/Effects/phaser.h ****     void SetLfoDepth(float depth);
  45:./DaisySP/Source/Effects/phaser.h **** 
  46:./DaisySP/Source/Effects/phaser.h ****     /** Set lfo frequency.
  47:./DaisySP/Source/Effects/phaser.h ****         \param lfo_freq Frequency in Hz
ARM GAS  C:\Users\cesco\AppData\Local\Temp\ccOskMVA.s 			page 12


  48:./DaisySP/Source/Effects/phaser.h ****     */
  49:./DaisySP/Source/Effects/phaser.h ****     void SetLfoFreq(float lfo_freq);
  50:./DaisySP/Source/Effects/phaser.h **** 
  51:./DaisySP/Source/Effects/phaser.h ****     /** Set the allpass frequency
  52:./DaisySP/Source/Effects/phaser.h ****         \param ap_freq Frequency in Hz.
  53:./DaisySP/Source/Effects/phaser.h ****     */
  54:./DaisySP/Source/Effects/phaser.h ****     void SetFreq(float ap_freq);
  55:./DaisySP/Source/Effects/phaser.h **** 
  56:./DaisySP/Source/Effects/phaser.h ****     /** Set the feedback amount.
  57:./DaisySP/Source/Effects/phaser.h ****         \param feedback Amount from 0-1.
  58:./DaisySP/Source/Effects/phaser.h ****     */
  59:./DaisySP/Source/Effects/phaser.h ****     void SetFeedback(float feedback);
  60:./DaisySP/Source/Effects/phaser.h **** 
  61:./DaisySP/Source/Effects/phaser.h ****   private:
  62:./DaisySP/Source/Effects/phaser.h ****     float                    sample_rate_;
  63:./DaisySP/Source/Effects/phaser.h ****     static constexpr int32_t kDelayLength
  64:./DaisySP/Source/Effects/phaser.h ****         = 2400; // 50 ms at 48kHz = .05 * 48000
  65:./DaisySP/Source/Effects/phaser.h **** 
  66:./DaisySP/Source/Effects/phaser.h ****     //triangle lfo
  67:./DaisySP/Source/Effects/phaser.h ****     float lfo_phase_;
  68:./DaisySP/Source/Effects/phaser.h ****     float lfo_freq_;
  69:./DaisySP/Source/Effects/phaser.h ****     float lfo_amp_;
  70:./DaisySP/Source/Effects/phaser.h **** 
  71:./DaisySP/Source/Effects/phaser.h ****     float os_;
  72:./DaisySP/Source/Effects/phaser.h **** 
  73:./DaisySP/Source/Effects/phaser.h ****     float feedback_;
  74:./DaisySP/Source/Effects/phaser.h ****     float ap_freq_;
  75:./DaisySP/Source/Effects/phaser.h **** 
  76:./DaisySP/Source/Effects/phaser.h ****     float deltime_;
  77:./DaisySP/Source/Effects/phaser.h ****     float last_sample_;
  78:./DaisySP/Source/Effects/phaser.h **** 
  79:./DaisySP/Source/Effects/phaser.h ****     DelayLine<float, kDelayLength> del_;
  80:./DaisySP/Source/Effects/phaser.h **** 
  81:./DaisySP/Source/Effects/phaser.h ****     float ProcessLfo();
  82:./DaisySP/Source/Effects/phaser.h **** };
  83:./DaisySP/Source/Effects/phaser.h **** 
  84:./DaisySP/Source/Effects/phaser.h **** //wraps up all of the phaser engines
  85:./DaisySP/Source/Effects/phaser.h **** /**  
  86:./DaisySP/Source/Effects/phaser.h ****     @brief Phaser Effect.
  87:./DaisySP/Source/Effects/phaser.h ****     @author Ben Sergentanis
  88:./DaisySP/Source/Effects/phaser.h ****     @date Jan 2021
  89:./DaisySP/Source/Effects/phaser.h **** */
  90:./DaisySP/Source/Effects/phaser.h **** class Phaser
  91:./DaisySP/Source/Effects/phaser.h **** {
  92:./DaisySP/Source/Effects/phaser.h ****   public:
  93:./DaisySP/Source/Effects/phaser.h ****     Phaser() {}
  94:./DaisySP/Source/Effects/phaser.h ****     ~Phaser() {}
 109              		.loc 9 94 5 is_stmt 1 view -0
 110              		.cfi_startproc
 111              		@ args = 0, pretend = 0, frame = 0
 112              		@ frame_needed = 0, uses_anonymous_args = 0
 113              		@ link register save eliminated.
 114              		.loc 9 94 16 is_stmt 0 view .LVU15
 115 0000 7047     		bx	lr
 116              		.cfi_endproc
 117              	.LFE4582:
 119              		.weak	_ZN7daisysp6PhaserD1Ev
ARM GAS  C:\Users\cesco\AppData\Local\Temp\ccOskMVA.s 			page 13


 120              		.thumb_set _ZN7daisysp6PhaserD1Ev,_ZN7daisysp6PhaserD2Ev
 121 0002 00BF     		.section	.text._ZN7daisysp7TremoloD2Ev,"axG",%progbits,_ZN7daisysp7TremoloD5Ev,comdat
 122              		.align	1
 123              		.p2align 2,,3
 124              		.weak	_ZN7daisysp7TremoloD2Ev
 125              		.syntax unified
 126              		.thumb
 127              		.thumb_func
 129              	_ZN7daisysp7TremoloD2Ev:
 130              	.LVL3:
 131              	.LFB4594:
 132              		.file 10 "./DaisySP/Source/Effects/tremolo.h"
   1:./DaisySP/Source/Effects/tremolo.h **** /*
   2:./DaisySP/Source/Effects/tremolo.h **** Copyright (c) 2020 Electrosmith, Corp
   3:./DaisySP/Source/Effects/tremolo.h **** 
   4:./DaisySP/Source/Effects/tremolo.h **** Use of this source code is governed by an MIT-style
   5:./DaisySP/Source/Effects/tremolo.h **** license that can be found in the LICENSE file or at
   6:./DaisySP/Source/Effects/tremolo.h **** https://opensource.org/licenses/MIT.
   7:./DaisySP/Source/Effects/tremolo.h **** */
   8:./DaisySP/Source/Effects/tremolo.h **** 
   9:./DaisySP/Source/Effects/tremolo.h **** #pragma once
  10:./DaisySP/Source/Effects/tremolo.h **** #ifndef DSY_TREMOLO_H
  11:./DaisySP/Source/Effects/tremolo.h **** #define DSY_TREMOLO_H
  12:./DaisySP/Source/Effects/tremolo.h **** 
  13:./DaisySP/Source/Effects/tremolo.h **** #include <stdint.h>
  14:./DaisySP/Source/Effects/tremolo.h **** #ifdef __cplusplus
  15:./DaisySP/Source/Effects/tremolo.h **** 
  16:./DaisySP/Source/Effects/tremolo.h **** #include <math.h>
  17:./DaisySP/Source/Effects/tremolo.h **** #include "Synthesis/oscillator.h"
  18:./DaisySP/Source/Effects/tremolo.h **** 
  19:./DaisySP/Source/Effects/tremolo.h **** /** @file tremolo.h */
  20:./DaisySP/Source/Effects/tremolo.h **** 
  21:./DaisySP/Source/Effects/tremolo.h **** namespace daisysp
  22:./DaisySP/Source/Effects/tremolo.h **** {
  23:./DaisySP/Source/Effects/tremolo.h **** /**  
  24:./DaisySP/Source/Effects/tremolo.h ****     @brief Tremolo effect.
  25:./DaisySP/Source/Effects/tremolo.h ****     @author Ben Sergentanis
  26:./DaisySP/Source/Effects/tremolo.h ****     @date Jan 2021
  27:./DaisySP/Source/Effects/tremolo.h ****     Based on https://christianfloisand.wordpress.com/2012/04/18/coding-some-tremolo/ \n
  28:./DaisySP/Source/Effects/tremolo.h **** */
  29:./DaisySP/Source/Effects/tremolo.h **** class Tremolo
  30:./DaisySP/Source/Effects/tremolo.h **** {
  31:./DaisySP/Source/Effects/tremolo.h ****   public:
  32:./DaisySP/Source/Effects/tremolo.h ****     Tremolo() {}
  33:./DaisySP/Source/Effects/tremolo.h ****     ~Tremolo() {}
 133              		.loc 10 33 5 is_stmt 1 view -0
 134              		.cfi_startproc
 135              		@ args = 0, pretend = 0, frame = 0
 136              		@ frame_needed = 0, uses_anonymous_args = 0
 137              		@ link register save eliminated.
 138              	.LBB1819:
 139              	.LBI1819:
 140              		.file 11 "./DaisySP/Source/Synthesis/oscillator.h"
   1:./DaisySP/Source/Synthesis/oscillator.h **** /*
   2:./DaisySP/Source/Synthesis/oscillator.h **** Copyright (c) 2020 Electrosmith, Corp
   3:./DaisySP/Source/Synthesis/oscillator.h **** 
   4:./DaisySP/Source/Synthesis/oscillator.h **** Use of this source code is governed by an MIT-style
ARM GAS  C:\Users\cesco\AppData\Local\Temp\ccOskMVA.s 			page 14


   5:./DaisySP/Source/Synthesis/oscillator.h **** license that can be found in the LICENSE file or at
   6:./DaisySP/Source/Synthesis/oscillator.h **** https://opensource.org/licenses/MIT.
   7:./DaisySP/Source/Synthesis/oscillator.h **** */
   8:./DaisySP/Source/Synthesis/oscillator.h **** 
   9:./DaisySP/Source/Synthesis/oscillator.h **** #pragma once
  10:./DaisySP/Source/Synthesis/oscillator.h **** #ifndef DSY_OSCILLATOR_H
  11:./DaisySP/Source/Synthesis/oscillator.h **** #define DSY_OSCILLATOR_H
  12:./DaisySP/Source/Synthesis/oscillator.h **** #include <stdint.h>
  13:./DaisySP/Source/Synthesis/oscillator.h **** #include "Utility/dsp.h"
  14:./DaisySP/Source/Synthesis/oscillator.h **** #ifdef __cplusplus
  15:./DaisySP/Source/Synthesis/oscillator.h **** 
  16:./DaisySP/Source/Synthesis/oscillator.h **** namespace daisysp
  17:./DaisySP/Source/Synthesis/oscillator.h **** {
  18:./DaisySP/Source/Synthesis/oscillator.h **** /** Synthesis of several waveforms, including polyBLEP bandlimited waveforms.
  19:./DaisySP/Source/Synthesis/oscillator.h **** */
  20:./DaisySP/Source/Synthesis/oscillator.h **** class Oscillator
  21:./DaisySP/Source/Synthesis/oscillator.h **** {
  22:./DaisySP/Source/Synthesis/oscillator.h ****   public:
  23:./DaisySP/Source/Synthesis/oscillator.h ****     Oscillator() {}
  24:./DaisySP/Source/Synthesis/oscillator.h ****     ~Oscillator() {}
 141              		.loc 11 24 5 view .LVU17
 142              		.loc 11 24 5 is_stmt 0 view .LVU18
 143              	.LBE1819:
 144              		.loc 10 33 17 view .LVU19
 145 0000 7047     		bx	lr
 146              		.cfi_endproc
 147              	.LFE4594:
 149              		.weak	_ZN7daisysp7TremoloD1Ev
 150              		.thumb_set _ZN7daisysp7TremoloD1Ev,_ZN7daisysp7TremoloD2Ev
 151 0002 00BF     		.section	.text._ZN7daisysp17FormantOscillatorD2Ev,"axG",%progbits,_ZN7daisysp17FormantOscillatorD5
 152              		.align	1
 153              		.p2align 2,,3
 154              		.weak	_ZN7daisysp17FormantOscillatorD2Ev
 155              		.syntax unified
 156              		.thumb
 157              		.thumb_func
 159              	_ZN7daisysp17FormantOscillatorD2Ev:
 160              	.LVL4:
 161              	.LFB4787:
 162              		.file 12 "./DaisySP/Source/Synthesis/formantosc.h"
   1:./DaisySP/Source/Synthesis/formantosc.h **** /*
   2:./DaisySP/Source/Synthesis/formantosc.h **** Copyright (c) 2020 Electrosmith, Corp, Emilie Gillet
   3:./DaisySP/Source/Synthesis/formantosc.h **** 
   4:./DaisySP/Source/Synthesis/formantosc.h **** Use of this source code is governed by an MIT-style
   5:./DaisySP/Source/Synthesis/formantosc.h **** license that can be found in the LICENSE file or at
   6:./DaisySP/Source/Synthesis/formantosc.h **** https://opensource.org/licenses/MIT.
   7:./DaisySP/Source/Synthesis/formantosc.h **** */
   8:./DaisySP/Source/Synthesis/formantosc.h **** 
   9:./DaisySP/Source/Synthesis/formantosc.h **** #pragma once
  10:./DaisySP/Source/Synthesis/formantosc.h **** #ifndef DSY_FORMANTOSCILLATOR_H
  11:./DaisySP/Source/Synthesis/formantosc.h **** #define DSY_FORMANTOSCILLATOR_H
  12:./DaisySP/Source/Synthesis/formantosc.h **** 
  13:./DaisySP/Source/Synthesis/formantosc.h **** #include <stdint.h>
  14:./DaisySP/Source/Synthesis/formantosc.h **** #ifdef __cplusplus
  15:./DaisySP/Source/Synthesis/formantosc.h **** 
  16:./DaisySP/Source/Synthesis/formantosc.h **** /** @file formantosc.h */
  17:./DaisySP/Source/Synthesis/formantosc.h **** 
ARM GAS  C:\Users\cesco\AppData\Local\Temp\ccOskMVA.s 			page 15


  18:./DaisySP/Source/Synthesis/formantosc.h **** namespace daisysp
  19:./DaisySP/Source/Synthesis/formantosc.h **** {
  20:./DaisySP/Source/Synthesis/formantosc.h **** /**  
  21:./DaisySP/Source/Synthesis/formantosc.h ****        @brief Formant Oscillator Module. 
  22:./DaisySP/Source/Synthesis/formantosc.h ****        @author Ben Sergentanis
  23:./DaisySP/Source/Synthesis/formantosc.h ****        @date Dec 2020 
  24:./DaisySP/Source/Synthesis/formantosc.h ****        Sinewave with aliasing-free phase reset. \n \n
  25:./DaisySP/Source/Synthesis/formantosc.h ****        Ported from pichenettes/eurorack/plaits/dsp/oscillator/formant_oscillator.h \n
  26:./DaisySP/Source/Synthesis/formantosc.h ****        to an independent module. \n
  27:./DaisySP/Source/Synthesis/formantosc.h ****        Original code written by Emilie Gillet in 2016. \n
  28:./DaisySP/Source/Synthesis/formantosc.h **** */
  29:./DaisySP/Source/Synthesis/formantosc.h **** class FormantOscillator
  30:./DaisySP/Source/Synthesis/formantosc.h **** {
  31:./DaisySP/Source/Synthesis/formantosc.h ****   public:
  32:./DaisySP/Source/Synthesis/formantosc.h ****     FormantOscillator() {}
  33:./DaisySP/Source/Synthesis/formantosc.h ****     ~FormantOscillator() {}
 163              		.loc 12 33 5 is_stmt 1 view -0
 164              		.cfi_startproc
 165              		@ args = 0, pretend = 0, frame = 0
 166              		@ frame_needed = 0, uses_anonymous_args = 0
 167              		@ link register save eliminated.
 168              		.loc 12 33 27 is_stmt 0 view .LVU21
 169 0000 7047     		bx	lr
 170              		.cfi_endproc
 171              	.LFE4787:
 173              		.weak	_ZN7daisysp17FormantOscillatorD1Ev
 174              		.thumb_set _ZN7daisysp17FormantOscillatorD1Ev,_ZN7daisysp17FormantOscillatorD2Ev
 175 0002 00BF     		.section	.text._ZN7daisysp10CompressorD2Ev,"axG",%progbits,_ZN7daisysp10CompressorD5Ev,comdat
 176              		.align	1
 177              		.p2align 2,,3
 178              		.weak	_ZN7daisysp10CompressorD2Ev
 179              		.syntax unified
 180              		.thumb
 181              		.thumb_func
 183              	_ZN7daisysp10CompressorD2Ev:
 184              	.LVL5:
 185              	.LFB4909:
 186              		.file 13 "./DaisySP/DaisySP-LGPL/Source/Dynamics/compressor.h"
   1:./DaisySP/DaisySP-LGPL/Source/Dynamics/compressor.h **** /*
   2:./DaisySP/DaisySP-LGPL/Source/Dynamics/compressor.h **** Copyright (c) 2023 Electrosmith, Corp, GRAME, Centre National de Creation Musicale.
   3:./DaisySP/DaisySP-LGPL/Source/Dynamics/compressor.h **** 
   4:./DaisySP/DaisySP-LGPL/Source/Dynamics/compressor.h **** Use of this source code is governed by the LGPL V2.1
   5:./DaisySP/DaisySP-LGPL/Source/Dynamics/compressor.h **** license that can be found in the LICENSE file or at
   6:./DaisySP/DaisySP-LGPL/Source/Dynamics/compressor.h **** https://opensource.org/license/lgpl-2-1/
   7:./DaisySP/DaisySP-LGPL/Source/Dynamics/compressor.h **** */
   8:./DaisySP/DaisySP-LGPL/Source/Dynamics/compressor.h **** 
   9:./DaisySP/DaisySP-LGPL/Source/Dynamics/compressor.h **** #pragma once
  10:./DaisySP/DaisySP-LGPL/Source/Dynamics/compressor.h **** #ifndef DSY_COMPRESSOR_H
  11:./DaisySP/DaisySP-LGPL/Source/Dynamics/compressor.h **** #define DSY_COMPRESSOR_H
  12:./DaisySP/DaisySP-LGPL/Source/Dynamics/compressor.h **** 
  13:./DaisySP/DaisySP-LGPL/Source/Dynamics/compressor.h **** #include "Utility/dsp.h"
  14:./DaisySP/DaisySP-LGPL/Source/Dynamics/compressor.h **** 
  15:./DaisySP/DaisySP-LGPL/Source/Dynamics/compressor.h **** namespace daisysp
  16:./DaisySP/DaisySP-LGPL/Source/Dynamics/compressor.h **** {
  17:./DaisySP/DaisySP-LGPL/Source/Dynamics/compressor.h **** /** dynamics compressor
  18:./DaisySP/DaisySP-LGPL/Source/Dynamics/compressor.h **** 
  19:./DaisySP/DaisySP-LGPL/Source/Dynamics/compressor.h **** influenced by compressor in soundpipe (from faust).
ARM GAS  C:\Users\cesco\AppData\Local\Temp\ccOskMVA.s 			page 16


  20:./DaisySP/DaisySP-LGPL/Source/Dynamics/compressor.h **** 
  21:./DaisySP/DaisySP-LGPL/Source/Dynamics/compressor.h **** Modifications made to do:
  22:./DaisySP/DaisySP-LGPL/Source/Dynamics/compressor.h **** - Less calculations during each process loop (coefficients recalculated on parameter change).
  23:./DaisySP/DaisySP-LGPL/Source/Dynamics/compressor.h **** - C++-ified
  24:./DaisySP/DaisySP-LGPL/Source/Dynamics/compressor.h **** - added sidechain support
  25:./DaisySP/DaisySP-LGPL/Source/Dynamics/compressor.h **** - pulled gain apart for monitoring and multichannel support
  26:./DaisySP/DaisySP-LGPL/Source/Dynamics/compressor.h **** - improved readability
  27:./DaisySP/DaisySP-LGPL/Source/Dynamics/compressor.h **** - improved makeup-gain calculations
  28:./DaisySP/DaisySP-LGPL/Source/Dynamics/compressor.h **** - changing controls now costs a lot less
  29:./DaisySP/DaisySP-LGPL/Source/Dynamics/compressor.h **** - a lot less expensive
  30:./DaisySP/DaisySP-LGPL/Source/Dynamics/compressor.h **** 
  31:./DaisySP/DaisySP-LGPL/Source/Dynamics/compressor.h **** by: shensley, improved upon by AvAars
  32:./DaisySP/DaisySP-LGPL/Source/Dynamics/compressor.h **** \todo Add soft/hard knee settings
  33:./DaisySP/DaisySP-LGPL/Source/Dynamics/compressor.h **** */
  34:./DaisySP/DaisySP-LGPL/Source/Dynamics/compressor.h **** class Compressor
  35:./DaisySP/DaisySP-LGPL/Source/Dynamics/compressor.h **** {
  36:./DaisySP/DaisySP-LGPL/Source/Dynamics/compressor.h ****   public:
  37:./DaisySP/DaisySP-LGPL/Source/Dynamics/compressor.h ****     Compressor() {}
  38:./DaisySP/DaisySP-LGPL/Source/Dynamics/compressor.h ****     ~Compressor() {}
 187              		.loc 13 38 5 is_stmt 1 view -0
 188              		.cfi_startproc
 189              		@ args = 0, pretend = 0, frame = 0
 190              		@ frame_needed = 0, uses_anonymous_args = 0
 191              		@ link register save eliminated.
 192              		.loc 13 38 20 is_stmt 0 view .LVU23
 193 0000 7047     		bx	lr
 194              		.cfi_endproc
 195              	.LFE4909:
 197              		.weak	_ZN7daisysp10CompressorD1Ev
 198              		.thumb_set _ZN7daisysp10CompressorD1Ev,_ZN7daisysp10CompressorD2Ev
 199 0002 00BF     		.section	.text._ZN7daisysp4FoldD2Ev,"axG",%progbits,_ZN7daisysp4FoldD5Ev,comdat
 200              		.align	1
 201              		.p2align 2,,3
 202              		.weak	_ZN7daisysp4FoldD2Ev
 203              		.syntax unified
 204              		.thumb
 205              		.thumb_func
 207              	_ZN7daisysp4FoldD2Ev:
 208              	.LVL6:
 209              	.LFB4942:
 210              		.file 14 "./DaisySP/DaisySP-LGPL/Source/Effects/fold.h"
   1:./DaisySP/DaisySP-LGPL/Source/Effects/fold.h **** /*
   2:./DaisySP/DaisySP-LGPL/Source/Effects/fold.h **** Copyright (c) 2023 Electrosmith, Corp, John FFitch, Gabriel Maldonado
   3:./DaisySP/DaisySP-LGPL/Source/Effects/fold.h **** 
   4:./DaisySP/DaisySP-LGPL/Source/Effects/fold.h **** Use of this source code is governed by the LGPL V2.1
   5:./DaisySP/DaisySP-LGPL/Source/Effects/fold.h **** license that can be found in the LICENSE file or at
   6:./DaisySP/DaisySP-LGPL/Source/Effects/fold.h **** https://opensource.org/license/lgpl-2-1/
   7:./DaisySP/DaisySP-LGPL/Source/Effects/fold.h **** */
   8:./DaisySP/DaisySP-LGPL/Source/Effects/fold.h **** 
   9:./DaisySP/DaisySP-LGPL/Source/Effects/fold.h **** #pragma once
  10:./DaisySP/DaisySP-LGPL/Source/Effects/fold.h **** #ifndef DSY_FOLD_H
  11:./DaisySP/DaisySP-LGPL/Source/Effects/fold.h **** #define DSY_FOLD_H
  12:./DaisySP/DaisySP-LGPL/Source/Effects/fold.h **** 
  13:./DaisySP/DaisySP-LGPL/Source/Effects/fold.h **** #include <stdint.h>
  14:./DaisySP/DaisySP-LGPL/Source/Effects/fold.h **** #ifdef __cplusplus
  15:./DaisySP/DaisySP-LGPL/Source/Effects/fold.h **** 
  16:./DaisySP/DaisySP-LGPL/Source/Effects/fold.h **** namespace daisysp
ARM GAS  C:\Users\cesco\AppData\Local\Temp\ccOskMVA.s 			page 17


  17:./DaisySP/DaisySP-LGPL/Source/Effects/fold.h **** {
  18:./DaisySP/DaisySP-LGPL/Source/Effects/fold.h **** /** Fold module */
  19:./DaisySP/DaisySP-LGPL/Source/Effects/fold.h **** class Fold
  20:./DaisySP/DaisySP-LGPL/Source/Effects/fold.h **** {
  21:./DaisySP/DaisySP-LGPL/Source/Effects/fold.h ****   public:
  22:./DaisySP/DaisySP-LGPL/Source/Effects/fold.h ****     Fold() {}
  23:./DaisySP/DaisySP-LGPL/Source/Effects/fold.h ****     ~Fold() {}
 211              		.loc 14 23 5 is_stmt 1 view -0
 212              		.cfi_startproc
 213              		@ args = 0, pretend = 0, frame = 0
 214              		@ frame_needed = 0, uses_anonymous_args = 0
 215              		@ link register save eliminated.
 216              		.loc 14 23 14 is_stmt 0 view .LVU25
 217 0000 7047     		bx	lr
 218              		.cfi_endproc
 219              	.LFE4942:
 221              		.weak	_ZN7daisysp4FoldD1Ev
 222              		.thumb_set _ZN7daisysp4FoldD1Ev,_ZN7daisysp4FoldD2Ev
 223 0002 00BF     		.section	.text._ZN7daisysp8ReverbScD2Ev,"axG",%progbits,_ZN7daisysp8ReverbScD5Ev,comdat
 224              		.align	1
 225              		.p2align 2,,3
 226              		.weak	_ZN7daisysp8ReverbScD2Ev
 227              		.syntax unified
 228              		.thumb
 229              		.thumb_func
 231              	_ZN7daisysp8ReverbScD2Ev:
 232              	.LVL7:
 233              	.LFB4949:
 234              		.file 15 "./DaisySP/DaisySP-LGPL/Source/Effects/reverbsc.h"
   1:./DaisySP/DaisySP-LGPL/Source/Effects/reverbsc.h **** /*
   2:./DaisySP/DaisySP-LGPL/Source/Effects/reverbsc.h **** Copyright (c) 2023 Electrosmith, Corp, Sean Costello, Istvan Varga, Paul Batchelor
   3:./DaisySP/DaisySP-LGPL/Source/Effects/reverbsc.h **** 
   4:./DaisySP/DaisySP-LGPL/Source/Effects/reverbsc.h **** Use of this source code is governed by the LGPL V2.1
   5:./DaisySP/DaisySP-LGPL/Source/Effects/reverbsc.h **** license that can be found in the LICENSE file or at
   6:./DaisySP/DaisySP-LGPL/Source/Effects/reverbsc.h **** https://opensource.org/license/lgpl-2-1/
   7:./DaisySP/DaisySP-LGPL/Source/Effects/reverbsc.h **** */
   8:./DaisySP/DaisySP-LGPL/Source/Effects/reverbsc.h **** 
   9:./DaisySP/DaisySP-LGPL/Source/Effects/reverbsc.h **** #pragma once
  10:./DaisySP/DaisySP-LGPL/Source/Effects/reverbsc.h **** #ifndef DSYSP_REVERBSC_H
  11:./DaisySP/DaisySP-LGPL/Source/Effects/reverbsc.h **** #define DSYSP_REVERBSC_H
  12:./DaisySP/DaisySP-LGPL/Source/Effects/reverbsc.h **** 
  13:./DaisySP/DaisySP-LGPL/Source/Effects/reverbsc.h **** #define DSY_REVERBSC_MAX_SIZE 98936
  14:./DaisySP/DaisySP-LGPL/Source/Effects/reverbsc.h **** 
  15:./DaisySP/DaisySP-LGPL/Source/Effects/reverbsc.h **** namespace daisysp
  16:./DaisySP/DaisySP-LGPL/Source/Effects/reverbsc.h **** {
  17:./DaisySP/DaisySP-LGPL/Source/Effects/reverbsc.h **** /**Delay line for internal reverb use
  18:./DaisySP/DaisySP-LGPL/Source/Effects/reverbsc.h **** */
  19:./DaisySP/DaisySP-LGPL/Source/Effects/reverbsc.h **** typedef struct
  20:./DaisySP/DaisySP-LGPL/Source/Effects/reverbsc.h **** {
  21:./DaisySP/DaisySP-LGPL/Source/Effects/reverbsc.h ****     int    write_pos;         /**< write position */
  22:./DaisySP/DaisySP-LGPL/Source/Effects/reverbsc.h ****     int    buffer_size;       /**< buffer size */
  23:./DaisySP/DaisySP-LGPL/Source/Effects/reverbsc.h ****     int    read_pos;          /**< read position */
  24:./DaisySP/DaisySP-LGPL/Source/Effects/reverbsc.h ****     int    read_pos_frac;     /**< fractional component of read pos */
  25:./DaisySP/DaisySP-LGPL/Source/Effects/reverbsc.h ****     int    read_pos_frac_inc; /**< increment for fractional */
  26:./DaisySP/DaisySP-LGPL/Source/Effects/reverbsc.h ****     int    dummy;             /**<  dummy var */
  27:./DaisySP/DaisySP-LGPL/Source/Effects/reverbsc.h ****     int    seed_val;          /**< randseed */
  28:./DaisySP/DaisySP-LGPL/Source/Effects/reverbsc.h ****     int    rand_line_cnt;     /**< number of random lines */
ARM GAS  C:\Users\cesco\AppData\Local\Temp\ccOskMVA.s 			page 18


  29:./DaisySP/DaisySP-LGPL/Source/Effects/reverbsc.h ****     float  filter_state;      /**< state of filter */
  30:./DaisySP/DaisySP-LGPL/Source/Effects/reverbsc.h ****     float *buf;               /**< buffer ptr */
  31:./DaisySP/DaisySP-LGPL/Source/Effects/reverbsc.h **** } ReverbScDl;
  32:./DaisySP/DaisySP-LGPL/Source/Effects/reverbsc.h **** 
  33:./DaisySP/DaisySP-LGPL/Source/Effects/reverbsc.h **** /** Stereo Reverb */
  34:./DaisySP/DaisySP-LGPL/Source/Effects/reverbsc.h **** class ReverbSc
  35:./DaisySP/DaisySP-LGPL/Source/Effects/reverbsc.h **** {
  36:./DaisySP/DaisySP-LGPL/Source/Effects/reverbsc.h ****   public:
  37:./DaisySP/DaisySP-LGPL/Source/Effects/reverbsc.h ****     ReverbSc() {}
  38:./DaisySP/DaisySP-LGPL/Source/Effects/reverbsc.h ****     ~ReverbSc() {}
 235              		.loc 15 38 5 is_stmt 1 view -0
 236              		.cfi_startproc
 237              		@ args = 0, pretend = 0, frame = 0
 238              		@ frame_needed = 0, uses_anonymous_args = 0
 239              		@ link register save eliminated.
 240              		.loc 15 38 18 is_stmt 0 view .LVU27
 241 0000 7047     		bx	lr
 242              		.cfi_endproc
 243              	.LFE4949:
 245              		.weak	_ZN7daisysp8ReverbScD1Ev
 246              		.thumb_set _ZN7daisysp8ReverbScD1Ev,_ZN7daisysp8ReverbScD2Ev
 247 0002 00BF     		.section	.text._ZN7daisysp9DelayLineIfLj96000EED2Ev,"axG",%progbits,_ZN7daisysp9DelayLineIfLj96000
 248              		.align	1
 249              		.p2align 2,,3
 250              		.weak	_ZN7daisysp9DelayLineIfLj96000EED2Ev
 251              		.syntax unified
 252              		.thumb
 253              		.thumb_func
 255              	_ZN7daisysp9DelayLineIfLj96000EED2Ev:
 256              	.LVL8:
 257              	.LFB6094:
 258              		.file 16 "./DaisySP/Source/Utility/delayline.h"
   1:./DaisySP/Source/Utility/delayline.h **** /*
   2:./DaisySP/Source/Utility/delayline.h **** Copyright (c) 2020 Electrosmith, Corp
   3:./DaisySP/Source/Utility/delayline.h **** 
   4:./DaisySP/Source/Utility/delayline.h **** Use of this source code is governed by an MIT-style
   5:./DaisySP/Source/Utility/delayline.h **** license that can be found in the LICENSE file or at
   6:./DaisySP/Source/Utility/delayline.h **** https://opensource.org/licenses/MIT.
   7:./DaisySP/Source/Utility/delayline.h **** */
   8:./DaisySP/Source/Utility/delayline.h **** 
   9:./DaisySP/Source/Utility/delayline.h **** #pragma once
  10:./DaisySP/Source/Utility/delayline.h **** #ifndef DSY_DELAY_H
  11:./DaisySP/Source/Utility/delayline.h **** #define DSY_DELAY_H
  12:./DaisySP/Source/Utility/delayline.h **** #include <stdlib.h>
  13:./DaisySP/Source/Utility/delayline.h **** #include <stdint.h>
  14:./DaisySP/Source/Utility/delayline.h **** namespace daisysp
  15:./DaisySP/Source/Utility/delayline.h **** {
  16:./DaisySP/Source/Utility/delayline.h **** /** Simple Delay line.
  17:./DaisySP/Source/Utility/delayline.h **** November 2019
  18:./DaisySP/Source/Utility/delayline.h **** 
  19:./DaisySP/Source/Utility/delayline.h **** Converted to Template December 2019
  20:./DaisySP/Source/Utility/delayline.h **** 
  21:./DaisySP/Source/Utility/delayline.h **** declaration example: (1 second of floats)
  22:./DaisySP/Source/Utility/delayline.h **** 
  23:./DaisySP/Source/Utility/delayline.h **** DelayLine<float, SAMPLE_RATE> del;
  24:./DaisySP/Source/Utility/delayline.h **** 
  25:./DaisySP/Source/Utility/delayline.h **** By: shensley
ARM GAS  C:\Users\cesco\AppData\Local\Temp\ccOskMVA.s 			page 19


  26:./DaisySP/Source/Utility/delayline.h **** */
  27:./DaisySP/Source/Utility/delayline.h **** template <typename T, size_t max_size>
  28:./DaisySP/Source/Utility/delayline.h **** class DelayLine
  29:./DaisySP/Source/Utility/delayline.h **** {
  30:./DaisySP/Source/Utility/delayline.h ****   public:
  31:./DaisySP/Source/Utility/delayline.h ****     DelayLine() {}
  32:./DaisySP/Source/Utility/delayline.h ****     ~DelayLine() {}
 259              		.loc 16 32 5 is_stmt 1 view -0
 260              		.cfi_startproc
 261              		@ args = 0, pretend = 0, frame = 0
 262              		@ frame_needed = 0, uses_anonymous_args = 0
 263              		@ link register save eliminated.
 264              		.loc 16 32 19 is_stmt 0 view .LVU29
 265 0000 7047     		bx	lr
 266              		.cfi_endproc
 267              	.LFE6094:
 269              		.weak	_ZN7daisysp9DelayLineIfLj96000EED1Ev
 270              		.thumb_set _ZN7daisysp9DelayLineIfLj96000EED1Ev,_ZN7daisysp9DelayLineIfLj96000EED2Ev
 271 0002 00BF     		.section	.text._ZL10TriggerPadhhhamf,"ax",%progbits
 272              		.align	1
 273              		.p2align 2,,3
 274              		.syntax unified
 275              		.thumb
 276              		.thumb_func
 278              	_ZL10TriggerPadhhhamf:
 279              	.LVL9:
 280              	.LFB5443:
   1:main.cpp      **** /* ŌĢÉŌĢÉŌĢÉŌĢÉŌĢÉŌĢÉŌĢÉŌĢÉŌĢÉŌĢÉŌĢÉŌĢÉŌĢÉŌĢÉŌĢÉŌĢÉŌĢÉŌĢÉŌĢÉŌĢÉŌĢÉŌĢÉŌĢÉŌĢÉŌĢÉŌĢÉŌĢÉŌĢÉŌĢÉŌĢÉŌĢÉŌĢÉ
   2:main.cpp      ****  *  RED808 DRUM MACHINE ŌĆö Daisy Seed Slave
   3:main.cpp      ****  * ŌöĆŌöĆŌöĆŌöĆŌöĆŌöĆŌöĆŌöĆŌöĆŌöĆŌöĆŌöĆŌöĆŌöĆŌöĆŌöĆŌöĆŌöĆŌöĆŌöĆŌöĆŌöĆŌöĆŌöĆŌöĆŌöĆŌöĆŌöĆŌöĆŌöĆŌöĆŌöĆ
   4:main.cpp      ****  *  STM32H750 + 64 MB SDRAM | SPI1 slave | Protocolo RED808
   5:main.cpp      ****  *  48000 Hz ┬Ę 128 samples/block ┬Ę 24 pads ┬Ę 32 voces
   6:main.cpp      ****  *  Master FX: Delay, Reverb, Chorus, Tremolo, Comp, Wavefolder,
   7:main.cpp      ****  *             Limiter, Phaser, Flanger, Global Filter
   8:main.cpp      ****  *  Per-track: Filter, Echo, Flanger, Comp, EQ 3-band, Sends,
   9:main.cpp      ****  *             Pan, Mute/Solo
  10:main.cpp      ****  *  Per-pad:   Filter, Distortion, Bitcrush, Loop, Reverse, Pitch,
  11:main.cpp      ****  *             Stutter, Scratch, Turntablism
  12:main.cpp      ****  *  SD Card:   Carga de kits WAV v├Ła SPI3 master (m├│dulo 6-pin)
  13:main.cpp      ****  *
  14:main.cpp      ****  *  Verificado contra: DAISY_SLAVE_GUIDE.md (ESP32-S3 v1.0)
  15:main.cpp      ****  *
  16:main.cpp      ****  *  PINOUT REAL (verificado en daisy_seed.h):
  17:main.cpp      ****  *  SPI1 (Master comm): D7=PG10/NSS D8=PG11/SCK D9=PB4/MISO D10=PB5/MOSI
  18:main.cpp      ****  *    ESP32 CSŌåÆD7  SCKŌåÆD8  MOSIŌåÆD10  MISOŌåÉD9   (Mode 0, 2 MHz)
  19:main.cpp      ****  *  UART1 (legacy):     D29=PB14/TX  D30=PB15/RX  (230400 8N1)
  20:main.cpp      ****  *  SPI3 (SD card, MASTER):  D0=PB12/CS(GPIO)  D2=PC10/SCK
  21:main.cpp      ****  *                            D1=PC11/MISO      D6=PC12/MOSI
  22:main.cpp      ****  * ŌĢÉŌĢÉŌĢÉŌĢÉŌĢÉŌĢÉŌĢÉŌĢÉŌĢÉŌĢÉŌĢÉŌĢÉŌĢÉŌĢÉŌĢÉŌĢÉŌĢÉŌĢÉŌĢÉŌĢÉŌĢÉŌĢÉŌĢÉŌĢÉŌĢÉŌĢÉŌĢÉŌĢÉŌĢÉŌĢÉŌĢÉŌĢÉ
  23:main.cpp      **** 
  24:main.cpp      **** #include "daisy_seed.h"
  25:main.cpp      **** #define USE_DAISYSP_LGPL
  26:main.cpp      **** #include "daisysp.h"
  27:main.cpp      **** #include "ff_gen_drv.h"
  28:main.cpp      **** #include <string.h>
  29:main.cpp      **** #include <math.h>
  30:main.cpp      **** #include <stdio.h>
ARM GAS  C:\Users\cesco\AppData\Local\Temp\ccOskMVA.s 			page 20


  31:main.cpp      **** #include <strings.h>
  32:main.cpp      **** 
  33:main.cpp      **** /* Synth engine libraries */
  34:main.cpp      **** #include "synth/tr808.h"
  35:main.cpp      **** #include "synth/tr909.h"
  36:main.cpp      **** #include "synth/tr505.h"
  37:main.cpp      **** #include "synth/tb303.h"
  38:main.cpp      **** #include "synth/demo_mode.h"
  39:main.cpp      **** 
  40:main.cpp      **** using namespace daisy;
  41:main.cpp      **** using namespace daisysp;
  42:main.cpp      **** 
  43:main.cpp      **** /* ŌĢÉŌĢÉŌĢÉŌĢÉŌĢÉŌĢÉŌĢÉŌĢÉŌĢÉŌĢÉŌĢÉŌĢÉŌĢÉŌĢÉŌĢÉŌĢÉŌĢÉŌĢÉŌĢÉŌĢÉŌĢÉŌĢÉŌĢÉŌĢÉŌĢÉŌĢÉŌĢÉŌĢÉŌĢÉŌĢÉŌĢÉŌĢÉ
  44:main.cpp      ****  *  1. HARDWARE
  45:main.cpp      ****  * ŌĢÉŌĢÉŌĢÉŌĢÉŌĢÉŌĢÉŌĢÉŌĢÉŌĢÉŌĢÉŌĢÉŌĢÉŌĢÉŌĢÉŌĢÉŌĢÉŌĢÉŌĢÉŌĢÉŌĢÉŌĢÉŌĢÉŌĢÉŌĢÉŌĢÉŌĢÉŌĢÉŌĢÉŌĢÉŌĢÉŌĢÉŌĢÉ
  46:main.cpp      **** DaisySeed hw;
  47:main.cpp      **** UartHandler uart_slave;
  48:main.cpp      **** 
  49:main.cpp      **** /* SPI1 Slave ŌĆö Comunicaci├│n ESP32-S3 master
  50:main.cpp      ****  * Pines: D7=PG10(NSS) D8=PG11(SCK) D9=PB4(MISO) D10=PB5(MOSI)
  51:main.cpp      ****  */
  52:main.cpp      **** static DMA_HandleTypeDef  hdma_spi1_rx;
  53:main.cpp      **** static DMA_HandleTypeDef  hdma_spi1_tx;
  54:main.cpp      **** 
  55:main.cpp      **** /* ŌĢÉŌĢÉŌĢÉŌĢÉŌĢÉŌĢÉŌĢÉŌĢÉŌĢÉŌĢÉŌĢÉŌĢÉŌĢÉŌĢÉŌĢÉŌĢÉŌĢÉŌĢÉŌĢÉŌĢÉŌĢÉŌĢÉŌĢÉŌĢÉŌĢÉŌĢÉŌĢÉŌĢÉŌĢÉŌĢÉŌĢÉŌĢÉ
  56:main.cpp      ****  *  2. CONFIGURACI├ōN
  57:main.cpp      ****  * ŌĢÉŌĢÉŌĢÉŌĢÉŌĢÉŌĢÉŌĢÉŌĢÉŌĢÉŌĢÉŌĢÉŌĢÉŌĢÉŌĢÉŌĢÉŌĢÉŌĢÉŌĢÉŌĢÉŌĢÉŌĢÉŌĢÉŌĢÉŌĢÉŌĢÉŌĢÉŌĢÉŌĢÉŌĢÉŌĢÉŌĢÉŌĢÉ
  58:main.cpp      **** #define SAMPLE_RATE                 48000
  59:main.cpp      **** #define AUDIO_BLOCK        128
  60:main.cpp      **** #define DAISY_UART_BAUD    230400
  61:main.cpp      **** #define MAX_PADS           24
  62:main.cpp      **** #define MAX_VOICES         32
  63:main.cpp      **** #define MAX_SAMPLE_BYTES   (96000 * 2)   /* ~2.0 s per pad @ 48000  */
  64:main.cpp      **** #define MAX_DELAY_SAMPLES  96000         /* 2 s @ 48000             */
  65:main.cpp      **** #define TRACK_ECHO_SIZE    9600          /* 200 ms per track        */
  66:main.cpp      **** #define TRACK_FLANGER_SIZE 2048
  67:main.cpp      **** 
  68:main.cpp      **** /* ŌĢÉŌĢÉŌĢÉŌĢÉŌĢÉŌĢÉŌĢÉŌĢÉŌĢÉŌĢÉŌĢÉŌĢÉŌĢÉŌĢÉŌĢÉŌĢÉŌĢÉŌĢÉŌĢÉŌĢÉŌĢÉŌĢÉŌĢÉŌĢÉŌĢÉŌĢÉŌĢÉŌĢÉŌĢÉŌĢÉŌĢÉŌĢÉ
  69:main.cpp      ****  *  3. PROTOCOLO RED808 ŌĆö TODOS los command codes  (protocol.h)
  70:main.cpp      ****  * ŌĢÉŌĢÉŌĢÉŌĢÉŌĢÉŌĢÉŌĢÉŌĢÉŌĢÉŌĢÉŌĢÉŌĢÉŌĢÉŌĢÉŌĢÉŌĢÉŌĢÉŌĢÉŌĢÉŌĢÉŌĢÉŌĢÉŌĢÉŌĢÉŌĢÉŌĢÉŌĢÉŌĢÉŌĢÉŌĢÉŌĢÉŌĢÉ
  71:main.cpp      **** #define SPI_MAGIC_CMD       0xA5
  72:main.cpp      **** #define SPI_MAGIC_RESP      0x5A
  73:main.cpp      **** 
  74:main.cpp      **** /* Triggers */
  75:main.cpp      **** #define CMD_TRIGGER_SEQ       0x01
  76:main.cpp      **** #define CMD_TRIGGER_LIVE      0x02
  77:main.cpp      **** #define CMD_TRIGGER_STOP      0x03
  78:main.cpp      **** #define CMD_TRIGGER_STOP_ALL  0x04
  79:main.cpp      **** #define CMD_TRIGGER_SIDECHAIN 0x05
  80:main.cpp      **** 
  81:main.cpp      **** /* Volume */
  82:main.cpp      **** #define CMD_MASTER_VOLUME     0x10
  83:main.cpp      **** #define CMD_SEQ_VOLUME        0x11
  84:main.cpp      **** #define CMD_LIVE_VOLUME       0x12
  85:main.cpp      **** #define CMD_TRACK_VOLUME      0x13
  86:main.cpp      **** #define CMD_LIVE_PITCH        0x14
  87:main.cpp      **** #define CMD_TEMPO             0x15
ARM GAS  C:\Users\cesco\AppData\Local\Temp\ccOskMVA.s 			page 21


  88:main.cpp      **** 
  89:main.cpp      **** /* Global Filter */
  90:main.cpp      **** #define CMD_FILTER_SET        0x20
  91:main.cpp      **** #define CMD_FILTER_CUTOFF     0x21
  92:main.cpp      **** #define CMD_FILTER_RESONANCE  0x22
  93:main.cpp      **** #define CMD_FILTER_BITDEPTH   0x23
  94:main.cpp      **** #define CMD_FILTER_DISTORTION 0x24
  95:main.cpp      **** #define CMD_FILTER_DIST_MODE  0x25
  96:main.cpp      **** #define CMD_FILTER_SR_REDUCE  0x26
  97:main.cpp      **** 
  98:main.cpp      **** /* Master FX */
  99:main.cpp      **** #define CMD_DELAY_ACTIVE      0x30
 100:main.cpp      **** #define CMD_DELAY_TIME        0x31
 101:main.cpp      **** #define CMD_DELAY_FEEDBACK    0x32
 102:main.cpp      **** #define CMD_DELAY_MIX         0x33
 103:main.cpp      **** #define CMD_PHASER_ACTIVE     0x34
 104:main.cpp      **** #define CMD_PHASER_RATE       0x35
 105:main.cpp      **** #define CMD_PHASER_DEPTH      0x36
 106:main.cpp      **** #define CMD_PHASER_FEEDBACK   0x37
 107:main.cpp      **** #define CMD_FLANGER_ACTIVE    0x38
 108:main.cpp      **** #define CMD_FLANGER_RATE      0x39
 109:main.cpp      **** #define CMD_FLANGER_DEPTH     0x3A
 110:main.cpp      **** #define CMD_FLANGER_FEEDBACK  0x3B
 111:main.cpp      **** #define CMD_FLANGER_MIX       0x3C
 112:main.cpp      **** #define CMD_COMP_ACTIVE       0x3D
 113:main.cpp      **** #define CMD_COMP_THRESHOLD    0x3E
 114:main.cpp      **** #define CMD_COMP_RATIO        0x3F
 115:main.cpp      **** #define CMD_COMP_ATTACK       0x40
 116:main.cpp      **** #define CMD_COMP_RELEASE      0x41
 117:main.cpp      **** #define CMD_COMP_MAKEUP       0x42
 118:main.cpp      **** #define CMD_REVERB_ACTIVE     0x43
 119:main.cpp      **** #define CMD_REVERB_FEEDBACK   0x44
 120:main.cpp      **** #define CMD_REVERB_LPFREQ     0x45
 121:main.cpp      **** #define CMD_REVERB_MIX        0x46
 122:main.cpp      **** #define CMD_CHORUS_ACTIVE     0x47
 123:main.cpp      **** #define CMD_CHORUS_RATE       0x48
 124:main.cpp      **** #define CMD_CHORUS_DEPTH      0x49
 125:main.cpp      **** #define CMD_CHORUS_MIX        0x4A
 126:main.cpp      **** #define CMD_TREMOLO_ACTIVE    0x4B
 127:main.cpp      **** #define CMD_TREMOLO_RATE      0x4C
 128:main.cpp      **** #define CMD_TREMOLO_DEPTH     0x4D
 129:main.cpp      **** #define CMD_WAVEFOLDER_GAIN   0x4E
 130:main.cpp      **** #define CMD_LIMITER_ACTIVE    0x4F
 131:main.cpp      **** 
 132:main.cpp      **** /* Per-Track FX */
 133:main.cpp      **** #define CMD_TRACK_FILTER      0x50
 134:main.cpp      **** #define CMD_TRACK_CLEAR_FILTER 0x51
 135:main.cpp      **** #define CMD_TRACK_DISTORTION  0x52
 136:main.cpp      **** #define CMD_TRACK_BITCRUSH    0x53
 137:main.cpp      **** #define CMD_TRACK_ECHO        0x54
 138:main.cpp      **** #define CMD_TRACK_FLANGER_FX  0x55
 139:main.cpp      **** #define CMD_TRACK_COMPRESSOR  0x56
 140:main.cpp      **** #define CMD_TRACK_CLEAR_LIVE  0x57
 141:main.cpp      **** #define CMD_TRACK_CLEAR_FX    0x58
 142:main.cpp      **** #define CMD_TRACK_REVERB_SEND 0x59
 143:main.cpp      **** #define CMD_TRACK_DELAY_SEND  0x5A
 144:main.cpp      **** #define CMD_TRACK_CHORUS_SEND 0x5B
ARM GAS  C:\Users\cesco\AppData\Local\Temp\ccOskMVA.s 			page 22


 145:main.cpp      **** #define CMD_TRACK_PAN         0x5C
 146:main.cpp      **** #define CMD_TRACK_MUTE        0x5D
 147:main.cpp      **** #define CMD_TRACK_SOLO        0x5E
 148:main.cpp      **** #define CMD_TRACK_PHASER      0x5F
 149:main.cpp      **** #define CMD_TRACK_TREMOLO     0x60
 150:main.cpp      **** #define CMD_TRACK_PITCH       0x61
 151:main.cpp      **** #define CMD_TRACK_GATE        0x62
 152:main.cpp      **** #define CMD_TRACK_EQ_LOW      0x63
 153:main.cpp      **** #define CMD_TRACK_EQ_MID      0x64
 154:main.cpp      **** #define CMD_TRACK_EQ_HIGH     0x65
 155:main.cpp      **** 
 156:main.cpp      **** /* Per-Pad FX */
 157:main.cpp      **** #define CMD_PAD_FILTER        0x70
 158:main.cpp      **** #define CMD_PAD_CLEAR_FILTER  0x71
 159:main.cpp      **** #define CMD_PAD_DISTORTION    0x72
 160:main.cpp      **** #define CMD_PAD_BITCRUSH      0x73
 161:main.cpp      **** #define CMD_PAD_LOOP          0x74
 162:main.cpp      **** #define CMD_PAD_REVERSE       0x75
 163:main.cpp      **** #define CMD_PAD_PITCH         0x76
 164:main.cpp      **** #define CMD_PAD_STUTTER       0x77
 165:main.cpp      **** #define CMD_PAD_SCRATCH       0x78
 166:main.cpp      **** #define CMD_PAD_TURNTABLISM   0x79
 167:main.cpp      **** #define CMD_PAD_CLEAR_FX      0x7A
 168:main.cpp      **** 
 169:main.cpp      **** /* Sidechain */
 170:main.cpp      **** #define CMD_SIDECHAIN_SET     0x90
 171:main.cpp      **** #define CMD_SIDECHAIN_CLEAR   0x91
 172:main.cpp      **** 
 173:main.cpp      **** /* Sample Transfer */
 174:main.cpp      **** #define CMD_SAMPLE_BEGIN      0xA0
 175:main.cpp      **** #define CMD_SAMPLE_DATA       0xA1
 176:main.cpp      **** #define CMD_SAMPLE_END        0xA2
 177:main.cpp      **** #define CMD_SAMPLE_UNLOAD     0xA3
 178:main.cpp      **** #define CMD_SAMPLE_UNLOAD_ALL 0xA4
 179:main.cpp      **** 
 180:main.cpp      **** /* SD Card */
 181:main.cpp      **** #define CMD_SD_LIST_FOLDERS   0xB0
 182:main.cpp      **** #define CMD_SD_LIST_FILES     0xB1
 183:main.cpp      **** #define CMD_SD_FILE_INFO      0xB2
 184:main.cpp      **** #define CMD_SD_LOAD_SAMPLE    0xB3
 185:main.cpp      **** #define CMD_SD_LOAD_KIT       0xB4
 186:main.cpp      **** #define CMD_SD_KIT_LIST       0xB5
 187:main.cpp      **** #define CMD_SD_STATUS         0xB6
 188:main.cpp      **** #define CMD_SD_UNLOAD_KIT     0xB7
 189:main.cpp      **** #define CMD_SD_GET_LOADED     0xB8
 190:main.cpp      **** #define CMD_SD_ABORT          0xB9
 191:main.cpp      **** 
 192:main.cpp      **** /* Status / Query */
 193:main.cpp      **** #define CMD_GET_STATUS        0xE0
 194:main.cpp      **** #define CMD_GET_PEAKS         0xE1
 195:main.cpp      **** #define CMD_GET_CPU_LOAD      0xE2
 196:main.cpp      **** #define CMD_GET_VOICES        0xE3
 197:main.cpp      **** #define CMD_GET_EVENTS        0xE4
 198:main.cpp      **** #define CMD_PING              0xEE
 199:main.cpp      **** #define CMD_RESET             0xEF
 200:main.cpp      **** 
 201:main.cpp      **** /* Synth Engine */
ARM GAS  C:\Users\cesco\AppData\Local\Temp\ccOskMVA.s 			page 23


 202:main.cpp      **** #define CMD_SYNTH_TRIGGER     0xC0  /* [engine(1), instrument(1), velocity(1)] */
 203:main.cpp      **** #define CMD_SYNTH_PARAM       0xC1  /* [engine(1), instrument(1), paramId(1), value(4)] */
 204:main.cpp      **** #define CMD_SYNTH_NOTE_ON     0xC2  /* [midiNote(1), accent(1), slide(1)] ŌåÆ 303 */
 205:main.cpp      **** #define CMD_SYNTH_NOTE_OFF    0xC3  /* 303 note off */
 206:main.cpp      **** #define CMD_SYNTH_303_PARAM   0xC4  /* [paramId(1), value(4)] ŌåÆ 303 params */
 207:main.cpp      **** #define CMD_SYNTH_ACTIVE      0xC5  /* [engineMask(1)] enable/disable engines */
 208:main.cpp      **** 
 209:main.cpp      **** /* Synth Engine IDs */
 210:main.cpp      **** #define SYNTH_ENGINE_808   0
 211:main.cpp      **** #define SYNTH_ENGINE_909   1
 212:main.cpp      **** #define SYNTH_ENGINE_505   2
 213:main.cpp      **** #define SYNTH_ENGINE_303   3
 214:main.cpp      **** 
 215:main.cpp      **** /* Bulk */
 216:main.cpp      **** #define CMD_BULK_TRIGGERS     0xF0
 217:main.cpp      **** #define CMD_BULK_FX           0xF1
 218:main.cpp      **** 
 219:main.cpp      **** /* Daisy Sequencer (0xD0-0xDF) */
 220:main.cpp      **** #define CMD_DSQ_UPLOAD_TRACK    0xD0  /* [pat,trk,stepCount,rsvd + N├Ś{act,vel,div,prob}] */
 221:main.cpp      **** #define CMD_DSQ_SET_STEP        0xD1  /* [pat,trk,step,active,vel,div,prob,rsvd]          */
 222:main.cpp      **** #define CMD_DSQ_CONTROL         0xD2  /* [0=stop, 1=play, 2=reset]                       */
 223:main.cpp      **** #define CMD_DSQ_SELECT_PATTERN  0xD3  /* [pat 0-7]                                        */
 224:main.cpp      **** #define CMD_DSQ_SET_LENGTH      0xD4  /* [16/32/64]                                       */
 225:main.cpp      **** #define CMD_DSQ_SET_MUTE        0xD5  /* [track, muted 0/1]                               */
 226:main.cpp      **** #define CMD_DSQ_GET_POS         0xD6  /* no payload ŌåÆ [step,pat,playing,rsvd]             */
 227:main.cpp      **** #define CMD_DSQ_SET_SWING       0xD7  /* [swing 0-100]                                    */
 228:main.cpp      **** #define CMD_DSQ_SET_PARAM_LOCK  0xD8  /* [pat,trk,step,cutoffEn,cutHi,cutLo,revEn,rev,volEn,vol,rsv
 229:main.cpp      **** #define CMD_DSQ_SET_TRACK_ENGINE 0xD9 /* [track(1), engine(1)]  0xFF/-1=sampler 0=808 1=909 2=505 3
 230:main.cpp      **** 
 231:main.cpp      **** /* Filter types */
 232:main.cpp      **** #define FTYPE_NONE       0
 233:main.cpp      **** #define FTYPE_LOWPASS    1
 234:main.cpp      **** #define FTYPE_HIGHPASS   2
 235:main.cpp      **** #define FTYPE_BANDPASS   3
 236:main.cpp      **** #define FTYPE_NOTCH      4
 237:main.cpp      **** #define FTYPE_ALLPASS    5
 238:main.cpp      **** #define FTYPE_PEAKING    6
 239:main.cpp      **** #define FTYPE_LOWSHELF   7
 240:main.cpp      **** #define FTYPE_HIGHSHELF  8
 241:main.cpp      **** 
 242:main.cpp      **** /* Distortion modes */
 243:main.cpp      **** #define DMODE_SOFT  0
 244:main.cpp      **** #define DMODE_HARD  1
 245:main.cpp      **** #define DMODE_TUBE  2
 246:main.cpp      **** #define DMODE_FUZZ  3
 247:main.cpp      **** 
 248:main.cpp      **** /* ŌĢÉŌĢÉŌĢÉŌĢÉŌĢÉŌĢÉŌĢÉŌĢÉŌĢÉŌĢÉŌĢÉŌĢÉŌĢÉŌĢÉŌĢÉŌĢÉŌĢÉŌĢÉŌĢÉŌĢÉŌĢÉŌĢÉŌĢÉŌĢÉŌĢÉŌĢÉŌĢÉŌĢÉŌĢÉŌĢÉŌĢÉŌĢÉ
 249:main.cpp      ****  *  4. SPI PACKET
 250:main.cpp      ****  * ŌĢÉŌĢÉŌĢÉŌĢÉŌĢÉŌĢÉŌĢÉŌĢÉŌĢÉŌĢÉŌĢÉŌĢÉŌĢÉŌĢÉŌĢÉŌĢÉŌĢÉŌĢÉŌĢÉŌĢÉŌĢÉŌĢÉŌĢÉŌĢÉŌĢÉŌĢÉŌĢÉŌĢÉŌĢÉŌĢÉŌĢÉŌĢÉ
 251:main.cpp      **** struct __attribute__((packed)) SPIPacketHeader {
 252:main.cpp      ****     uint8_t  magic;
 253:main.cpp      ****     uint8_t  cmd;
 254:main.cpp      ****     uint16_t length;
 255:main.cpp      ****     uint16_t sequence;
 256:main.cpp      ****     uint16_t checksum;
 257:main.cpp      **** };
 258:main.cpp      **** 
ARM GAS  C:\Users\cesco\AppData\Local\Temp\ccOskMVA.s 			page 24


 259:main.cpp      **** #define RX_BUF_SIZE  536
 260:main.cpp      **** #define TX_BUF_SIZE  768   /* SD responses up to 676 bytes payload */
 261:main.cpp      **** 
 262:main.cpp      **** /* Buffers SPI ŌĆö ya no necesitan DMA_BUFFER_MEM_SECTION porque usamos
 263:main.cpp      ****  * polling directo (sin DMA). Pero los dejamos en SRAM1 por si acaso
 264:main.cpp      ****  * para evitar problemas de D-cache cuando la CPU lee datos que llegan
 265:main.cpp      ****  * por el perif├®rico SPI.                                              */
 266:main.cpp      **** static uint8_t DMA_BUFFER_MEM_SECTION rxBuf[RX_BUF_SIZE];
 267:main.cpp      **** static uint8_t DMA_BUFFER_MEM_SECTION txBuf[TX_BUF_SIZE];
 268:main.cpp      **** static volatile bool  waitingPayload  = false;
 269:main.cpp      **** static volatile bool  pendingResponse = false;
 270:main.cpp      **** static uint16_t       pendingTxLen    = 0;
 271:main.cpp      **** 
 272:main.cpp      **** /* ŌĢÉŌĢÉŌĢÉŌĢÉŌĢÉŌĢÉŌĢÉŌĢÉŌĢÉŌĢÉŌĢÉŌĢÉŌĢÉŌĢÉŌĢÉŌĢÉŌĢÉŌĢÉŌĢÉŌĢÉŌĢÉŌĢÉŌĢÉŌĢÉŌĢÉŌĢÉŌĢÉŌĢÉŌĢÉŌĢÉŌĢÉŌĢÉ
 273:main.cpp      ****  *  5. SD RESPONSE STRUCTS & PATHS
 274:main.cpp      ****  * ŌĢÉŌĢÉŌĢÉŌĢÉŌĢÉŌĢÉŌĢÉŌĢÉŌĢÉŌĢÉŌĢÉŌĢÉŌĢÉŌĢÉŌĢÉŌĢÉŌĢÉŌĢÉŌĢÉŌĢÉŌĢÉŌĢÉŌĢÉŌĢÉŌĢÉŌĢÉŌĢÉŌĢÉŌĢÉŌĢÉŌĢÉŌĢÉ
 275:main.cpp      **** 
 276:main.cpp      **** /* Root path on SD card ŌĆö firmware tries /data first, then / */
 277:main.cpp      **** static const char* SD_DATA_ROOT = "/data";
 278:main.cpp      **** 
 279:main.cpp      **** /* Canonical padŌåÆinstrument mapping (pads 0-15 = LIVE, 16-23 = XTRA) */
 280:main.cpp      **** static const char* PAD_FAMILY_NAMES[16] = {
 281:main.cpp      ****     "BD","SD","CH","OH","CY","CP","RS","CB",
 282:main.cpp      ****     "LT","MT","HT","MA","CL","HC","MC","LC"
 283:main.cpp      **** };
 284:main.cpp      **** 
 285:main.cpp      **** /* Keyword table for matching RED 808 KARZ filenames ŌåÆ pad index */
 286:main.cpp      **** struct InstrKeyword { const char* keyword; uint8_t pad; };
 287:main.cpp      **** static const InstrKeyword INSTR_KEYWORDS[] = {
 288:main.cpp      ****     {"BD",  0}, {"KICK", 0},
 289:main.cpp      ****     {"SD",  1}, {"SNARE",1},
 290:main.cpp      ****     {"CH",  2}, {"HH",   2}, {"HIHAT",2}, {"CLOSED",2},
 291:main.cpp      ****     {"OH",  3}, {"OPEN", 3},
 292:main.cpp      ****     {"CY",  4}, {"CYMBAL",4}, {"CRASH",4}, {"RIDE",4},
 293:main.cpp      ****     {"CP",  5}, {"CLAP", 5},
 294:main.cpp      ****     {"RS",  6}, {"RIM",  6},
 295:main.cpp      ****     {"CB",  7}, {"COW",  7}, {"BELL", 7},
 296:main.cpp      ****     {"LT",  8}, {"LTOM", 8},
 297:main.cpp      ****     {"MT",  9}, {"MTOM", 9},
 298:main.cpp      ****     {"HT", 10}, {"HTOM",10},
 299:main.cpp      ****     {"MA", 11}, {"MARAC",11},
 300:main.cpp      ****     {"CL", 12}, {"CLAV", 12}, {"CLAVE",12},
 301:main.cpp      ****     {"HC", 13}, {"CONGA",13},
 302:main.cpp      ****     {"MC", 14},
 303:main.cpp      ****     {"LC", 15},
 304:main.cpp      **** };
 305:main.cpp      **** static const int NUM_INSTR_KEYWORDS = sizeof(INSTR_KEYWORDS)/sizeof(INSTR_KEYWORDS[0]);
 306:main.cpp      **** 
 307:main.cpp      **** struct __attribute__((packed)) SdKitListResponse {
 308:main.cpp      ****     uint8_t count;
 309:main.cpp      ****     char    kits[16][32];   /* max 16 kits, 32 chars each = 513 bytes */
 310:main.cpp      **** };
 311:main.cpp      **** 
 312:main.cpp      **** struct __attribute__((packed)) SdLoadKitPayload {
 313:main.cpp      ****     char    kitName[32];
 314:main.cpp      ****     uint8_t startPad;
 315:main.cpp      ****     uint8_t maxPads;
ARM GAS  C:\Users\cesco\AppData\Local\Temp\ccOskMVA.s 			page 25


 316:main.cpp      **** };
 317:main.cpp      **** 
 318:main.cpp      **** struct __attribute__((packed)) SdStatusResponse {
 319:main.cpp      ****     uint8_t  present;
 320:main.cpp      ****     uint8_t  reserved;
 321:main.cpp      ****     uint16_t samplesLoaded;  /* bitmask */
 322:main.cpp      ****     char     currentKit[32];
 323:main.cpp      **** };
 324:main.cpp      **** 
 325:main.cpp      **** struct __attribute__((packed)) SdListFilesPayload {
 326:main.cpp      ****     char folder[32];        /* e.g. "BD", "xtra", "RED 808 KARZ" */
 327:main.cpp      **** };
 328:main.cpp      **** 
 329:main.cpp      **** struct __attribute__((packed)) SdListFilesResponse {
 330:main.cpp      ****     uint8_t count;
 331:main.cpp      ****     char    files[20][32];  /* max 20 files, 32 chars each */
 332:main.cpp      **** };
 333:main.cpp      **** 
 334:main.cpp      **** struct __attribute__((packed)) SdFileInfoPayload {
 335:main.cpp      ****     char folder[32];
 336:main.cpp      ****     char filename[32];
 337:main.cpp      **** };
 338:main.cpp      **** 
 339:main.cpp      **** struct __attribute__((packed)) SdFileInfoResponse {
 340:main.cpp      ****     uint32_t sizeBytes;
 341:main.cpp      ****     uint16_t sampleRate;
 342:main.cpp      ****     uint16_t bitsPerSample;
 343:main.cpp      ****     uint8_t  channels;
 344:main.cpp      ****     uint8_t  reserved[3];
 345:main.cpp      ****     uint32_t durationMs;    /* estimated */
 346:main.cpp      **** };
 347:main.cpp      **** 
 348:main.cpp      **** struct __attribute__((packed)) SdLoadSamplePayload {
 349:main.cpp      ****     char    folder[32];
 350:main.cpp      ****     char    filename[32];
 351:main.cpp      ****     uint8_t padIdx;
 352:main.cpp      **** };
 353:main.cpp      **** 
 354:main.cpp      **** /* ŌĢÉŌĢÉŌĢÉŌĢÉŌĢÉŌĢÉŌĢÉŌĢÉŌĢÉŌĢÉŌĢÉŌĢÉŌĢÉŌĢÉŌĢÉŌĢÉŌĢÉŌĢÉŌĢÉŌĢÉŌĢÉŌĢÉŌĢÉŌĢÉŌĢÉŌĢÉŌĢÉŌĢÉŌĢÉŌĢÉŌĢÉŌĢÉ
 355:main.cpp      ****  *  6. SAMPLES EN SDRAM  (64 MB)
 356:main.cpp      ****  * ŌĢÉŌĢÉŌĢÉŌĢÉŌĢÉŌĢÉŌĢÉŌĢÉŌĢÉŌĢÉŌĢÉŌĢÉŌĢÉŌĢÉŌĢÉŌĢÉŌĢÉŌĢÉŌĢÉŌĢÉŌĢÉŌĢÉŌĢÉŌĢÉŌĢÉŌĢÉŌĢÉŌĢÉŌĢÉŌĢÉŌĢÉŌĢÉ
 357:main.cpp      **** DSY_SDRAM_BSS static int16_t sampleStorage[MAX_PADS][MAX_SAMPLE_BYTES / 2];
 358:main.cpp      **** 
 359:main.cpp      **** static uint32_t sampleLength[MAX_PADS];
 360:main.cpp      **** static uint32_t sampleTotalSamples[MAX_PADS];
 361:main.cpp      **** static bool     sampleLoaded[MAX_PADS];
 362:main.cpp      **** 
 363:main.cpp      **** /* ŌĢÉŌĢÉŌĢÉŌĢÉŌĢÉŌĢÉŌĢÉŌĢÉŌĢÉŌĢÉŌĢÉŌĢÉŌĢÉŌĢÉŌĢÉŌĢÉŌĢÉŌĢÉŌĢÉŌĢÉŌĢÉŌĢÉŌĢÉŌĢÉŌĢÉŌĢÉŌĢÉŌĢÉŌĢÉŌĢÉŌĢÉŌĢÉ
 364:main.cpp      ****  *  7. VOCES POLIF├ōNICAS
 365:main.cpp      ****  * ŌĢÉŌĢÉŌĢÉŌĢÉŌĢÉŌĢÉŌĢÉŌĢÉŌĢÉŌĢÉŌĢÉŌĢÉŌĢÉŌĢÉŌĢÉŌĢÉŌĢÉŌĢÉŌĢÉŌĢÉŌĢÉŌĢÉŌĢÉŌĢÉŌĢÉŌĢÉŌĢÉŌĢÉŌĢÉŌĢÉŌĢÉŌĢÉ
 366:main.cpp      **** struct Voice {
 367:main.cpp      ****     bool     active;
 368:main.cpp      ****     uint8_t  pad;
 369:main.cpp      ****     float    pos;
 370:main.cpp      ****     float    speed;
 371:main.cpp      ****     float    gainL;
 372:main.cpp      ****     float    gainR;
ARM GAS  C:\Users\cesco\AppData\Local\Temp\ccOskMVA.s 			page 26


 373:main.cpp      ****     float    env;
 374:main.cpp      ****     float    envAttackInc;
 375:main.cpp      ****     float    envDecayCoef;
 376:main.cpp      ****     uint8_t  envStage; /* 0=attack,1=decay,2=bypass */
 377:main.cpp      ****     uint32_t age;
 378:main.cpp      ****     uint32_t maxLen;  /* 0 = full sample, else corta al llegar aqu├Ł */
 379:main.cpp      **** };
 380:main.cpp      **** static Voice   voices[MAX_VOICES];
 381:main.cpp      **** static uint32_t voiceAge = 0;
 382:main.cpp      **** 
 383:main.cpp      **** /* ŌĢÉŌĢÉŌĢÉŌĢÉŌĢÉŌĢÉŌĢÉŌĢÉŌĢÉŌĢÉŌĢÉŌĢÉŌĢÉŌĢÉŌĢÉŌĢÉŌĢÉŌĢÉŌĢÉŌĢÉŌĢÉŌĢÉŌĢÉŌĢÉŌĢÉŌĢÉŌĢÉŌĢÉŌĢÉŌĢÉŌĢÉŌĢÉ
 384:main.cpp      ****  *  8. VOL├ÜMENES
 385:main.cpp      ****  * ŌĢÉŌĢÉŌĢÉŌĢÉŌĢÉŌĢÉŌĢÉŌĢÉŌĢÉŌĢÉŌĢÉŌĢÉŌĢÉŌĢÉŌĢÉŌĢÉŌĢÉŌĢÉŌĢÉŌĢÉŌĢÉŌĢÉŌĢÉŌĢÉŌĢÉŌĢÉŌĢÉŌĢÉŌĢÉŌĢÉŌĢÉŌĢÉ
 386:main.cpp      **** static float masterGain  = 1.0f;
 387:main.cpp      **** static float seqVolume   = 1.0f;
 388:main.cpp      **** static float liveVolume  = 1.0f;
 389:main.cpp      **** static float transportBpm = 120.0f;
 390:main.cpp      **** static float livePitch   = 1.0f;
 391:main.cpp      **** static float trackGain[MAX_PADS];
 392:main.cpp      **** 
 393:main.cpp      **** /* ŌĢÉŌĢÉŌĢÉŌĢÉŌĢÉŌĢÉŌĢÉŌĢÉŌĢÉŌĢÉŌĢÉŌĢÉŌĢÉŌĢÉŌĢÉŌĢÉŌĢÉŌĢÉŌĢÉŌĢÉŌĢÉŌĢÉŌĢÉŌĢÉŌĢÉŌĢÉŌĢÉŌĢÉŌĢÉŌĢÉŌĢÉŌĢÉ
 394:main.cpp      ****  *  8b. DAISY SEQUENCER  (sample-accurate, BPM clock in AudioCallback)
 395:main.cpp      ****  * ŌĢÉŌĢÉŌĢÉŌĢÉŌĢÉŌĢÉŌĢÉŌĢÉŌĢÉŌĢÉŌĢÉŌĢÉŌĢÉŌĢÉŌĢÉŌĢÉŌĢÉŌĢÉŌĢÉŌĢÉŌĢÉŌĢÉŌĢÉŌĢÉŌĢÉŌĢÉŌĢÉŌĢÉŌĢÉŌĢÉŌĢÉŌĢÉ
 396:main.cpp      **** #define DSQ_PATTERNS   8
 397:main.cpp      **** #define DSQ_TRACKS    16
 398:main.cpp      **** #define DSQ_MAX_STEPS 64
 399:main.cpp      **** 
 400:main.cpp      **** /* 4-byte step descriptor (used in SPI upload packets) */
 401:main.cpp      **** struct __attribute__((packed)) DsqStepPkt {
 402:main.cpp      ****     uint8_t active;       /* 0 or 1                          */
 403:main.cpp      ****     uint8_t velocity;     /* 1-127                           */
 404:main.cpp      ****     uint8_t noteLenDiv;   /* 0=full,2=half,4=qtr,8=eighth   */
 405:main.cpp      ****     uint8_t probability;  /* 0-100 (100 = always fire)      */
 406:main.cpp      **** };
 407:main.cpp      **** 
 408:main.cpp      **** /* Full step state (stored in SDRAM, includes param-locks) */
 409:main.cpp      **** struct DsqStepFull {
 410:main.cpp      ****     uint8_t  active;
 411:main.cpp      ****     uint8_t  velocity;
 412:main.cpp      ****     uint8_t  noteLenDiv;
 413:main.cpp      ****     uint8_t  probability;
 414:main.cpp      ****     /* param locks */
 415:main.cpp      ****     bool     cutoffEn;
 416:main.cpp      ****     uint16_t cutoffHz;
 417:main.cpp      ****     bool     reverbEn;
 418:main.cpp      ****     uint8_t  reverbSend;  /* 0-100 */
 419:main.cpp      ****     bool     volEn;
 420:main.cpp      ****     uint8_t  volume;      /* 0-150 */
 421:main.cpp      ****     uint8_t  _pad[1];     /* align to 12 bytes */
 422:main.cpp      **** };  /* 12 bytes */
 423:main.cpp      **** 
 424:main.cpp      **** /* 8 patterns ├Ś 16 tracks ├Ś 64 steps ├Ś 12B = ~98 KB ŌåÆ SDRAM */
 425:main.cpp      **** DSY_SDRAM_BSS static DsqStepFull dsqSteps[DSQ_PATTERNS][DSQ_TRACKS][DSQ_MAX_STEPS];
 426:main.cpp      **** 
 427:main.cpp      **** struct DaisySeqState {
 428:main.cpp      ****     bool     playing;
 429:main.cpp      ****     uint8_t  currentPattern;
ARM GAS  C:\Users\cesco\AppData\Local\Temp\ccOskMVA.s 			page 27


 430:main.cpp      ****     uint8_t  patternLength;    /* 16, 32, or 64         */
 431:main.cpp      ****     int16_t  currentStep;      /* -1 = not started      */
 432:main.cpp      ****     float    tempo;            /* BPM                   */
 433:main.cpp      ****     uint8_t  swingAmount;      /* 0-100                 */
 434:main.cpp      ****     bool     trackMuted[DSQ_TRACKS];
 435:main.cpp      ****     /* BPM clock (sample counter, updated inside AudioCallback) */
 436:main.cpp      ****     uint32_t samplesElapsed;
 437:main.cpp      ****     uint32_t samplesPerStep;
 438:main.cpp      **** };
 439:main.cpp      **** static DaisySeqState dseq;
 440:main.cpp      **** 
 441:main.cpp      **** /* Track ŌåÆ synth engine mapping  (-1 = sampler, 0=808, 1=909, 2=505, 3=303)
 442:main.cpp      ****  * Updated via CMD_DSQ_SET_TRACK_ENGINE.  Default: all tracks use sampler. */
 443:main.cpp      **** static int8_t dsqTrackEngine[DSQ_TRACKS];
 444:main.cpp      **** 
 445:main.cpp      **** static void DsqUpdateSamplesPerStep() {
 446:main.cpp      ****     float t = (dseq.tempo > 1.0f) ? dseq.tempo : 120.0f;
 447:main.cpp      ****     /* 16th note = 60/(bpm├Ś4) seconds */
 448:main.cpp      ****     float stepSec = 60.0f / (t * 4.0f);
 449:main.cpp      ****     dseq.samplesPerStep = (uint32_t)(stepSec * (float)SAMPLE_RATE);
 450:main.cpp      ****     if(dseq.samplesPerStep < 64) dseq.samplesPerStep = 64;
 451:main.cpp      **** }
 452:main.cpp      **** 
 453:main.cpp      **** static void DsqInit() {
 454:main.cpp      ****     /* dsqSteps est├Ī en SDRAM (DSY_SDRAM_BSS) que NO se zero-inicializa
 455:main.cpp      ****      * al boot en STM32H7. Sin este memset, volEn/reverbEn/cutoffEn pueden
 456:main.cpp      ****      * tener basura (=true) con volume/cutoffHz/reverbSend=0, haciendo que
 457:main.cpp      ****      * DsqFireStep ponga trackGain[t]=0 al disparar el primer step y
 458:main.cpp      ****      * silenciando todos los live pads permanentemente. */
 459:main.cpp      ****     memset(dsqSteps, 0, sizeof(dsqSteps));
 460:main.cpp      ****     memset(&dseq, 0, sizeof(dseq));
 461:main.cpp      ****     /* -1 (0xFF) = todos los tracks en modo sampler por defecto */
 462:main.cpp      ****     memset(dsqTrackEngine, (uint8_t)0xFF, sizeof(dsqTrackEngine));
 463:main.cpp      ****     dseq.tempo        = 120.0f;
 464:main.cpp      ****     dseq.patternLength = 16;
 465:main.cpp      ****     dseq.currentStep  = -1;
 466:main.cpp      ****     DsqUpdateSamplesPerStep();
 467:main.cpp      **** }
 468:main.cpp      **** 
 469:main.cpp      **** /* ŌĢÉŌĢÉŌĢÉŌĢÉŌĢÉŌĢÉŌĢÉŌĢÉŌĢÉŌĢÉŌĢÉŌĢÉŌĢÉŌĢÉŌĢÉŌĢÉŌĢÉŌĢÉŌĢÉŌĢÉŌĢÉŌĢÉŌĢÉŌĢÉŌĢÉŌĢÉŌĢÉŌĢÉŌĢÉŌĢÉŌĢÉŌĢÉ
 470:main.cpp      ****  *  9. PEAKS
 471:main.cpp      ****  * ŌĢÉŌĢÉŌĢÉŌĢÉŌĢÉŌĢÉŌĢÉŌĢÉŌĢÉŌĢÉŌĢÉŌĢÉŌĢÉŌĢÉŌĢÉŌĢÉŌĢÉŌĢÉŌĢÉŌĢÉŌĢÉŌĢÉŌĢÉŌĢÉŌĢÉŌĢÉŌĢÉŌĢÉŌĢÉŌĢÉŌĢÉŌĢÉ
 472:main.cpp      **** static volatile float trackPeak[MAX_PADS];
 473:main.cpp      **** static volatile float masterPeak = 0.0f;
 474:main.cpp      **** 
 475:main.cpp      **** /* ŌĢÉŌĢÉŌĢÉŌĢÉŌĢÉŌĢÉŌĢÉŌĢÉŌĢÉŌĢÉŌĢÉŌĢÉŌĢÉŌĢÉŌĢÉŌĢÉŌĢÉŌĢÉŌĢÉŌĢÉŌĢÉŌĢÉŌĢÉŌĢÉŌĢÉŌĢÉŌĢÉŌĢÉŌĢÉŌĢÉŌĢÉŌĢÉ
 476:main.cpp      ****  *  10. BiquadEQ  (Audio EQ Cookbook ŌĆō LP/HP/BP/Notch/Peak/Shelf)
 477:main.cpp      ****  * ŌĢÉŌĢÉŌĢÉŌĢÉŌĢÉŌĢÉŌĢÉŌĢÉŌĢÉŌĢÉŌĢÉŌĢÉŌĢÉŌĢÉŌĢÉŌĢÉŌĢÉŌĢÉŌĢÉŌĢÉŌĢÉŌĢÉŌĢÉŌĢÉŌĢÉŌĢÉŌĢÉŌĢÉŌĢÉŌĢÉŌĢÉŌĢÉ
 478:main.cpp      **** struct BiquadEQ {
 479:main.cpp      ****     float b0=1,b1=0,b2=0,a1=0,a2=0;
 480:main.cpp      ****     float z1=0,z2=0;
 481:main.cpp      **** 
 482:main.cpp      ****     float Process(float in){
 483:main.cpp      ****         float out = b0*in + z1;
 484:main.cpp      ****         z1 = b1*in - a1*out + z2;
 485:main.cpp      ****         z2 = b2*in - a2*out;
 486:main.cpp      ****         return out;
ARM GAS  C:\Users\cesco\AppData\Local\Temp\ccOskMVA.s 			page 28


 487:main.cpp      ****     }
 488:main.cpp      ****     void Reset(){ z1=z2=0; }
 489:main.cpp      **** 
 490:main.cpp      ****     void SetType(uint8_t t, float freq, float q, float sr, float gainDb=0.f){
 491:main.cpp      ****         if(freq<20.f) freq=20.f;
 492:main.cpp      ****         if(freq>sr*0.45f) freq=sr*0.45f;
 493:main.cpp      ****         if(q<0.3f) q=0.3f;
 494:main.cpp      ****         float w = 2.f*(float)M_PI*freq/sr;
 495:main.cpp      ****         float s_ = sinf(w), c_ = cosf(w);
 496:main.cpp      ****         float a  = s_/(2.f*q);
 497:main.cpp      ****         float a0i;
 498:main.cpp      ****         switch(t){
 499:main.cpp      ****             case FTYPE_LOWPASS:
 500:main.cpp      ****                 a0i = 1.f/(1.f+a);
 501:main.cpp      ****                 b0 = ((1.f-c_)*0.5f)*a0i;
 502:main.cpp      ****                 b1 = (1.f-c_)*a0i;
 503:main.cpp      ****                 b2 = b0; a1=(-2.f*c_)*a0i; a2=(1.f-a)*a0i;
 504:main.cpp      ****                 break;
 505:main.cpp      ****             case FTYPE_HIGHPASS:
 506:main.cpp      ****                 a0i = 1.f/(1.f+a);
 507:main.cpp      ****                 b0 = ((1.f+c_)*0.5f)*a0i;
 508:main.cpp      ****                 b1 = -(1.f+c_)*a0i;
 509:main.cpp      ****                 b2 = b0; a1=(-2.f*c_)*a0i; a2=(1.f-a)*a0i;
 510:main.cpp      ****                 break;
 511:main.cpp      ****             case FTYPE_BANDPASS:
 512:main.cpp      ****                 a0i = 1.f/(1.f+a);
 513:main.cpp      ****                 b0 = a*a0i; b1=0; b2=-b0;
 514:main.cpp      ****                 a1=(-2.f*c_)*a0i; a2=(1.f-a)*a0i;
 515:main.cpp      ****                 break;
 516:main.cpp      ****             case FTYPE_NOTCH:
 517:main.cpp      ****                 a0i = 1.f/(1.f+a);
 518:main.cpp      ****                 b0 = a0i; b1=(-2.f*c_)*a0i; b2=a0i;
 519:main.cpp      ****                 a1=b1; a2=(1.f-a)*a0i;
 520:main.cpp      ****                 break;
 521:main.cpp      ****             case FTYPE_PEAKING: {
 522:main.cpp      ****                 float A = powf(10.f, gainDb/40.f);
 523:main.cpp      ****                 a0i = 1.f/(1.f + a/A);
 524:main.cpp      ****                 b0 = (1.f + a*A)*a0i;
 525:main.cpp      ****                 b1 = (-2.f*c_)*a0i;
 526:main.cpp      ****                 b2 = (1.f - a*A)*a0i;
 527:main.cpp      ****                 a1 = b1; a2 = (1.f - a/A)*a0i;
 528:main.cpp      ****                 break;
 529:main.cpp      ****             }
 530:main.cpp      ****             case FTYPE_LOWSHELF: {
 531:main.cpp      ****                 float A = powf(10.f, gainDb/40.f);
 532:main.cpp      ****                 float sq = 2.f*sqrtf(A)*a;
 533:main.cpp      ****                 a0i = 1.f/((A+1.f)+(A-1.f)*c_+sq);
 534:main.cpp      ****                 b0 = A*((A+1.f)-(A-1.f)*c_+sq)*a0i;
 535:main.cpp      ****                 b1 = 2.f*A*((A-1.f)-(A+1.f)*c_)*a0i;
 536:main.cpp      ****                 b2 = A*((A+1.f)-(A-1.f)*c_-sq)*a0i;
 537:main.cpp      ****                 a1 = -2.f*((A-1.f)+(A+1.f)*c_)*a0i;
 538:main.cpp      ****                 a2 = ((A+1.f)+(A-1.f)*c_-sq)*a0i;
 539:main.cpp      ****                 break;
 540:main.cpp      ****             }
 541:main.cpp      ****             case FTYPE_HIGHSHELF: {
 542:main.cpp      ****                 float A = powf(10.f, gainDb/40.f);
 543:main.cpp      ****                 float sq = 2.f*sqrtf(A)*a;
ARM GAS  C:\Users\cesco\AppData\Local\Temp\ccOskMVA.s 			page 29


 544:main.cpp      ****                 a0i = 1.f/((A+1.f)-(A-1.f)*c_+sq);
 545:main.cpp      ****                 b0 = A*((A+1.f)+(A-1.f)*c_+sq)*a0i;
 546:main.cpp      ****                 b1 = -2.f*A*((A-1.f)+(A+1.f)*c_)*a0i;
 547:main.cpp      ****                 b2 = A*((A+1.f)+(A-1.f)*c_-sq)*a0i;
 548:main.cpp      ****                 a1 = 2.f*((A-1.f)-(A+1.f)*c_)*a0i;
 549:main.cpp      ****                 a2 = ((A+1.f)-(A-1.f)*c_+sq)*a0i;
 550:main.cpp      ****                 break;
 551:main.cpp      ****             }
 552:main.cpp      ****             default: b0=1;b1=b2=a1=a2=0; break;
 553:main.cpp      ****         }
 554:main.cpp      ****     }
 555:main.cpp      **** };
 556:main.cpp      **** 
 557:main.cpp      **** /* ŌĢÉŌĢÉŌĢÉŌĢÉŌĢÉŌĢÉŌĢÉŌĢÉŌĢÉŌĢÉŌĢÉŌĢÉŌĢÉŌĢÉŌĢÉŌĢÉŌĢÉŌĢÉŌĢÉŌĢÉŌĢÉŌĢÉŌĢÉŌĢÉŌĢÉŌĢÉŌĢÉŌĢÉŌĢÉŌĢÉŌĢÉŌĢÉ
 558:main.cpp      ****  *  11. DaisySP MASTER FX
 559:main.cpp      ****  * ŌĢÉŌĢÉŌĢÉŌĢÉŌĢÉŌĢÉŌĢÉŌĢÉŌĢÉŌĢÉŌĢÉŌĢÉŌĢÉŌĢÉŌĢÉŌĢÉŌĢÉŌĢÉŌĢÉŌĢÉŌĢÉŌĢÉŌĢÉŌĢÉŌĢÉŌĢÉŌĢÉŌĢÉŌĢÉŌĢÉŌĢÉŌĢÉ
 560:main.cpp      **** static DelayLine<float, MAX_DELAY_SAMPLES> DSY_SDRAM_BSS masterDelay;
 561:main.cpp      **** DSY_SDRAM_BSS static ReverbSc   masterReverb;
 562:main.cpp      **** DSY_SDRAM_BSS static Chorus     masterChorus;
 563:main.cpp      **** static Tremolo    masterTremolo;
 564:main.cpp      **** static Compressor masterComp;
 565:main.cpp      **** static Fold       masterFold;
 566:main.cpp      **** DSY_SDRAM_BSS static Phaser     masterPhaser;
 567:main.cpp      **** 
 568:main.cpp      **** /* Delay */
 569:main.cpp      **** static bool  delayActive   = false;
 570:main.cpp      **** static float delayTime     = 250.0f;
 571:main.cpp      **** static float delayFeedback = 0.3f;
 572:main.cpp      **** static float delayMix      = 0.3f;
 573:main.cpp      **** 
 574:main.cpp      **** /* Reverb */
 575:main.cpp      **** static bool  reverbActive   = false;
 576:main.cpp      **** static float reverbFeedback = 0.85f;
 577:main.cpp      **** static float reverbLpFreq   = 8000.0f;
 578:main.cpp      **** static float reverbMix      = 0.3f;
 579:main.cpp      **** 
 580:main.cpp      **** /* Chorus */
 581:main.cpp      **** static bool  chorusActive = false;
 582:main.cpp      **** static float chorusMix    = 0.4f;
 583:main.cpp      **** 
 584:main.cpp      **** /* Tremolo */
 585:main.cpp      **** static bool  tremoloActive = false;
 586:main.cpp      **** 
 587:main.cpp      **** /* Compressor */
 588:main.cpp      **** static bool  compActive = false;
 589:main.cpp      **** 
 590:main.cpp      **** /* Phaser */
 591:main.cpp      **** static bool  phaserActive   = false;
 592:main.cpp      **** 
 593:main.cpp      **** /* Flanger (manual: delay buf + LFO) */
 594:main.cpp      **** static bool  flangerActive  = false;
 595:main.cpp      **** static float flangerRate    = 0.5f;
 596:main.cpp      **** static float flangerDepth   = 0.5f;
 597:main.cpp      **** static float flangerFb      = 0.3f;
 598:main.cpp      **** static float flangerMix     = 0.3f;
 599:main.cpp      **** static float flangerPhase   = 0.0f;
 600:main.cpp      **** DSY_SDRAM_BSS static float flangerBuf[4096];
ARM GAS  C:\Users\cesco\AppData\Local\Temp\ccOskMVA.s 			page 30


 601:main.cpp      **** static uint32_t flangerWp   = 0;
 602:main.cpp      **** 
 603:main.cpp      **** /* Wavefolder + Limiter */
 604:main.cpp      **** static float waveFolderGain = 1.0f;
 605:main.cpp      **** static bool  limiterActive  = false;
 606:main.cpp      **** 
 607:main.cpp      **** /* ŌĢÉŌĢÉŌĢÉŌĢÉŌĢÉŌĢÉŌĢÉŌĢÉŌĢÉŌĢÉŌĢÉŌĢÉŌĢÉŌĢÉŌĢÉŌĢÉŌĢÉŌĢÉŌĢÉŌĢÉŌĢÉŌĢÉŌĢÉŌĢÉŌĢÉŌĢÉŌĢÉŌĢÉŌĢÉŌĢÉŌĢÉŌĢÉ
 608:main.cpp      ****  *  12. GLOBAL FILTER STATE
 609:main.cpp      ****  * ŌĢÉŌĢÉŌĢÉŌĢÉŌĢÉŌĢÉŌĢÉŌĢÉŌĢÉŌĢÉŌĢÉŌĢÉŌĢÉŌĢÉŌĢÉŌĢÉŌĢÉŌĢÉŌĢÉŌĢÉŌĢÉŌĢÉŌĢÉŌĢÉŌĢÉŌĢÉŌĢÉŌĢÉŌĢÉŌĢÉŌĢÉŌĢÉ
 610:main.cpp      **** static BiquadEQ  gFilterL, gFilterR;
 611:main.cpp      **** static uint8_t gFilterType    = FTYPE_NONE;
 612:main.cpp      **** static float   gFilterCutoff  = 10000.0f;
 613:main.cpp      **** static float   gFilterQ       = 0.707f;
 614:main.cpp      **** static uint8_t gFilterBitDepth= 16;
 615:main.cpp      **** static float   gFilterDist    = 0.0f;
 616:main.cpp      **** static uint8_t gFilterDistMode= DMODE_SOFT;
 617:main.cpp      **** static uint32_t gFilterSrReduce = 0;  /* 0 = disabled */
 618:main.cpp      **** static float   gSrHoldL = 0, gSrHoldR = 0;
 619:main.cpp      **** static uint32_t gSrCounter = 0;
 620:main.cpp      **** 
 621:main.cpp      **** /* ŌĢÉŌĢÉŌĢÉŌĢÉŌĢÉŌĢÉŌĢÉŌĢÉŌĢÉŌĢÉŌĢÉŌĢÉŌĢÉŌĢÉŌĢÉŌĢÉŌĢÉŌĢÉŌĢÉŌĢÉŌĢÉŌĢÉŌĢÉŌĢÉŌĢÉŌĢÉŌĢÉŌĢÉŌĢÉŌĢÉŌĢÉŌĢÉ
 622:main.cpp      ****  *  13. PER-PAD STATE
 623:main.cpp      ****  * ŌĢÉŌĢÉŌĢÉŌĢÉŌĢÉŌĢÉŌĢÉŌĢÉŌĢÉŌĢÉŌĢÉŌĢÉŌĢÉŌĢÉŌĢÉŌĢÉŌĢÉŌĢÉŌĢÉŌĢÉŌĢÉŌĢÉŌĢÉŌĢÉŌĢÉŌĢÉŌĢÉŌĢÉŌĢÉŌĢÉŌĢÉŌĢÉ
 624:main.cpp      **** static bool  padLoop[MAX_PADS];
 625:main.cpp      **** static bool  padReverse[MAX_PADS];
 626:main.cpp      **** static float padPitch[MAX_PADS];
 627:main.cpp      **** 
 628:main.cpp      **** /* Pad filter */
 629:main.cpp      **** static BiquadEQ  padFilter[MAX_PADS];
 630:main.cpp      **** static uint8_t padFilterType[MAX_PADS];
 631:main.cpp      **** static float   padFilterCut[MAX_PADS];
 632:main.cpp      **** static float   padFilterQ[MAX_PADS];
 633:main.cpp      **** 
 634:main.cpp      **** /* Pad distortion + bitcrush */
 635:main.cpp      **** static float   padDistDrive[MAX_PADS];
 636:main.cpp      **** static uint8_t padBitDepth[MAX_PADS];
 637:main.cpp      **** 
 638:main.cpp      **** /* Stutter */
 639:main.cpp      **** static bool     padStutterOn[MAX_PADS];
 640:main.cpp      **** static uint16_t padStutterIval[MAX_PADS];
 641:main.cpp      **** static uint16_t padStutterCnt[MAX_PADS];
 642:main.cpp      **** 
 643:main.cpp      **** /* Scratch */
 644:main.cpp      **** static bool  padScratchOn[MAX_PADS];
 645:main.cpp      **** static float padScratchRate[MAX_PADS];
 646:main.cpp      **** static float padScratchDepth[MAX_PADS];
 647:main.cpp      **** static float padScratchCut[MAX_PADS];
 648:main.cpp      **** static float padScratchCrackle[MAX_PADS];
 649:main.cpp      **** static float padScratchPhase[MAX_PADS];
 650:main.cpp      **** static BiquadEQ padScratchFilter[MAX_PADS];
 651:main.cpp      **** 
 652:main.cpp      **** /* Turntablism */
 653:main.cpp      **** static bool     padTurnOn[MAX_PADS];
 654:main.cpp      **** static bool     padTurnAuto[MAX_PADS];
 655:main.cpp      **** static int8_t   padTurnMode[MAX_PADS];
 656:main.cpp      **** static uint16_t padTurnBrakeMs[MAX_PADS];
 657:main.cpp      **** static uint16_t padTurnBackMs[MAX_PADS];
ARM GAS  C:\Users\cesco\AppData\Local\Temp\ccOskMVA.s 			page 31


 658:main.cpp      **** static float    padTurnRate[MAX_PADS];
 659:main.cpp      **** static float    padTurnNoise[MAX_PADS];
 660:main.cpp      **** static float    padTurnPhase[MAX_PADS];
 661:main.cpp      **** static uint32_t padTurnCounter[MAX_PADS];
 662:main.cpp      **** 
 663:main.cpp      **** /* ŌĢÉŌĢÉŌĢÉŌĢÉŌĢÉŌĢÉŌĢÉŌĢÉŌĢÉŌĢÉŌĢÉŌĢÉŌĢÉŌĢÉŌĢÉŌĢÉŌĢÉŌĢÉŌĢÉŌĢÉŌĢÉŌĢÉŌĢÉŌĢÉŌĢÉŌĢÉŌĢÉŌĢÉŌĢÉŌĢÉŌĢÉŌĢÉ
 664:main.cpp      ****  *  14. PER-TRACK MIXER + FX
 665:main.cpp      ****  * ŌĢÉŌĢÉŌĢÉŌĢÉŌĢÉŌĢÉŌĢÉŌĢÉŌĢÉŌĢÉŌĢÉŌĢÉŌĢÉŌĢÉŌĢÉŌĢÉŌĢÉŌĢÉŌĢÉŌĢÉŌĢÉŌĢÉŌĢÉŌĢÉŌĢÉŌĢÉŌĢÉŌĢÉŌĢÉŌĢÉŌĢÉŌĢÉ
 666:main.cpp      **** static float trackReverbSend[MAX_PADS];
 667:main.cpp      **** static float trackDelaySend[MAX_PADS];
 668:main.cpp      **** static float trackChorusSend[MAX_PADS];
 669:main.cpp      **** static float trackPanF[MAX_PADS];          /* -1.0..+1.0 */
 670:main.cpp      **** static bool  trackMute[MAX_PADS];
 671:main.cpp      **** static bool  trackSolo[MAX_PADS];
 672:main.cpp      **** static bool  anySolo = false;
 673:main.cpp      **** 
 674:main.cpp      **** /* Per-track filter */
 675:main.cpp      **** static BiquadEQ  trkFilter[MAX_PADS];
 676:main.cpp      **** static uint8_t trkFilterType[MAX_PADS];
 677:main.cpp      **** static float   trkFilterCut[MAX_PADS];
 678:main.cpp      **** static float   trkFilterQ[MAX_PADS];
 679:main.cpp      **** 
 680:main.cpp      **** /* Per-track distortion + bitcrush */
 681:main.cpp      **** static float   trkDistDrive[MAX_PADS];
 682:main.cpp      **** static uint8_t trkDistMode[MAX_PADS];
 683:main.cpp      **** static uint8_t trkBitDepth[MAX_PADS];
 684:main.cpp      **** 
 685:main.cpp      **** /* Per-track echo (delay buf in SDRAM) */
 686:main.cpp      **** DSY_SDRAM_BSS static float trkEchoBuf[MAX_PADS][TRACK_ECHO_SIZE];
 687:main.cpp      **** static bool     trkEchoActive[MAX_PADS];
 688:main.cpp      **** static float    trkEchoDelay[MAX_PADS];
 689:main.cpp      **** static float    trkEchoFb[MAX_PADS];
 690:main.cpp      **** static float    trkEchoMix[MAX_PADS];
 691:main.cpp      **** static uint32_t trkEchoWp[MAX_PADS];
 692:main.cpp      **** 
 693:main.cpp      **** /* Per-track flanger */
 694:main.cpp      **** DSY_SDRAM_BSS static float trkFlgBuf[MAX_PADS][TRACK_FLANGER_SIZE];
 695:main.cpp      **** static bool     trkFlgActive[MAX_PADS];
 696:main.cpp      **** static float    trkFlgDepth[MAX_PADS];
 697:main.cpp      **** static float    trkFlgRate[MAX_PADS];
 698:main.cpp      **** static float    trkFlgFb[MAX_PADS];
 699:main.cpp      **** static float    trkFlgMix[MAX_PADS];
 700:main.cpp      **** static float    trkFlgPhase[MAX_PADS];
 701:main.cpp      **** static uint32_t trkFlgWp[MAX_PADS];
 702:main.cpp      **** 
 703:main.cpp      **** /* Per-track compressor */
 704:main.cpp      **** static bool  trkCompActive[MAX_PADS];
 705:main.cpp      **** static float trkCompThresh[MAX_PADS];
 706:main.cpp      **** static float trkCompRatio[MAX_PADS];
 707:main.cpp      **** static float trkCompEnv[MAX_PADS];
 708:main.cpp      **** 
 709:main.cpp      **** /* Per-track EQ (3-band: low shelf 200Hz, mid peak 1kHz, high shelf 4kHz) */
 710:main.cpp      **** static BiquadEQ trkEqLow[MAX_PADS];
 711:main.cpp      **** static BiquadEQ trkEqMid[MAX_PADS];
 712:main.cpp      **** static BiquadEQ trkEqHigh[MAX_PADS];
 713:main.cpp      **** static int8_t trkEqLowDb[MAX_PADS];
 714:main.cpp      **** static int8_t trkEqMidDb[MAX_PADS];
ARM GAS  C:\Users\cesco\AppData\Local\Temp\ccOskMVA.s 			page 32


 715:main.cpp      **** static int8_t trkEqHighDb[MAX_PADS];
 716:main.cpp      **** 
 717:main.cpp      **** /* Per-track LFO (interno DSP, configurable desde host) */
 718:main.cpp      **** enum TrackLfoWave : uint8_t { LFO_WAVE_SINE = 0, LFO_WAVE_TRI = 1, LFO_WAVE_SH = 2 };
 719:main.cpp      **** enum TrackLfoTarget : uint8_t { LFO_TGT_GAIN = 0, LFO_TGT_PAN = 1, LFO_TGT_FILTER = 2 };
 720:main.cpp      **** static bool    trkLfoActive[MAX_PADS];
 721:main.cpp      **** static uint8_t trkLfoWave[MAX_PADS];
 722:main.cpp      **** static uint8_t trkLfoTarget[MAX_PADS];
 723:main.cpp      **** static float   trkLfoRate[MAX_PADS];
 724:main.cpp      **** static float   trkLfoDepth[MAX_PADS];
 725:main.cpp      **** static float   trkLfoPhase[MAX_PADS];
 726:main.cpp      **** static float   trkLfoSH[MAX_PADS];
 727:main.cpp      **** 
 728:main.cpp      **** /* Per-track AD envelope (aplicada por voz sampler) */
 729:main.cpp      **** static bool    trkEnvAdActive[MAX_PADS];
 730:main.cpp      **** static float   trkEnvAttackMs[MAX_PADS];
 731:main.cpp      **** static float   trkEnvDecayMs[MAX_PADS];
 732:main.cpp      **** 
 733:main.cpp      **** /* ŌĢÉŌĢÉŌĢÉŌĢÉŌĢÉŌĢÉŌĢÉŌĢÉŌĢÉŌĢÉŌĢÉŌĢÉŌĢÉŌĢÉŌĢÉŌĢÉŌĢÉŌĢÉŌĢÉŌĢÉŌĢÉŌĢÉŌĢÉŌĢÉŌĢÉŌĢÉŌĢÉŌĢÉŌĢÉŌĢÉŌĢÉŌĢÉ
 734:main.cpp      ****  *  15. SIDECHAIN
 735:main.cpp      ****  * ŌĢÉŌĢÉŌĢÉŌĢÉŌĢÉŌĢÉŌĢÉŌĢÉŌĢÉŌĢÉŌĢÉŌĢÉŌĢÉŌĢÉŌĢÉŌĢÉŌĢÉŌĢÉŌĢÉŌĢÉŌĢÉŌĢÉŌĢÉŌĢÉŌĢÉŌĢÉŌĢÉŌĢÉŌĢÉŌĢÉŌĢÉŌĢÉ
 736:main.cpp      **** static bool     scActive    = false;
 737:main.cpp      **** static uint8_t  scSrc       = 0;
 738:main.cpp      **** static uint16_t scDstMask   = 0;
 739:main.cpp      **** static float    scAmount    = 0.5f;
 740:main.cpp      **** static float    scAttackK   = 0.5f;
 741:main.cpp      **** static float    scReleaseK  = 0.1f;
 742:main.cpp      **** static float    scEnv       = 0.0f;
 743:main.cpp      **** 
 744:main.cpp      **** /* ŌĢÉŌĢÉŌĢÉŌĢÉŌĢÉŌĢÉŌĢÉŌĢÉŌĢÉŌĢÉŌĢÉŌĢÉŌĢÉŌĢÉŌĢÉŌĢÉŌĢÉŌĢÉŌĢÉŌĢÉŌĢÉŌĢÉŌĢÉŌĢÉŌĢÉŌĢÉŌĢÉŌĢÉŌĢÉŌĢÉŌĢÉŌĢÉ
 745:main.cpp      ****  *  16. SD CARD (SPI3 master ŌĆö m├│dulo 6 pines)
 746:main.cpp      ****  *  Conexi├│n: CS=D0(PB12) SCK=D2(PC10) MISO=D1(PC11) MOSI=D6(PC12)
 747:main.cpp      ****  * ŌĢÉŌĢÉŌĢÉŌĢÉŌĢÉŌĢÉŌĢÉŌĢÉŌĢÉŌĢÉŌĢÉŌĢÉŌĢÉŌĢÉŌĢÉŌĢÉŌĢÉŌĢÉŌĢÉŌĢÉŌĢÉŌĢÉŌĢÉŌĢÉŌĢÉŌĢÉŌĢÉŌĢÉŌĢÉŌĢÉŌĢÉŌĢÉ
 748:main.cpp      **** static SpiHandle  spi1_slave;      /* SPI1 slave ŌåÉ ESP32-S3 master     */
 749:main.cpp      **** static SpiHandle  sd_spi;         /* SPI3 master for SD card          */
 750:main.cpp      **** static GPIO       sd_cs;           /* D0 = PB12 for CS (GPIO manual)   */
 751:main.cpp      **** static FATFS      sdFatFs;        /* FatFS filesystem object           */
 752:main.cpp      **** static bool    sdPresent = false;
 753:main.cpp      **** static char    currentKitName[32] = "";
 754:main.cpp      **** static uint8_t sd_card_type = 0;  /* 0=none 1=SDv1 2=SDv2 6=SDHC      */
 755:main.cpp      **** 
 756:main.cpp      **** /* ŌöĆŌöĆ SD SPI low-level helpers ŌöĆŌöĆŌöĆŌöĆŌöĆŌöĆŌöĆŌöĆŌöĆŌöĆŌöĆŌöĆŌöĆŌöĆŌöĆŌöĆŌöĆŌöĆŌöĆŌöĆŌöĆŌ
 757:main.cpp      **** static inline void SD_CS_LOW()  { sd_cs.Write(false); }
 758:main.cpp      **** static inline void SD_CS_HIGH() { sd_cs.Write(true);  }
 759:main.cpp      **** 
 760:main.cpp      **** static uint8_t SD_TxRx(uint8_t tx){
 761:main.cpp      ****     uint8_t rx = 0xFF;
 762:main.cpp      ****     sd_spi.BlockingTransmitAndReceive(&tx, &rx, 1, 10);
 763:main.cpp      ****     return rx;
 764:main.cpp      **** }
 765:main.cpp      **** 
 766:main.cpp      **** static bool SD_WaitReady(uint32_t timeout_ms){
 767:main.cpp      ****     uint32_t start = System::GetNow();
 768:main.cpp      ****     do {
 769:main.cpp      ****         if(SD_TxRx(0xFF) == 0xFF) return true;
 770:main.cpp      ****     } while((System::GetNow() - start) < timeout_ms);
 771:main.cpp      ****     return false;
ARM GAS  C:\Users\cesco\AppData\Local\Temp\ccOskMVA.s 			page 33


 772:main.cpp      **** }
 773:main.cpp      **** 
 774:main.cpp      **** /* ŌöĆŌöĆ SD SPI command protocol ŌöĆŌöĆŌöĆŌöĆŌöĆŌöĆŌöĆŌöĆŌöĆŌöĆŌöĆŌöĆŌöĆŌöĆŌöĆŌöĆŌöĆŌöĆŌöĆŌöĆŌöĆŌö
 775:main.cpp      **** #define SD_CMD0    (0x40+0)   /* GO_IDLE_STATE          */
 776:main.cpp      **** #define SD_CMD8    (0x40+8)   /* SEND_IF_COND           */
 777:main.cpp      **** #define SD_CMD9    (0x40+9)   /* SEND_CSD               */
 778:main.cpp      **** #define SD_CMD12   (0x40+12)  /* STOP_TRANSMISSION      */
 779:main.cpp      **** #define SD_CMD16   (0x40+16)  /* SET_BLOCKLEN           */
 780:main.cpp      **** #define SD_CMD17   (0x40+17)  /* READ_SINGLE_BLOCK      */
 781:main.cpp      **** #define SD_CMD18   (0x40+18)  /* READ_MULTIPLE_BLOCK    */
 782:main.cpp      **** #define SD_CMD24   (0x40+24)  /* WRITE_BLOCK            */
 783:main.cpp      **** #define SD_CMD25   (0x40+25)  /* WRITE_MULTIPLE_BLOCK   */
 784:main.cpp      **** #define SD_CMD55   (0x40+55)  /* APP_CMD                */
 785:main.cpp      **** #define SD_CMD58   (0x40+58)  /* READ_OCR               */
 786:main.cpp      **** #define SD_ACMD41  (0xC0+41)  /* SD_SEND_OP_COND (app)  */
 787:main.cpp      **** 
 788:main.cpp      **** static uint8_t SD_SendCmd(uint8_t cmd, uint32_t arg)
 789:main.cpp      **** {
 790:main.cpp      ****     uint8_t n, res;
 791:main.cpp      ****     if(cmd & 0x80){                       /* ACMD: send CMD55 first */
 792:main.cpp      ****         cmd &= 0x7F;
 793:main.cpp      ****         res = SD_SendCmd(SD_CMD55, 0);
 794:main.cpp      ****         if(res > 1) return res;
 795:main.cpp      ****     }
 796:main.cpp      ****     /* Select card */
 797:main.cpp      ****     SD_CS_HIGH(); SD_TxRx(0xFF);
 798:main.cpp      ****     SD_CS_LOW();  SD_TxRx(0xFF);
 799:main.cpp      **** 
 800:main.cpp      ****     /* Command packet */
 801:main.cpp      ****     SD_TxRx(cmd);
 802:main.cpp      ****     SD_TxRx((uint8_t)(arg >> 24));
 803:main.cpp      ****     SD_TxRx((uint8_t)(arg >> 16));
 804:main.cpp      ****     SD_TxRx((uint8_t)(arg >> 8));
 805:main.cpp      ****     SD_TxRx((uint8_t)arg);
 806:main.cpp      ****     n = 0x01;
 807:main.cpp      ****     if(cmd == SD_CMD0) n = 0x95;          /* Valid CRC for CMD0(0)  */
 808:main.cpp      ****     if(cmd == SD_CMD8) n = 0x87;          /* Valid CRC for CMD8     */
 809:main.cpp      ****     SD_TxRx(n);
 810:main.cpp      **** 
 811:main.cpp      ****     if(cmd == SD_CMD12) SD_TxRx(0xFF);    /* Skip stuff byte        */
 812:main.cpp      ****     n = 10;
 813:main.cpp      ****     do { res = SD_TxRx(0xFF); } while((res & 0x80) && --n);
 814:main.cpp      ****     return res;
 815:main.cpp      **** }
 816:main.cpp      **** 
 817:main.cpp      **** static bool SD_RxDataBlock(uint8_t* buf, uint32_t cnt)
 818:main.cpp      **** {
 819:main.cpp      ****     uint8_t token;
 820:main.cpp      ****     uint32_t start = System::GetNow();
 821:main.cpp      ****     do { token = SD_TxRx(0xFF); }
 822:main.cpp      ****     while(token == 0xFF && (System::GetNow() - start) < 200);
 823:main.cpp      ****     if(token != 0xFE) return false;
 824:main.cpp      ****     for(uint32_t i = 0; i < cnt; i++) buf[i] = SD_TxRx(0xFF);
 825:main.cpp      ****     SD_TxRx(0xFF); SD_TxRx(0xFF);        /* Discard CRC            */
 826:main.cpp      ****     return true;
 827:main.cpp      **** }
 828:main.cpp      **** 
ARM GAS  C:\Users\cesco\AppData\Local\Temp\ccOskMVA.s 			page 34


 829:main.cpp      **** static bool SD_TxDataBlock(const uint8_t* buf, uint8_t token)
 830:main.cpp      **** {
 831:main.cpp      ****     if(!SD_WaitReady(500)) return false;
 832:main.cpp      ****     SD_TxRx(token);
 833:main.cpp      ****     if(token != 0xFD){
 834:main.cpp      ****         for(uint32_t i = 0; i < 512; i++) SD_TxRx(buf[i]);
 835:main.cpp      ****         SD_TxRx(0xFF); SD_TxRx(0xFF);    /* Dummy CRC              */
 836:main.cpp      ****         uint8_t resp = SD_TxRx(0xFF);
 837:main.cpp      ****         if((resp & 0x1F) != 0x05) return false;
 838:main.cpp      ****     }
 839:main.cpp      ****     return true;
 840:main.cpp      **** }
 841:main.cpp      **** 
 842:main.cpp      **** /* ŌöĆŌöĆ FatFS diskio callbacks (registered via FATFS_LinkDriver) ŌöĆŌöĆŌöĆŌöĆ */
 843:main.cpp      **** static DSTATUS SPISD_DiskStatus(BYTE lun){
 844:main.cpp      ****     return sd_card_type ? 0 : STA_NOINIT;
 845:main.cpp      **** }
 846:main.cpp      **** 
 847:main.cpp      **** static DSTATUS SPISD_DiskInit(BYTE lun)
 848:main.cpp      **** {
 849:main.cpp      ****     uint8_t n, ty, ocr[4];
 850:main.cpp      ****     SD_CS_HIGH();
 851:main.cpp      ****     for(n = 0; n < 10; n++) SD_TxRx(0xFF);  /* >=74 clocks            */
 852:main.cpp      **** 
 853:main.cpp      ****     ty = 0;
 854:main.cpp      ****     if(SD_SendCmd(SD_CMD0, 0) == 1){         /* Enter idle             */
 855:main.cpp      ****         uint32_t start = System::GetNow();
 856:main.cpp      ****         if(SD_SendCmd(SD_CMD8, 0x1AA) == 1){ /* SDv2 ?                 */
 857:main.cpp      ****             for(n = 0; n < 4; n++) ocr[n] = SD_TxRx(0xFF);
 858:main.cpp      ****             if(ocr[2] == 0x01 && ocr[3] == 0xAA){
 859:main.cpp      ****                 while((System::GetNow() - start) < 1000)
 860:main.cpp      ****                     if(SD_SendCmd(SD_ACMD41, 1UL << 30) == 0) break;
 861:main.cpp      ****                 if((System::GetNow() - start) < 1000
 862:main.cpp      ****                    && SD_SendCmd(SD_CMD58, 0) == 0){
 863:main.cpp      ****                     for(n = 0; n < 4; n++) ocr[n] = SD_TxRx(0xFF);
 864:main.cpp      ****                     ty = (ocr[0] & 0x40) ? 6 : 2; /* SDHC(6) or SDv2(2)   */
 865:main.cpp      ****                 }
 866:main.cpp      ****             }
 867:main.cpp      ****         } else {
 868:main.cpp      ****             if(SD_SendCmd(SD_ACMD41, 0) <= 1){ ty = 1; /* SDv1              */
 869:main.cpp      ****                 while((System::GetNow() - start) < 1000)
 870:main.cpp      ****                     if(SD_SendCmd(SD_ACMD41, 0) == 0) break;
 871:main.cpp      ****             }
 872:main.cpp      ****             if(ty && SD_SendCmd(SD_CMD16, 512) != 0) ty = 0;
 873:main.cpp      ****         }
 874:main.cpp      ****     }
 875:main.cpp      ****     SD_CS_HIGH(); SD_TxRx(0xFF);
 876:main.cpp      ****     sd_card_type = ty;
 877:main.cpp      ****     return ty ? 0 : STA_NOINIT;
 878:main.cpp      **** }
 879:main.cpp      **** 
 880:main.cpp      **** static DRESULT SPISD_DiskRead(BYTE lun, BYTE* buff, DWORD sector, UINT count)
 881:main.cpp      **** {
 882:main.cpp      ****     if(!sd_card_type) return RES_NOTRDY;
 883:main.cpp      ****     if(!(sd_card_type & 4)) sector *= 512;
 884:main.cpp      ****     if(count == 1){
 885:main.cpp      ****         if(SD_SendCmd(SD_CMD17, sector) == 0
ARM GAS  C:\Users\cesco\AppData\Local\Temp\ccOskMVA.s 			page 35


 886:main.cpp      ****            && SD_RxDataBlock(buff, 512)) count = 0;
 887:main.cpp      ****     } else {
 888:main.cpp      ****         if(SD_SendCmd(SD_CMD18, sector) == 0){
 889:main.cpp      ****             do {
 890:main.cpp      ****                 if(!SD_RxDataBlock(buff, 512)) break;
 891:main.cpp      ****                 buff += 512;
 892:main.cpp      ****             } while(--count);
 893:main.cpp      ****             SD_SendCmd(SD_CMD12, 0);
 894:main.cpp      ****         }
 895:main.cpp      ****     }
 896:main.cpp      ****     SD_CS_HIGH(); SD_TxRx(0xFF);
 897:main.cpp      ****     return count ? RES_ERROR : RES_OK;
 898:main.cpp      **** }
 899:main.cpp      **** 
 900:main.cpp      **** static DRESULT SPISD_DiskWrite(BYTE lun, const BYTE* buff, DWORD sector, UINT count)
 901:main.cpp      **** {
 902:main.cpp      ****     if(!sd_card_type) return RES_NOTRDY;
 903:main.cpp      ****     if(!(sd_card_type & 4)) sector *= 512;
 904:main.cpp      ****     if(count == 1){
 905:main.cpp      ****         if(SD_SendCmd(SD_CMD24, sector) == 0
 906:main.cpp      ****            && SD_TxDataBlock(buff, 0xFE)) count = 0;
 907:main.cpp      ****     } else {
 908:main.cpp      ****         if(SD_SendCmd(SD_CMD25, sector) == 0){
 909:main.cpp      ****             do {
 910:main.cpp      ****                 if(!SD_TxDataBlock(buff, 0xFC)) break;
 911:main.cpp      ****                 buff += 512;
 912:main.cpp      ****             } while(--count);
 913:main.cpp      ****             SD_TxDataBlock(0, 0xFD);
 914:main.cpp      ****         }
 915:main.cpp      ****     }
 916:main.cpp      ****     SD_CS_HIGH(); SD_TxRx(0xFF);
 917:main.cpp      ****     return count ? RES_ERROR : RES_OK;
 918:main.cpp      **** }
 919:main.cpp      **** 
 920:main.cpp      **** static DRESULT SPISD_DiskIoctl(BYTE lun, BYTE cmd, void* buff)
 921:main.cpp      **** {
 922:main.cpp      ****     DRESULT res = RES_ERROR;
 923:main.cpp      ****     uint8_t csd[16];
 924:main.cpp      ****     if(!sd_card_type) return RES_NOTRDY;
 925:main.cpp      ****     switch(cmd){
 926:main.cpp      ****         case CTRL_SYNC:
 927:main.cpp      ****             SD_CS_LOW();
 928:main.cpp      ****             if(SD_WaitReady(500)) res = RES_OK;
 929:main.cpp      ****             SD_CS_HIGH();
 930:main.cpp      ****             break;
 931:main.cpp      ****         case GET_SECTOR_COUNT:
 932:main.cpp      ****             if(SD_SendCmd(SD_CMD9, 0) == 0 && SD_RxDataBlock(csd, 16)){
 933:main.cpp      ****                 DWORD n_sec;
 934:main.cpp      ****                 if((csd[0] >> 6) == 1){
 935:main.cpp      ****                     n_sec = ((DWORD)(csd[7]&0x3F)<<16)|((DWORD)csd[8]<<8)|csd[9];
 936:main.cpp      ****                     n_sec = (n_sec + 1) << 10;
 937:main.cpp      ****                 } else {
 938:main.cpp      ****                     uint8_t nn = (csd[5]&0x0F)+((csd[10]&0x80)>>7)+((csd[9]&3)<<1)+2;
 939:main.cpp      ****                     n_sec = ((DWORD)(csd[8]>>6)+((DWORD)csd[7]<<2)+((DWORD)(csd[6]&3)<<10)+1);
 940:main.cpp      ****                     n_sec <<= (nn - 9);
 941:main.cpp      ****                 }
 942:main.cpp      ****                 *(DWORD*)buff = n_sec;
ARM GAS  C:\Users\cesco\AppData\Local\Temp\ccOskMVA.s 			page 36


 943:main.cpp      ****                 res = RES_OK;
 944:main.cpp      ****             }
 945:main.cpp      ****             SD_CS_HIGH(); SD_TxRx(0xFF);
 946:main.cpp      ****             break;
 947:main.cpp      ****         case GET_SECTOR_SIZE:
 948:main.cpp      ****             *(WORD*)buff = 512; res = RES_OK; break;
 949:main.cpp      ****         case GET_BLOCK_SIZE:
 950:main.cpp      ****             *(DWORD*)buff = 1;  res = RES_OK; break;
 951:main.cpp      ****         default: res = RES_PARERR;
 952:main.cpp      ****     }
 953:main.cpp      ****     return res;
 954:main.cpp      **** }
 955:main.cpp      **** 
 956:main.cpp      **** static const Diskio_drvTypeDef SPISD_Driver = {
 957:main.cpp      ****     SPISD_DiskInit,
 958:main.cpp      ****     SPISD_DiskStatus,
 959:main.cpp      ****     SPISD_DiskRead,
 960:main.cpp      ****     SPISD_DiskWrite,
 961:main.cpp      ****     SPISD_DiskIoctl
 962:main.cpp      **** };
 963:main.cpp      **** 
 964:main.cpp      **** /* ŌĢÉŌĢÉŌĢÉŌĢÉŌĢÉŌĢÉŌĢÉŌĢÉŌĢÉŌĢÉŌĢÉŌĢÉŌĢÉŌĢÉŌĢÉŌĢÉŌĢÉŌĢÉŌĢÉŌĢÉŌĢÉŌĢÉŌĢÉŌĢÉŌĢÉŌĢÉŌĢÉŌĢÉŌĢÉŌĢÉŌĢÉŌĢÉ
 965:main.cpp      ****  *  16b. EVENT NOTIFICATION SYSTEM
 966:main.cpp      ****  *  La Daisy es SPI esclava ŌåÆ no puede empujar datos al Master.
 967:main.cpp      ****  *  Soluci├│n: cola circular de eventos. El Master descubre que hay
 968:main.cpp      ****  *  eventos pendientes al ver eventCount > 0 en CMD_GET_STATUS,
 969:main.cpp      ****  *  y luego llama CMD_GET_EVENTS para drenarlos.
 970:main.cpp      ****  * ŌĢÉŌĢÉŌĢÉŌĢÉŌĢÉŌĢÉŌĢÉŌĢÉŌĢÉŌĢÉŌĢÉŌĢÉŌĢÉŌĢÉŌĢÉŌĢÉŌĢÉŌĢÉŌĢÉŌĢÉŌĢÉŌĢÉŌĢÉŌĢÉŌĢÉŌĢÉŌĢÉŌĢÉŌĢÉŌĢÉŌĢÉŌĢÉ
 971:main.cpp      **** #define EVT_SD_BOOT_DONE       0x01  /* Boot loading complete             */
 972:main.cpp      **** #define EVT_SD_KIT_LOADED      0x02  /* Kit loaded by CMD_SD_LOAD_KIT     */
 973:main.cpp      **** #define EVT_SD_SAMPLE_LOADED   0x03  /* Sample cargado por CMD_SD_LOAD_SAMPLE */
 974:main.cpp      **** #define EVT_SD_KIT_UNLOADED    0x04  /* Kit descargado                    */
 975:main.cpp      **** #define EVT_SD_ERROR           0x05  /* Error de SD                       */
 976:main.cpp      **** #define EVT_SD_XTRA_LOADED     0x06  /* XTRA PADS cargados al boot        */
 977:main.cpp      **** 
 978:main.cpp      **** struct __attribute__((packed)) NotifyEvent {
 979:main.cpp      ****     uint8_t  type;          /* EVT_SD_* */
 980:main.cpp      ****     uint8_t  padCount;      /* cu├Īntos pads afectados */
 981:main.cpp      ****     uint8_t  padMaskLo;     /* bitmask pads 0-7  loaded */
 982:main.cpp      ****     uint8_t  padMaskHi;     /* bitmask pads 8-15 loaded */
 983:main.cpp      ****     uint8_t  padMaskXtra;   /* bitmask pads 16-23 loaded */
 984:main.cpp      ****     uint8_t  reserved[3];
 985:main.cpp      ****     char     name[24];      /* kit name / sample name */
 986:main.cpp      **** };  /* 32 bytes */
 987:main.cpp      **** 
 988:main.cpp      **** #define EVT_QUEUE_SIZE 8
 989:main.cpp      **** static NotifyEvent evtQueue[EVT_QUEUE_SIZE];
 990:main.cpp      **** static volatile uint8_t evtHead = 0;  /* next write position  */
 991:main.cpp      **** static volatile uint8_t evtTail = 0;  /* next read  position  */
 992:main.cpp      **** static volatile uint8_t evtCount = 0; /* events in queue      */
 993:main.cpp      **** 
 994:main.cpp      **** static void PushEvent(uint8_t type, uint8_t padCount,
 995:main.cpp      ****                       uint32_t padMask24, const char* name)
 996:main.cpp      **** {
 997:main.cpp      ****     if(evtCount >= EVT_QUEUE_SIZE){
 998:main.cpp      ****         /* Queue full ŌĆö overwrite oldest */
 999:main.cpp      ****         evtTail = (evtTail + 1) % EVT_QUEUE_SIZE;
ARM GAS  C:\Users\cesco\AppData\Local\Temp\ccOskMVA.s 			page 37


1000:main.cpp      ****         evtCount--;
1001:main.cpp      ****     }
1002:main.cpp      ****     NotifyEvent& e = evtQueue[evtHead];
1003:main.cpp      ****     memset(&e, 0, sizeof(e));
1004:main.cpp      ****     e.type       = type;
1005:main.cpp      ****     e.padCount   = padCount;
1006:main.cpp      ****     e.padMaskLo  = (uint8_t)(padMask24 & 0xFF);
1007:main.cpp      ****     e.padMaskHi  = (uint8_t)((padMask24 >> 8) & 0xFF);
1008:main.cpp      ****     e.padMaskXtra= (uint8_t)((padMask24 >> 16) & 0xFF);
1009:main.cpp      ****     if(name) strncpy(e.name, name, 23);
1010:main.cpp      ****     evtHead = (evtHead + 1) % EVT_QUEUE_SIZE;
1011:main.cpp      ****     evtCount++;
1012:main.cpp      **** }
1013:main.cpp      **** 
1014:main.cpp      **** static uint8_t PopEvents(NotifyEvent* dst, uint8_t maxEvents)
1015:main.cpp      **** {
1016:main.cpp      ****     uint8_t count = 0;
1017:main.cpp      ****     while(evtCount > 0 && count < maxEvents){
1018:main.cpp      ****         dst[count++] = evtQueue[evtTail];
1019:main.cpp      ****         evtTail = (evtTail + 1) % EVT_QUEUE_SIZE;
1020:main.cpp      ****         evtCount--;
1021:main.cpp      ****     }
1022:main.cpp      ****     return count;
1023:main.cpp      **** }
1024:main.cpp      **** 
1025:main.cpp      **** /* ŌĢÉŌĢÉŌĢÉŌĢÉŌĢÉŌĢÉŌĢÉŌĢÉŌĢÉŌĢÉŌĢÉŌĢÉŌĢÉŌĢÉŌĢÉŌĢÉŌĢÉŌĢÉŌĢÉŌĢÉŌĢÉŌĢÉŌĢÉŌĢÉŌĢÉŌĢÉŌĢÉŌĢÉŌĢÉŌĢÉŌĢÉŌĢÉ
1026:main.cpp      ****  *  17. MISC STATS
1027:main.cpp      ****  * ŌĢÉŌĢÉŌĢÉŌĢÉŌĢÉŌĢÉŌĢÉŌĢÉŌĢÉŌĢÉŌĢÉŌĢÉŌĢÉŌĢÉŌĢÉŌĢÉŌĢÉŌĢÉŌĢÉŌĢÉŌĢÉŌĢÉŌĢÉŌĢÉŌĢÉŌĢÉŌĢÉŌĢÉŌĢÉŌĢÉŌĢÉŌĢÉ
1028:main.cpp      **** static volatile uint32_t spiPktCnt = 0;
1029:main.cpp      **** static volatile uint16_t spiErrCnt = 0;
1030:main.cpp      **** static volatile uint16_t spiRingDrops = 0;  /* bytes perdidos por ring lleno */
1031:main.cpp      **** static volatile uint32_t spiLastPacketMs = 0;
1032:main.cpp      **** static volatile uint32_t spiLastTriggerMs = 0;
1033:main.cpp      **** static volatile uint32_t uartLedPulseUntilMs = 0;
1034:main.cpp      **** static volatile uint32_t uartMvpLastKickMs = 0;
1035:main.cpp      **** 
1036:main.cpp      **** /* ŌĢÉŌĢÉŌĢÉŌĢÉŌĢÉŌĢÉŌĢÉŌĢÉŌĢÉŌĢÉŌĢÉŌĢÉŌĢÉŌĢÉŌĢÉŌĢÉŌĢÉŌĢÉŌĢÉŌĢÉŌĢÉŌĢÉŌĢÉŌĢÉŌĢÉŌĢÉŌĢÉŌĢÉŌĢÉŌĢÉŌĢÉŌĢÉ
1037:main.cpp      ****  *  17b. SYNTH ENGINE INSTANCES
1038:main.cpp      ****  * ŌĢÉŌĢÉŌĢÉŌĢÉŌĢÉŌĢÉŌĢÉŌĢÉŌĢÉŌĢÉŌĢÉŌĢÉŌĢÉŌĢÉŌĢÉŌĢÉŌĢÉŌĢÉŌĢÉŌĢÉŌĢÉŌĢÉŌĢÉŌĢÉŌĢÉŌĢÉŌĢÉŌĢÉŌĢÉŌĢÉŌĢÉŌĢÉ
1039:main.cpp      **** static TR808::Kit synth808;
1040:main.cpp      **** static TR909::Kit synth909;
1041:main.cpp      **** static TR505::Kit synth505;
1042:main.cpp      **** static TB303::Synth acid303;
1043:main.cpp      **** 
1044:main.cpp      **** /* ŌĢÉŌĢÉŌĢÉŌĢÉŌĢÉŌĢÉŌĢÉŌĢÉŌĢÉŌĢÉŌĢÉŌĢÉŌĢÉŌĢÉŌĢÉŌĢÉŌĢÉŌĢÉŌĢÉŌĢÉŌĢÉŌĢÉŌĢÉŌĢÉŌĢÉŌĢÉŌĢÉŌĢÉŌĢÉŌĢÉŌĢÉŌĢÉ
1045:main.cpp      ****  *  Tabla de remap: padIndex del ESP32 ŌåÆ TR808::InstrumentId
1046:main.cpp      ****  *  ESP32 env├Ła: 0=BD 1=SD 2=CH 3=OH 4=CY 5=CP 6=RS 7=CB
1047:main.cpp      ****  *               8=LT 9=MT 10=HT 11=MA 12=CL 13=HC 14=MC 15=LC
1048:main.cpp      ****  * ŌĢÉŌĢÉŌĢÉŌĢÉŌĢÉŌĢÉŌĢÉŌĢÉŌĢÉŌĢÉŌĢÉŌĢÉŌĢÉŌĢÉŌĢÉŌĢÉŌĢÉŌĢÉŌĢÉŌĢÉŌĢÉŌĢÉŌĢÉŌĢÉŌĢÉŌĢÉŌĢÉŌĢÉŌĢÉŌĢÉŌĢÉŌĢÉ
1049:main.cpp      **** static const uint8_t padTo808[16] = {
1050:main.cpp      ****     TR808::INST_KICK,      /* pad 0  = BD  ŌåÆ INST_KICK (0)      */
1051:main.cpp      ****     TR808::INST_SNARE,     /* pad 1  = SD  ŌåÆ INST_SNARE (1)     */
1052:main.cpp      ****     TR808::INST_HIHAT_C,   /* pad 2  = CH  ŌåÆ INST_HIHAT_C (3)   */
1053:main.cpp      ****     TR808::INST_HIHAT_O,   /* pad 3  = OH  ŌåÆ INST_HIHAT_O (4)   */
1054:main.cpp      ****     TR808::INST_CYMBAL,    /* pad 4  = CY  ŌåÆ INST_CYMBAL (15)   */
1055:main.cpp      ****     TR808::INST_CLAP,      /* pad 5  = CP  ŌåÆ INST_CLAP (2)      */
1056:main.cpp      ****     TR808::INST_RIMSHOT,   /* pad 6  = RS  ŌåÆ INST_RIMSHOT (13)  */
ARM GAS  C:\Users\cesco\AppData\Local\Temp\ccOskMVA.s 			page 38


1057:main.cpp      ****     TR808::INST_COWBELL,   /* pad 7  = CB  ŌåÆ INST_COWBELL (14)  */
1058:main.cpp      ****     TR808::INST_LOW_TOM,   /* pad 8  = LT  ŌåÆ INST_LOW_TOM (5)  */
1059:main.cpp      ****     TR808::INST_MID_TOM,   /* pad 9  = MT  ŌåÆ INST_MID_TOM (6)  */
1060:main.cpp      ****     TR808::INST_HI_TOM,    /* pad 10 = HT  ŌåÆ INST_HI_TOM (7)   */
1061:main.cpp      ****     TR808::INST_MARACAS,   /* pad 11 = MA  ŌåÆ INST_MARACAS (12)  */
1062:main.cpp      ****     TR808::INST_CLAVES,    /* pad 12 = CL  ŌåÆ INST_CLAVES (11)   */
1063:main.cpp      ****     TR808::INST_HI_CONGA,  /* pad 13 = HC  ŌåÆ INST_HI_CONGA (10) */
1064:main.cpp      ****     TR808::INST_MID_CONGA, /* pad 14 = MC  ŌåÆ INST_MID_CONGA (9) */
1065:main.cpp      ****     TR808::INST_LOW_CONGA, /* pad 15 = LC  ŌåÆ INST_LOW_CONGA (8) */
1066:main.cpp      **** };
1067:main.cpp      **** 
1068:main.cpp      **** static const uint8_t padTo909[16] = {
1069:main.cpp      ****     TR909::INST_KICK,      /* 0 BD */
1070:main.cpp      ****     TR909::INST_SNARE,     /* 1 SD */
1071:main.cpp      ****     TR909::INST_HIHAT_C,   /* 2 CH */
1072:main.cpp      ****     TR909::INST_HIHAT_O,   /* 3 OH */
1073:main.cpp      ****     TR909::INST_CRASH,     /* 4 CY */
1074:main.cpp      ****     TR909::INST_CLAP,      /* 5 CP */
1075:main.cpp      ****     TR909::INST_RIMSHOT,   /* 6 RS */
1076:main.cpp      ****     TR909::INST_RIDE,      /* 7 CB surrogate */
1077:main.cpp      ****     TR909::INST_LOW_TOM,   /* 8 LT */
1078:main.cpp      ****     TR909::INST_MID_TOM,   /* 9 MT */
1079:main.cpp      ****     TR909::INST_HI_TOM,    /* 10 HT */
1080:main.cpp      ****     TR909::INST_CLAP,      /* 11 MA surrogate */
1081:main.cpp      ****     TR909::INST_RIMSHOT,   /* 12 CL surrogate */
1082:main.cpp      ****     TR909::INST_LOW_TOM,   /* 13 HC surrogate */
1083:main.cpp      ****     TR909::INST_MID_TOM,   /* 14 MC surrogate */
1084:main.cpp      ****     TR909::INST_HI_TOM,    /* 15 LC surrogate */
1085:main.cpp      **** };
1086:main.cpp      **** 
1087:main.cpp      **** static const uint8_t padTo505[16] = {
1088:main.cpp      ****     TR505::INST_KICK,      /* 0 BD */
1089:main.cpp      ****     TR505::INST_SNARE,     /* 1 SD */
1090:main.cpp      ****     TR505::INST_HIHAT_C,   /* 2 CH */
1091:main.cpp      ****     TR505::INST_HIHAT_O,   /* 3 OH */
1092:main.cpp      ****     TR505::INST_CYMBAL,    /* 4 CY */
1093:main.cpp      ****     TR505::INST_CLAP,      /* 5 CP */
1094:main.cpp      ****     TR505::INST_RIMSHOT,   /* 6 RS */
1095:main.cpp      ****     TR505::INST_COWBELL,   /* 7 CB */
1096:main.cpp      ****     TR505::INST_LOW_TOM,   /* 8 LT */
1097:main.cpp      ****     TR505::INST_MID_TOM,   /* 9 MT */
1098:main.cpp      ****     TR505::INST_HI_TOM,    /* 10 HT */
1099:main.cpp      ****     TR505::INST_COWBELL,   /* 11 MA surrogate */
1100:main.cpp      ****     TR505::INST_CLAP,      /* 12 CL surrogate */
1101:main.cpp      ****     TR505::INST_LOW_TOM,   /* 13 HC surrogate */
1102:main.cpp      ****     TR505::INST_MID_TOM,   /* 14 MC surrogate */
1103:main.cpp      ****     TR505::INST_HI_TOM,    /* 15 LC surrogate */
1104:main.cpp      **** };
1105:main.cpp      **** 
1106:main.cpp      **** static const uint8_t padTo303Midi[16] = {
1107:main.cpp      ****     36, 38, 41, 43,
1108:main.cpp      ****     45, 48, 50, 53,
1109:main.cpp      ****     55, 57, 60, 62,
1110:main.cpp      ****     64, 67, 69, 72
1111:main.cpp      **** };
1112:main.cpp      **** 
1113:main.cpp      **** static inline void Synth808TriggerByPad(uint8_t padIdx, float velocity)
ARM GAS  C:\Users\cesco\AppData\Local\Temp\ccOskMVA.s 			page 39


1114:main.cpp      **** {
1115:main.cpp      ****     if(padIdx < 16)
1116:main.cpp      ****         synth808.Trigger(padTo808[padIdx], velocity);
1117:main.cpp      ****     else
1118:main.cpp      ****         synth808.Trigger(TR808::INST_KICK, velocity); /* fallback */
1119:main.cpp      **** }
1120:main.cpp      **** 
1121:main.cpp      **** /* Bitmask: qu├® engines est├Īn activos (bit0=808, bit1=909, bit2=505, bit3=303) */
1122:main.cpp      **** static uint8_t synthActiveMask = 0x0F;  /* 808+909+505+303 activos para demo de arranque completa *
1123:main.cpp      **** 
1124:main.cpp      **** /* ŌöĆŌöĆ Demo Mode ŌöĆŌöĆ */
1125:main.cpp      **** static Demo::DemoSequencer demoSeq;
1126:main.cpp      **** static constexpr bool kEnableSpiSlave = true;  /* modo integrado: comunicaci├│n con ESP32 master */
1127:main.cpp      **** static constexpr bool kUseSpiTransport = true;  /* true = SPI1 slave, false = UART1 (legacy) */
1128:main.cpp      **** static constexpr bool kEnableSynth505 = true;  /* habilitado para demo completa de arranque */
1129:main.cpp      **** static constexpr bool kAudioSafeMode = false; /* callback de audio real */
1130:main.cpp      **** static constexpr bool kBootDiagMinimal = false; /* diagn├│stico extremo: solo LED, sin audio ni FX 
1131:main.cpp      **** static constexpr bool kEnableAudioStart = true; /* iniciar audio normal */
1132:main.cpp      **** static constexpr bool kEnableStartLog = true;  /* diagn├│stico: ver log boot QSPI/muestras */
1133:main.cpp      **** static constexpr bool kEnableInitFx = true;    /* diagn├│stico: reactivar InitFX para aislar causa 
1134:main.cpp      **** static constexpr bool kStartupToneTest = false; /* tono confirmado OK, desactivado */
1135:main.cpp      **** static constexpr bool kStartup808SelfTest = false; /* desactivado: arranque limpio, espera comandos
1136:main.cpp      **** static constexpr bool kBypassIncomingCrc = false; /* producci├│n: validar CRC de comandos entrantes
1137:main.cpp      **** static constexpr bool kAcceptOneBasedPadIndex = false; /* ESP32 env├Ła 0-based (pad 0=BD, 1=SD, etc
1138:main.cpp      **** static constexpr bool kTriggerSynthOnLiveCmd = false; /* producci├│n: no superponer synth al dispar
1139:main.cpp      **** static constexpr bool kForceMasterGainDebug = false; /* producci├│n: respetar master volume del hos
1140:main.cpp      **** static constexpr bool kSpiSingleFrame10 = true; /* compat: master env├Ła trigger en 1 frame de 10 b
1141:main.cpp      **** static bool demoModeActive = false; /* demo desactivada ŌĆö audio codec y jack ya verificados */
1142:main.cpp      **** 
1143:main.cpp      **** /* PRNG for crackle/noise FX */
1144:main.cpp      **** static uint32_t noiseState = 0x12345678;
1145:main.cpp      **** static uint32_t FastRand(){
1146:main.cpp      ****     noiseState ^= noiseState<<13;
1147:main.cpp      ****     noiseState ^= noiseState>>17;
1148:main.cpp      ****     noiseState ^= noiseState<<5;
1149:main.cpp      ****     return noiseState;
1150:main.cpp      **** }
1151:main.cpp      **** static float RandFloat(){
1152:main.cpp      ****     return ((float)(int32_t)FastRand()) / 2147483648.0f;
1153:main.cpp      **** }
1154:main.cpp      **** 
1155:main.cpp      **** /* ŌöĆŌöĆ Startup section announcer (retro-rob├│tico por formantes) ŌöĆŌöĆ */
1156:main.cpp      **** enum StartupSectionTag : uint8_t {
1157:main.cpp      ****     SEC_SAMPLERS = 0,
1158:main.cpp      ****     SEC_808,
1159:main.cpp      ****     SEC_909,
1160:main.cpp      ****     SEC_505,
1161:main.cpp      ****     SEC_303,
1162:main.cpp      ****     SEC_XTRAS,
1163:main.cpp      ****     SEC_SAMPLER_FX,
1164:main.cpp      ****     SEC_TECHNO,
1165:main.cpp      ****     SEC_ELECTRO,
1166:main.cpp      ****     SEC_AMBIENT,
1167:main.cpp      ****     SEC_COUNT
1168:main.cpp      **** };
1169:main.cpp      **** 
1170:main.cpp      **** static FormantOscillator startupAnnounceOsc;
ARM GAS  C:\Users\cesco\AppData\Local\Temp\ccOskMVA.s 			page 40


1171:main.cpp      **** static bool             startupAnnounceActive = false;
1172:main.cpp      **** static float            startupAnnounceEnv    = 0.0f;
1173:main.cpp      **** static uint32_t         startupAnnounceRemain = 0;
1174:main.cpp      **** 
1175:main.cpp      **** static void QueueStartupSectionTag(StartupSectionTag sec)
1176:main.cpp      **** {
1177:main.cpp      ****     static const char* kWords[SEC_COUNT] = {
1178:main.cpp      ****         "SAMPLERS", "808", "909", "505", "303", "XTRAS", "FX JAM", "TECHNO", "ELECTRO", "AMBIENT"
1179:main.cpp      ****     };
1180:main.cpp      ****     static const float kCarrier[SEC_COUNT] = {
1181:main.cpp      ****         86.0f, 92.0f, 98.0f, 104.0f, 110.0f, 116.0f, 94.0f, 88.0f, 96.0f, 80.0f
1182:main.cpp      ****     };
1183:main.cpp      ****     static const float kFormant[SEC_COUNT] = {
1184:main.cpp      ****         820.0f, 940.0f, 980.0f, 910.0f, 860.0f, 760.0f, 1030.0f, 700.0f, 1080.0f, 640.0f
1185:main.cpp      ****     };
1186:main.cpp      ****     static const float kPhaseShift[SEC_COUNT] = {
1187:main.cpp      ****         0.28f, 0.32f, 0.38f, 0.45f, 0.52f, 0.62f, 0.34f, 0.58f, 0.42f, 0.66f
1188:main.cpp      ****     };
1189:main.cpp      **** 
1190:main.cpp      ****     uint8_t idx = (uint8_t)sec;
1191:main.cpp      ****     if(idx >= SEC_COUNT) return;
1192:main.cpp      **** 
1193:main.cpp      ****     startupAnnounceOsc.SetCarrierFreq(kCarrier[idx]);
1194:main.cpp      ****     startupAnnounceOsc.SetFormantFreq(kFormant[idx]);
1195:main.cpp      ****     startupAnnounceOsc.SetPhaseShift(kPhaseShift[idx]);
1196:main.cpp      ****     startupAnnounceEnv    = 1.0f;
1197:main.cpp      ****     startupAnnounceRemain = (uint32_t)(SAMPLE_RATE * 0.22f);
1198:main.cpp      ****     startupAnnounceActive = true;
1199:main.cpp      **** 
1200:main.cpp      ****     /* Etiqueta textual de secci├│n (si el log USB est├Ī activo) */
1201:main.cpp      ****     hw.PrintLine(">>> %s <<<", kWords[idx]);
1202:main.cpp      **** }
1203:main.cpp      **** 
1204:main.cpp      **** /* ŌĢÉŌĢÉŌĢÉŌĢÉŌĢÉŌĢÉŌĢÉŌĢÉŌĢÉŌĢÉŌĢÉŌĢÉŌĢÉŌĢÉŌĢÉŌĢÉŌĢÉŌĢÉŌĢÉŌĢÉŌĢÉŌĢÉŌĢÉŌĢÉŌĢÉŌĢÉŌĢÉŌĢÉŌĢÉŌĢÉŌĢÉŌĢÉ
1205:main.cpp      ****  *  18. CRC16 MODBUS
1206:main.cpp      ****  * ŌĢÉŌĢÉŌĢÉŌĢÉŌĢÉŌĢÉŌĢÉŌĢÉŌĢÉŌĢÉŌĢÉŌĢÉŌĢÉŌĢÉŌĢÉŌĢÉŌĢÉŌĢÉŌĢÉŌĢÉŌĢÉŌĢÉŌĢÉŌĢÉŌĢÉŌĢÉŌĢÉŌĢÉŌĢÉŌĢÉŌĢÉŌĢÉ
1207:main.cpp      **** static uint16_t crc16(const uint8_t* d, uint16_t len){
1208:main.cpp      ****     uint16_t crc = 0xFFFF;
1209:main.cpp      ****     for(uint16_t i = 0; i < len; i++){
1210:main.cpp      ****         crc ^= d[i];
1211:main.cpp      ****         for(uint8_t j = 0; j < 8; j++)
1212:main.cpp      ****             crc = (crc & 1) ? (crc >> 1) ^ 0xA001 : (crc >> 1);
1213:main.cpp      ****     }
1214:main.cpp      ****     return crc;
1215:main.cpp      **** }
1216:main.cpp      **** 
1217:main.cpp      **** /* ŌĢÉŌĢÉŌĢÉŌĢÉŌĢÉŌĢÉŌĢÉŌĢÉŌĢÉŌĢÉŌĢÉŌĢÉŌĢÉŌĢÉŌĢÉŌĢÉŌĢÉŌĢÉŌĢÉŌĢÉŌĢÉŌĢÉŌĢÉŌĢÉŌĢÉŌĢÉŌĢÉŌĢÉŌĢÉŌĢÉŌĢÉŌĢÉ
1218:main.cpp      ****  *  19. DSP HELPERS
1219:main.cpp      ****  * ŌĢÉŌĢÉŌĢÉŌĢÉŌĢÉŌĢÉŌĢÉŌĢÉŌĢÉŌĢÉŌĢÉŌĢÉŌĢÉŌĢÉŌĢÉŌĢÉŌĢÉŌĢÉŌĢÉŌĢÉŌĢÉŌĢÉŌĢÉŌĢÉŌĢÉŌĢÉŌĢÉŌĢÉŌĢÉŌĢÉŌĢÉŌĢÉ
1220:main.cpp      **** static inline float clampF(float v, float lo, float hi){
1221:main.cpp      ****     return v < lo ? lo : (v > hi ? hi : v);
1222:main.cpp      **** }
1223:main.cpp      **** 
1224:main.cpp      **** static inline float VolumeByteToGain(uint8_t volumePct)
1225:main.cpp      **** {
1226:main.cpp      ****     return clampF((float)volumePct, 0.0f, 150.0f) / 100.0f;
1227:main.cpp      **** }
ARM GAS  C:\Users\cesco\AppData\Local\Temp\ccOskMVA.s 			page 41


1228:main.cpp      **** 
1229:main.cpp      **** static inline float SoftClipKnee(float x)
1230:main.cpp      **** {
1231:main.cpp      ****     const float knee = 0.9f;
1232:main.cpp      ****     if(x > knee)
1233:main.cpp      ****     {
1234:main.cpp      ****         float t = x - knee;
1235:main.cpp      ****         return knee + t / (1.0f + t * t);
1236:main.cpp      ****     }
1237:main.cpp      ****     if(x < -knee)
1238:main.cpp      ****     {
1239:main.cpp      ****         float t = x + knee;
1240:main.cpp      ****         return -knee + t / (1.0f + t * t);
1241:main.cpp      ****     }
1242:main.cpp      ****     return x;
1243:main.cpp      **** }
1244:main.cpp      **** 
1245:main.cpp      **** static inline float TriFromPhase(float ph)
1246:main.cpp      **** {
1247:main.cpp      ****     /* 0..1 -> -1..+1 */
1248:main.cpp      ****     float t = ph < 0.5f ? (ph * 2.0f) : (2.0f - ph * 2.0f);
1249:main.cpp      ****     return t * 2.0f - 1.0f;
1250:main.cpp      **** }
1251:main.cpp      **** 
1252:main.cpp      **** static inline float AdDecayCoefFromMs(float decayMs)
1253:main.cpp      **** {
1254:main.cpp      ****     float samples = clampF(decayMs, 1.0f, 8000.0f) * (float)SAMPLE_RATE * 0.001f;
1255:main.cpp      ****     return expf(-1.0f / samples);
1256:main.cpp      **** }
1257:main.cpp      **** 
1258:main.cpp      **** /* Forward decl: usado por el startup self-test */
1259:main.cpp      **** static void TriggerPad(uint8_t pad, uint8_t velocity,
1260:main.cpp      ****                        uint8_t trkVol, int8_t pan,
1261:main.cpp      ****                        uint32_t maxSamples,
1262:main.cpp      ****                        float sourceVolume = 1.0f);
1263:main.cpp      **** 
1264:main.cpp      **** /* ŌĢÉŌĢÉŌĢÉŌĢÉŌĢÉŌĢÉŌĢÉŌĢÉŌĢÉŌĢÉŌĢÉŌĢÉŌĢÉŌĢÉŌĢÉŌĢÉŌĢÉŌĢÉŌĢÉŌĢÉŌĢÉŌĢÉŌĢÉŌĢÉŌĢÉŌĢÉŌĢÉŌĢÉŌĢÉŌĢÉŌĢÉŌĢÉ
1265:main.cpp      ****  *  Startup self-test en fases
1266:main.cpp      ****  *  1) Samplers WAV RED (pads 0..15, pad por pad)
1267:main.cpp      ****  *  2) TR808 instrumentos (uno a uno)
1268:main.cpp      ****  *  3) TR909 instrumentos (uno a uno)
1269:main.cpp      ****  *  4) TR505 instrumentos (uno a uno)
1270:main.cpp      ****  *  5) TB303 notas (una a una)
1271:main.cpp      ****  *  6) Samplers WAV XTRA (pads 16..23, al final)
1272:main.cpp      ****  * ŌĢÉŌĢÉŌĢÉŌĢÉŌĢÉŌĢÉŌĢÉŌĢÉŌĢÉŌĢÉŌĢÉŌĢÉŌĢÉŌĢÉŌĢÉŌĢÉŌĢÉŌĢÉŌĢÉŌĢÉŌĢÉŌĢÉŌĢÉŌĢÉŌĢÉŌĢÉŌĢÉŌĢÉŌĢÉŌĢÉŌĢÉŌĢÉ
1273:main.cpp      **** static void RunStartup808SelfTest(uint32_t nowMs)
1274:main.cpp      **** {
1275:main.cpp      ****     if(!kStartup808SelfTest)
1276:main.cpp      ****         return;
1277:main.cpp      **** 
1278:main.cpp      ****     enum Phase : uint8_t {
1279:main.cpp      ****         PH_IDLE = 0,
1280:main.cpp      ****         PH_SCAN_SAMPLES,
1281:main.cpp      ****         PH_SCAN_808,
1282:main.cpp      ****         PH_SCAN_909,
1283:main.cpp      ****         PH_SCAN_505,
1284:main.cpp      ****         PH_SCAN_303_ON,
ARM GAS  C:\Users\cesco\AppData\Local\Temp\ccOskMVA.s 			page 42


1285:main.cpp      ****         PH_SCAN_303_OFF,
1286:main.cpp      ****         PH_SCAN_XTRA,
1287:main.cpp      ****         PH_SAMPLER_FX_JAM,
1288:main.cpp      ****         PH_SYNTH_JAM,
1289:main.cpp      ****         PH_CLEANUP,
1290:main.cpp      ****         PH_DONE
1291:main.cpp      ****     };
1292:main.cpp      ****     static Phase    phase = PH_IDLE;
1293:main.cpp      ****     static uint32_t nextMs = 0;
1294:main.cpp      ****     static uint8_t  padIdx = 0;
1295:main.cpp      ****     static uint8_t  xtraPadIdx = 16;
1296:main.cpp      ****     static uint8_t  inst808Idx = 0;
1297:main.cpp      ****     static uint8_t  inst909Idx = 0;
1298:main.cpp      ****     static uint8_t  inst505Idx = 0;
1299:main.cpp      ****     static uint8_t  note303Idx = 0;
1300:main.cpp      ****     static uint8_t  samplerFxStep = 0;
1301:main.cpp      ****     static uint8_t  synthJamStep  = 0;
1302:main.cpp      ****     static uint8_t  synthJamStyle = 0; /* 0=Techno 1=Electro 2=Ambient */
1303:main.cpp      **** 
1304:main.cpp      ****     static const uint32_t kPauseSampleMs = 380;
1305:main.cpp      ****     static const uint32_t kPauseSynthMs  = 360;
1306:main.cpp      ****     static const uint32_t kPausePhaseMs  = 560;
1307:main.cpp      ****     static const uint32_t kPause303OnMs  = 320;
1308:main.cpp      ****     static const uint32_t kPause303OffMs = 220;
1309:main.cpp      ****     static const uint32_t kPauseSamplerFxMs = 230;
1310:main.cpp      ****     static const uint32_t kPauseSynthJamMs  = 130;
1311:main.cpp      ****     static const uint8_t  kSamplerFxSteps   = 14;
1312:main.cpp      ****     static const uint8_t  kSynthJamSteps    = 32;
1313:main.cpp      **** 
1314:main.cpp      ****     static const uint8_t inst808List[16] = {
1315:main.cpp      ****         TR808::INST_KICK,
1316:main.cpp      ****         TR808::INST_SNARE,
1317:main.cpp      ****         TR808::INST_CLAP,
1318:main.cpp      ****         TR808::INST_HIHAT_C,
1319:main.cpp      ****         TR808::INST_HIHAT_O,
1320:main.cpp      ****         TR808::INST_LOW_TOM,
1321:main.cpp      ****         TR808::INST_MID_TOM,
1322:main.cpp      ****         TR808::INST_HI_TOM,
1323:main.cpp      ****         TR808::INST_LOW_CONGA,
1324:main.cpp      ****         TR808::INST_MID_CONGA,
1325:main.cpp      ****         TR808::INST_HI_CONGA,
1326:main.cpp      ****         TR808::INST_CLAVES,
1327:main.cpp      ****         TR808::INST_MARACAS,
1328:main.cpp      ****         TR808::INST_RIMSHOT,
1329:main.cpp      ****         TR808::INST_COWBELL,
1330:main.cpp      ****         TR808::INST_CYMBAL,
1331:main.cpp      ****     };
1332:main.cpp      **** 
1333:main.cpp      ****     static const uint8_t inst909List[] = {
1334:main.cpp      ****         TR909::INST_KICK,
1335:main.cpp      ****         TR909::INST_SNARE,
1336:main.cpp      ****         TR909::INST_CLAP,
1337:main.cpp      ****         TR909::INST_HIHAT_C,
1338:main.cpp      ****         TR909::INST_HIHAT_O,
1339:main.cpp      ****         TR909::INST_LOW_TOM,
1340:main.cpp      ****         TR909::INST_MID_TOM,
1341:main.cpp      ****         TR909::INST_HI_TOM,
ARM GAS  C:\Users\cesco\AppData\Local\Temp\ccOskMVA.s 			page 43


1342:main.cpp      ****         TR909::INST_RIDE,
1343:main.cpp      ****         TR909::INST_CRASH,
1344:main.cpp      ****         TR909::INST_RIMSHOT,
1345:main.cpp      ****     };
1346:main.cpp      **** 
1347:main.cpp      ****     static const uint8_t inst505List[] = {
1348:main.cpp      ****         TR505::INST_KICK,
1349:main.cpp      ****         TR505::INST_SNARE,
1350:main.cpp      ****         TR505::INST_CLAP,
1351:main.cpp      ****         TR505::INST_HIHAT_C,
1352:main.cpp      ****         TR505::INST_HIHAT_O,
1353:main.cpp      ****         TR505::INST_LOW_TOM,
1354:main.cpp      ****         TR505::INST_MID_TOM,
1355:main.cpp      ****         TR505::INST_HI_TOM,
1356:main.cpp      ****         TR505::INST_COWBELL,
1357:main.cpp      ****         TR505::INST_CYMBAL,
1358:main.cpp      ****         TR505::INST_RIMSHOT,
1359:main.cpp      ****     };
1360:main.cpp      **** 
1361:main.cpp      ****     static const uint8_t notes303[] = {
1362:main.cpp      ****         36, 38, 41, 43, 45, 48, 50, 53
1363:main.cpp      ****     };
1364:main.cpp      **** 
1365:main.cpp      ****     static const uint8_t jamNotes[16] = {
1366:main.cpp      ****         36, 36, 43, 0,
1367:main.cpp      ****         41, 41, 48, 0,
1368:main.cpp      ****         45, 45, 50, 48,
1369:main.cpp      ****         43, 41, 38, 0
1370:main.cpp      ****     };
1371:main.cpp      **** 
1372:main.cpp      ****     static const uint8_t jamNotesElectro[16] = {
1373:main.cpp      ****         36, 43, 36, 0,
1374:main.cpp      ****         48, 46, 43, 0,
1375:main.cpp      ****         41, 43, 45, 0,
1376:main.cpp      ****         50, 48, 46, 43
1377:main.cpp      ****     };
1378:main.cpp      **** 
1379:main.cpp      ****     static const uint8_t jamNotesAmbient[16] = {
1380:main.cpp      ****         36, 0, 43, 0,
1381:main.cpp      ****         48, 0, 50, 0,
1382:main.cpp      ****         53, 0, 48, 0,
1383:main.cpp      ****         45, 0, 41, 0
1384:main.cpp      ****     };
1385:main.cpp      **** 
1386:main.cpp      ****     if(spiPktCnt > 0 && phase != PH_DONE)
1387:main.cpp      ****     {
1388:main.cpp      ****         acid303.NoteOff();
1389:main.cpp      ****         phase = PH_DONE;
1390:main.cpp      ****         return;
1391:main.cpp      ****     }
1392:main.cpp      **** 
1393:main.cpp      ****     if(phase == PH_IDLE)
1394:main.cpp      ****     {
1395:main.cpp      ****         phase   = PH_SCAN_SAMPLES;
1396:main.cpp      ****         nextMs  = nowMs + 250;
1397:main.cpp      ****         padIdx  = 0;
1398:main.cpp      ****         xtraPadIdx = 16;
ARM GAS  C:\Users\cesco\AppData\Local\Temp\ccOskMVA.s 			page 44


1399:main.cpp      ****         inst808Idx = 0;
1400:main.cpp      ****         inst909Idx = 0;
1401:main.cpp      ****         inst505Idx = 0;
1402:main.cpp      ****         note303Idx = 0;
1403:main.cpp      ****         samplerFxStep = 0;
1404:main.cpp      ****         synthJamStep = 0;
1405:main.cpp      ****         synthJamStyle = 0;
1406:main.cpp      ****         QueueStartupSectionTag(SEC_SAMPLERS);
1407:main.cpp      ****         return;
1408:main.cpp      ****     }
1409:main.cpp      **** 
1410:main.cpp      ****     if(nowMs < nextMs)
1411:main.cpp      ****         return;
1412:main.cpp      **** 
1413:main.cpp      ****     if(phase == PH_SCAN_SAMPLES)
1414:main.cpp      ****     {
1415:main.cpp      ****         while(padIdx < 16 && !sampleLoaded[padIdx])
1416:main.cpp      ****             padIdx++;
1417:main.cpp      **** 
1418:main.cpp      ****         if(padIdx < 16)
1419:main.cpp      ****         {
1420:main.cpp      ****             TriggerPad(padIdx, 115, 100, 0, 0);
1421:main.cpp      ****             padIdx++;
1422:main.cpp      ****             nextMs = nowMs + kPauseSampleMs;
1423:main.cpp      ****             return;
1424:main.cpp      ****         }
1425:main.cpp      **** 
1426:main.cpp      ****         phase = PH_SCAN_808;
1427:main.cpp      ****         inst808Idx = 0;
1428:main.cpp      ****         nextMs = nowMs + kPausePhaseMs;
1429:main.cpp      ****         QueueStartupSectionTag(SEC_808);
1430:main.cpp      ****         return;
1431:main.cpp      ****     }
1432:main.cpp      **** 
1433:main.cpp      ****     if(phase == PH_SCAN_808)
1434:main.cpp      ****     {
1435:main.cpp      ****         synth808.Trigger(inst808List[inst808Idx], 0.90f);
1436:main.cpp      ****         inst808Idx++;
1437:main.cpp      ****         nextMs = nowMs + kPauseSynthMs;
1438:main.cpp      ****         if(inst808Idx >= (sizeof(inst808List) / sizeof(inst808List[0])))
1439:main.cpp      ****         {
1440:main.cpp      ****             phase = PH_SCAN_909;
1441:main.cpp      ****             inst909Idx = 0;
1442:main.cpp      ****             nextMs = nowMs + kPausePhaseMs;
1443:main.cpp      ****             QueueStartupSectionTag(SEC_909);
1444:main.cpp      ****         }
1445:main.cpp      **** 
1446:main.cpp      ****         return;
1447:main.cpp      ****     }
1448:main.cpp      **** 
1449:main.cpp      ****     if(phase == PH_SCAN_909)
1450:main.cpp      ****     {
1451:main.cpp      ****         synth909.Trigger(inst909List[inst909Idx], 0.88f);
1452:main.cpp      ****         inst909Idx++;
1453:main.cpp      ****         nextMs = nowMs + kPauseSynthMs;
1454:main.cpp      ****         if(inst909Idx >= (sizeof(inst909List) / sizeof(inst909List[0])))
1455:main.cpp      ****         {
ARM GAS  C:\Users\cesco\AppData\Local\Temp\ccOskMVA.s 			page 45


1456:main.cpp      ****             phase = PH_SCAN_505;
1457:main.cpp      ****             inst505Idx = 0;
1458:main.cpp      ****             nextMs = nowMs + kPausePhaseMs;
1459:main.cpp      ****             QueueStartupSectionTag(SEC_505);
1460:main.cpp      ****         }
1461:main.cpp      **** 
1462:main.cpp      ****         return;
1463:main.cpp      ****     }
1464:main.cpp      **** 
1465:main.cpp      ****     if(phase == PH_SCAN_505)
1466:main.cpp      ****     {
1467:main.cpp      ****         synth505.Trigger(inst505List[inst505Idx], 0.88f);
1468:main.cpp      ****         inst505Idx++;
1469:main.cpp      ****         nextMs = nowMs + kPauseSynthMs;
1470:main.cpp      ****         if(inst505Idx >= (sizeof(inst505List) / sizeof(inst505List[0])))
1471:main.cpp      ****         {
1472:main.cpp      ****             phase = PH_SCAN_303_ON;
1473:main.cpp      ****             note303Idx = 0;
1474:main.cpp      ****             nextMs = nowMs + kPausePhaseMs;
1475:main.cpp      ****             QueueStartupSectionTag(SEC_303);
1476:main.cpp      ****         }
1477:main.cpp      **** 
1478:main.cpp      ****         return;
1479:main.cpp      ****     }
1480:main.cpp      **** 
1481:main.cpp      ****     if(phase == PH_SCAN_303_ON)
1482:main.cpp      ****     {
1483:main.cpp      ****         if(note303Idx >= (sizeof(notes303) / sizeof(notes303[0])))
1484:main.cpp      ****         {
1485:main.cpp      ****             acid303.NoteOff();
1486:main.cpp      ****             phase = PH_SCAN_XTRA;
1487:main.cpp      ****             xtraPadIdx = 16;
1488:main.cpp      ****             nextMs = nowMs + kPausePhaseMs;
1489:main.cpp      ****             QueueStartupSectionTag(SEC_XTRAS);
1490:main.cpp      ****             return;
1491:main.cpp      ****         }
1492:main.cpp      **** 
1493:main.cpp      ****         bool accent = ((note303Idx & 1u) == 0u);
1494:main.cpp      ****         bool slide  = ((note303Idx & 3u) == 3u);
1495:main.cpp      ****         acid303.NoteOn(notes303[note303Idx], accent, slide);
1496:main.cpp      ****         phase  = PH_SCAN_303_OFF;
1497:main.cpp      ****         nextMs = nowMs + kPause303OnMs;
1498:main.cpp      ****         return;
1499:main.cpp      ****     }
1500:main.cpp      **** 
1501:main.cpp      ****     if(phase == PH_SCAN_303_OFF)
1502:main.cpp      ****     {
1503:main.cpp      ****         acid303.NoteOff();
1504:main.cpp      ****         note303Idx++;
1505:main.cpp      ****         phase  = PH_SCAN_303_ON;
1506:main.cpp      ****         nextMs = nowMs + kPause303OffMs;
1507:main.cpp      **** 
1508:main.cpp      ****         return;
1509:main.cpp      ****     }
1510:main.cpp      **** 
1511:main.cpp      ****     if(phase == PH_SCAN_XTRA)
1512:main.cpp      ****     {
ARM GAS  C:\Users\cesco\AppData\Local\Temp\ccOskMVA.s 			page 46


1513:main.cpp      ****         while(xtraPadIdx < MAX_PADS && !sampleLoaded[xtraPadIdx])
1514:main.cpp      ****             xtraPadIdx++;
1515:main.cpp      **** 
1516:main.cpp      ****         if(xtraPadIdx < MAX_PADS)
1517:main.cpp      ****         {
1518:main.cpp      ****             TriggerPad(xtraPadIdx, 115, 100, 0, 0);
1519:main.cpp      ****             xtraPadIdx++;
1520:main.cpp      ****             nextMs = nowMs + kPauseSampleMs;
1521:main.cpp      ****             return;
1522:main.cpp      ****         }
1523:main.cpp      **** 
1524:main.cpp      ****         phase = PH_SAMPLER_FX_JAM;
1525:main.cpp      ****         samplerFxStep = 0;
1526:main.cpp      ****         nextMs = nowMs + kPausePhaseMs;
1527:main.cpp      ****         QueueStartupSectionTag(SEC_SAMPLER_FX);
1528:main.cpp      ****         return;
1529:main.cpp      ****     }
1530:main.cpp      **** 
1531:main.cpp      ****     if(phase == PH_SAMPLER_FX_JAM)
1532:main.cpp      ****     {
1533:main.cpp      ****         delayActive = true;
1534:main.cpp      ****         reverbActive = true;
1535:main.cpp      ****         chorusActive = true;
1536:main.cpp      ****         delayMix = 0.20f;
1537:main.cpp      ****         delayFeedback = 0.34f;
1538:main.cpp      ****         reverbMix = 0.24f;
1539:main.cpp      ****         chorusMix = 0.16f;
1540:main.cpp      ****         masterDelay.SetDelay(0.18f * (float)SAMPLE_RATE);
1541:main.cpp      ****         masterReverb.SetFeedback(0.83f);
1542:main.cpp      ****         masterReverb.SetLpFreq(7600.0f);
1543:main.cpp      ****         masterChorus.SetLfoFreq(0.35f);
1544:main.cpp      ****         masterChorus.SetLfoDepth(0.35f);
1545:main.cpp      **** 
1546:main.cpp      ****         int picked = -1;
1547:main.cpp      ****         for(int k = 0; k < MAX_PADS; k++){
1548:main.cpp      ****             int cand = (samplerFxStep + k) % MAX_PADS;
1549:main.cpp      ****             if(sampleLoaded[cand]){ picked = cand; break; }
1550:main.cpp      ****         }
1551:main.cpp      **** 
1552:main.cpp      ****         if(picked < 0)
1553:main.cpp      ****         {
1554:main.cpp      ****             phase = PH_SYNTH_JAM;
1555:main.cpp      ****             synthJamStyle = 0;
1556:main.cpp      ****             synthJamStep = 0;
1557:main.cpp      ****             nextMs = nowMs + kPausePhaseMs;
1558:main.cpp      ****             QueueStartupSectionTag(SEC_TECHNO);
1559:main.cpp      ****             return;
1560:main.cpp      ****         }
1561:main.cpp      **** 
1562:main.cpp      ****         float t = (kSamplerFxSteps <= 1)
1563:main.cpp      ****             ? 1.0f
1564:main.cpp      ****             : ((float)samplerFxStep / (float)(kSamplerFxSteps - 1));
1565:main.cpp      ****         float sweep = 0.5f + 0.5f * sinf(2.0f * (float)M_PI * (0.8f * t + 0.12f));
1566:main.cpp      **** 
1567:main.cpp      ****         uint8_t p = (uint8_t)picked;
1568:main.cpp      ****         trkEnvAdActive[p] = true;
1569:main.cpp      ****         trkEnvAttackMs[p] = 1.0f + 45.0f * sweep;
ARM GAS  C:\Users\cesco\AppData\Local\Temp\ccOskMVA.s 			page 47


1570:main.cpp      ****         trkEnvDecayMs[p]  = 140.0f + 980.0f * t;
1571:main.cpp      **** 
1572:main.cpp      ****         trkFilterType[p] = ((samplerFxStep & 3u) == 2u) ? FTYPE_BANDPASS : FTYPE_LOWPASS;
1573:main.cpp      ****         trkFilterCut[p]  = clampF(260.0f + 11200.0f * sweep, 20.0f, 18000.0f);
1574:main.cpp      ****         trkFilterQ[p]    = 0.75f + 2.1f * (1.0f - sweep);
1575:main.cpp      ****         trkFilter[p].SetType(trkFilterType[p], trkFilterCut[p], trkFilterQ[p], (float)SAMPLE_RATE);
1576:main.cpp      **** 
1577:main.cpp      ****         trkDistMode[p]   = (samplerFxStep & 1u) ? DMODE_TUBE : DMODE_SOFT;
1578:main.cpp      ****         trkDistDrive[p]  = clampF(0.10f + 0.60f * t, 0.0f, 1.0f);
1579:main.cpp      ****         trkBitDepth[p]   = (uint8_t)clampF(16.0f - 9.0f * t, 6.0f, 16.0f);
1580:main.cpp      **** 
1581:main.cpp      ****         trackReverbSend[p] = 0.10f + 0.35f * t;
1582:main.cpp      ****         trackDelaySend[p]  = 0.12f + 0.40f * (1.0f - t);
1583:main.cpp      ****         trackChorusSend[p] = 0.10f + 0.20f * sweep;
1584:main.cpp      ****         trackPanF[p]       = clampF(-0.8f + 1.6f * t, -1.0f, 1.0f);
1585:main.cpp      **** 
1586:main.cpp      ****         trkLfoActive[p] = true;
1587:main.cpp      ****         trkLfoWave[p]   = ((samplerFxStep & 1u) == 0u) ? LFO_WAVE_TRI : LFO_WAVE_SINE;
1588:main.cpp      ****         trkLfoTarget[p] = ((samplerFxStep & 3u) == 1u) ? LFO_TGT_PAN : LFO_TGT_FILTER;
1589:main.cpp      ****         trkLfoRate[p]   = 0.45f + 3.2f * t;
1590:main.cpp      ****         trkLfoDepth[p]  = 0.18f + 0.55f * (1.0f - t);
1591:main.cpp      **** 
1592:main.cpp      ****         uint8_t vel = (uint8_t)clampF(96.0f + 31.0f * sweep, 1.0f, 127.0f);
1593:main.cpp      ****         TriggerPad(p, vel, 100, 0, 0);
1594:main.cpp      **** 
1595:main.cpp      ****         samplerFxStep++;
1596:main.cpp      ****         nextMs = nowMs + kPauseSamplerFxMs;
1597:main.cpp      ****         if(samplerFxStep >= kSamplerFxSteps)
1598:main.cpp      ****         {
1599:main.cpp      ****             phase = PH_SYNTH_JAM;
1600:main.cpp      ****             synthJamStyle = 0;
1601:main.cpp      ****             synthJamStep = 0;
1602:main.cpp      ****             nextMs = nowMs + kPausePhaseMs;
1603:main.cpp      ****             QueueStartupSectionTag(SEC_TECHNO);
1604:main.cpp      ****         }
1605:main.cpp      ****         return;
1606:main.cpp      ****     }
1607:main.cpp      **** 
1608:main.cpp      ****     if(phase == PH_SYNTH_JAM)
1609:main.cpp      ****     {
1610:main.cpp      ****         const bool isTechno  = (synthJamStyle == 0);
1611:main.cpp      ****         const bool isElectro = (synthJamStyle == 1);
1612:main.cpp      ****         const bool isAmbient = (synthJamStyle == 2);
1613:main.cpp      **** 
1614:main.cpp      ****         const uint8_t styleSteps = isAmbient ? 24 : kSynthJamSteps;
1615:main.cpp      ****         const uint32_t jamPauseMs = isAmbient ? 190 : (isElectro ? 145 : kPauseSynthJamMs);
1616:main.cpp      **** 
1617:main.cpp      ****         delayActive = true;
1618:main.cpp      ****         reverbActive = true;
1619:main.cpp      ****         chorusActive = true;
1620:main.cpp      ****         tremoloActive = true;
1621:main.cpp      ****         if(isTechno){
1622:main.cpp      ****             delayMix = 0.16f + 0.08f * (0.5f + 0.5f * sinf(0.35f * (float)synthJamStep));
1623:main.cpp      ****             reverbMix = 0.20f + 0.10f * (0.5f + 0.5f * sinf(0.20f * (float)synthJamStep + 1.2f));
1624:main.cpp      ****             chorusMix = 0.14f + 0.08f * (0.5f + 0.5f * sinf(0.27f * (float)synthJamStep + 0.4f));
1625:main.cpp      ****             masterTremolo.SetFreq(3.0f + 2.2f * (0.5f + 0.5f * sinf(0.17f * (float)synthJamStep)));
1626:main.cpp      ****             masterTremolo.SetDepth(0.10f + 0.16f * (0.5f + 0.5f * sinf(0.19f * (float)synthJamStep 
ARM GAS  C:\Users\cesco\AppData\Local\Temp\ccOskMVA.s 			page 48


1627:main.cpp      ****         } else if(isElectro){
1628:main.cpp      ****             delayMix = 0.22f;
1629:main.cpp      ****             reverbMix = 0.14f;
1630:main.cpp      ****             chorusMix = 0.22f;
1631:main.cpp      ****             masterTremolo.SetFreq(5.0f);
1632:main.cpp      ****             masterTremolo.SetDepth(0.11f);
1633:main.cpp      ****             flangerActive = true;
1634:main.cpp      ****             flangerRate   = 0.55f;
1635:main.cpp      ****             flangerDepth  = 0.48f;
1636:main.cpp      ****             flangerMix    = 0.22f;
1637:main.cpp      ****         } else {
1638:main.cpp      ****             delayMix = 0.12f;
1639:main.cpp      ****             reverbMix = 0.34f;
1640:main.cpp      ****             chorusMix = 0.30f;
1641:main.cpp      ****             masterTremolo.SetFreq(1.6f);
1642:main.cpp      ****             masterTremolo.SetDepth(0.07f);
1643:main.cpp      ****             flangerActive = false;
1644:main.cpp      ****             masterReverb.SetLpFreq(6200.0f);
1645:main.cpp      ****             masterReverb.SetFeedback(0.90f);
1646:main.cpp      ****         }
1647:main.cpp      **** 
1648:main.cpp      ****         uint8_t st = synthJamStep & 15u;
1649:main.cpp      ****         if(isTechno){
1650:main.cpp      ****             if((st % 4u) == 0u) synth808.kick.Trigger(0.92f);
1651:main.cpp      ****             if(st == 4u || st == 12u) synth909.snare.Trigger(0.82f);
1652:main.cpp      ****             if((st % 2u) == 1u) synth505.hihatC.Trigger(0.48f);
1653:main.cpp      ****             if(st == 7u || st == 15u) synth505.clap.Trigger(0.64f);
1654:main.cpp      ****             if(st == 10u) synth909.ride.Trigger(0.52f);
1655:main.cpp      ****         } else if(isElectro){
1656:main.cpp      ****             if(st == 0u || st == 6u || st == 8u || st == 14u) synth909.kick.Trigger(0.90f);
1657:main.cpp      ****             if(st == 4u || st == 12u) synth505.snare.Trigger(0.72f);
1658:main.cpp      ****             if((st % 4u) == 2u) synth909.hihatO.Trigger(0.52f);
1659:main.cpp      ****             if((st % 2u) == 1u) synth505.hihatC.Trigger(0.40f);
1660:main.cpp      ****             if(st == 11u) synth505.cowbell.Trigger(0.58f);
1661:main.cpp      ****         } else {
1662:main.cpp      ****             if(st == 0u || st == 8u) synth808.kick.Trigger(0.66f);
1663:main.cpp      ****             if(st == 4u || st == 12u) synth808.clap.Trigger(0.48f);
1664:main.cpp      ****             if((st % 8u) == 6u) synth909.crash.Trigger(0.36f);
1665:main.cpp      ****             if((st % 4u) == 2u) synth505.hihatO.Trigger(0.34f);
1666:main.cpp      ****         }
1667:main.cpp      **** 
1668:main.cpp      ****         float u = (styleSteps <= 1)
1669:main.cpp      ****             ? 1.0f
1670:main.cpp      ****             : ((float)synthJamStep / (float)(styleSteps - 1));
1671:main.cpp      **** 
1672:main.cpp      ****         float acidCut = isTechno
1673:main.cpp      ****             ? (420.0f + 4400.0f * u + 900.0f * sinf(2.0f * (float)M_PI * (u * 1.5f)))
1674:main.cpp      ****             : (isElectro
1675:main.cpp      ****                 ? (700.0f + 3600.0f * (0.5f + 0.5f * sinf(0.30f * (float)synthJamStep)))
1676:main.cpp      ****                 : (260.0f + 2200.0f * (0.5f + 0.5f * sinf(0.18f * (float)synthJamStep))));
1677:main.cpp      ****         acidCut = clampF(acidCut,
1678:main.cpp      ****                                120.0f, 14000.0f);
1679:main.cpp      ****         acid303.SetCutoff(acidCut);
1680:main.cpp      ****         acid303.SetResonance(clampF(isAmbient
1681:main.cpp      ****             ? (0.35f + 0.22f * (0.5f + 0.5f * sinf(0.15f * (float)synthJamStep)))
1682:main.cpp      ****             : (0.45f + 0.40f * (0.5f + 0.5f * sinf(0.41f * (float)synthJamStep))), 0.1f, 0.94f));
1683:main.cpp      ****         acid303.SetEnvMod(clampF(isAmbient ? 0.30f : (0.38f + 0.55f * u), 0.0f, 1.0f));
ARM GAS  C:\Users\cesco\AppData\Local\Temp\ccOskMVA.s 			page 49


1684:main.cpp      ****         acid303.SetDecay(clampF(isAmbient ? 0.42f : (0.16f + 0.20f * (1.0f - u)), 0.02f, 3.0f));
1685:main.cpp      ****         acid303.SetAccent(clampF(isAmbient
1686:main.cpp      ****             ? 0.32f
1687:main.cpp      ****             : (0.48f + 0.42f * (0.5f + 0.5f * sinf(0.23f * (float)synthJamStep + 0.3f))), 0.0f, 1.0
1688:main.cpp      ****         acid303.SetSlide(clampF(isAmbient ? 0.11f : (0.03f + 0.08f * (0.5f + 0.5f * sinf(0.29f * (f
1689:main.cpp      ****         acid303.SetWaveform(isAmbient ? TB303::WAVE_SAW : ((synthJamStep & 8u) ? TB303::WAVE_SQUARE
1690:main.cpp      **** 
1691:main.cpp      ****         uint8_t n = isTechno ? jamNotes[st] : (isElectro ? jamNotesElectro[st] : jamNotesAmbient[st
1692:main.cpp      ****         if(n == 0u)
1693:main.cpp      ****         {
1694:main.cpp      ****             acid303.NoteOff();
1695:main.cpp      ****         }
1696:main.cpp      ****         else
1697:main.cpp      ****         {
1698:main.cpp      ****             bool accent = isAmbient ? ((st % 8u) == 0u)
1699:main.cpp      ****                                     : (((st & 3u) == 0u) || (st == 6u) || (st == 14u));
1700:main.cpp      ****             bool slide  = isAmbient ? ((st % 8u) == 7u)
1701:main.cpp      ****                                     : (((st & 7u) == 3u) || (st == 11u));
1702:main.cpp      ****             acid303.NoteOn(n, accent, slide);
1703:main.cpp      ****         }
1704:main.cpp      **** 
1705:main.cpp      ****         synthJamStep++;
1706:main.cpp      ****         nextMs = nowMs + jamPauseMs;
1707:main.cpp      ****         if(synthJamStep >= styleSteps)
1708:main.cpp      ****         {
1709:main.cpp      ****             acid303.NoteOff();
1710:main.cpp      ****             synthJamStep = 0;
1711:main.cpp      ****             synthJamStyle++;
1712:main.cpp      ****             if(synthJamStyle < 3){
1713:main.cpp      ****                 nextMs = nowMs + kPausePhaseMs;
1714:main.cpp      ****                 if(synthJamStyle == 1) QueueStartupSectionTag(SEC_ELECTRO);
1715:main.cpp      ****                 else                   QueueStartupSectionTag(SEC_AMBIENT);
1716:main.cpp      ****             } else {
1717:main.cpp      ****                 phase = PH_CLEANUP;
1718:main.cpp      ****                 nextMs = nowMs + 20;
1719:main.cpp      ****             }
1720:main.cpp      ****         }
1721:main.cpp      ****         return;
1722:main.cpp      ****     }
1723:main.cpp      **** 
1724:main.cpp      ****     if(phase == PH_CLEANUP)
1725:main.cpp      ****     {
1726:main.cpp      ****         delayActive = false;
1727:main.cpp      ****         reverbActive = false;
1728:main.cpp      ****         chorusActive = false;
1729:main.cpp      ****         tremoloActive = false;
1730:main.cpp      ****         flangerActive = false;
1731:main.cpp      **** 
1732:main.cpp      ****         for(int i = 0; i < MAX_PADS; i++)
1733:main.cpp      ****         {
1734:main.cpp      ****             trkFilterType[i] = 0;
1735:main.cpp      ****             trkFilter[i].Reset();
1736:main.cpp      ****             trkDistDrive[i] = 0.0f;
1737:main.cpp      ****             trkDistMode[i]  = DMODE_SOFT;
1738:main.cpp      ****             trkBitDepth[i]  = 16;
1739:main.cpp      ****             trackReverbSend[i] = 0.0f;
1740:main.cpp      ****             trackDelaySend[i]  = 0.0f;
ARM GAS  C:\Users\cesco\AppData\Local\Temp\ccOskMVA.s 			page 50


1741:main.cpp      ****             trackChorusSend[i] = 0.0f;
1742:main.cpp      ****             trackPanF[i]       = 0.0f;
1743:main.cpp      ****             trkLfoActive[i]    = false;
1744:main.cpp      ****             trkLfoDepth[i]     = 0.0f;
1745:main.cpp      ****             trkLfoPhase[i]     = 0.0f;
1746:main.cpp      ****             trkEnvAdActive[i]  = false;
1747:main.cpp      ****             trkEnvAttackMs[i]  = 1.0f;
1748:main.cpp      ****             trkEnvDecayMs[i]   = 250.0f;
1749:main.cpp      ****         }
1750:main.cpp      **** 
1751:main.cpp      ****         phase = PH_DONE;
1752:main.cpp      ****         return;
1753:main.cpp      ****     }
1754:main.cpp      **** }
1755:main.cpp      **** 
1756:main.cpp      **** static float MySoftClip(float x){
1757:main.cpp      ****     if(x >  1.5f) return  1.0f;
1758:main.cpp      ****     if(x < -1.5f) return -1.0f;
1759:main.cpp      ****     return x - (x*x*x)/6.75f;
1760:main.cpp      **** }
1761:main.cpp      **** 
1762:main.cpp      **** static float ApplyDist(float s, float drive, uint8_t mode){
1763:main.cpp      ****     if(drive < 0.01f) return s;
1764:main.cpp      ****     float d = 1.0f + drive * 15.0f;
1765:main.cpp      ****     s *= d;
1766:main.cpp      ****     switch(mode){
1767:main.cpp      ****         case DMODE_SOFT: s = MySoftClip(s); break;
1768:main.cpp      ****         case DMODE_HARD: s = clampF(s,-1.f,1.f); break;
1769:main.cpp      ****         case DMODE_TUBE: s = tanhf(s); break;
1770:main.cpp      ****         case DMODE_FUZZ:
1771:main.cpp      ****             while(s >  1.f || s < -1.f){
1772:main.cpp      ****                 if(s >  1.f) s =  2.f - s;
1773:main.cpp      ****                 if(s < -1.f) s = -2.f - s;
1774:main.cpp      ****             }
1775:main.cpp      ****             break;
1776:main.cpp      ****     }
1777:main.cpp      ****     return s / d * (1.f + drive * 0.5f);
1778:main.cpp      **** }
1779:main.cpp      **** 
1780:main.cpp      **** static float BitCrush(float s, uint8_t bits){
1781:main.cpp      ****     if(bits >= 16) return s;
1782:main.cpp      ****     float levels = (float)(1 << bits);
1783:main.cpp      ****     return roundf(s * levels) / levels;
1784:main.cpp      **** }
1785:main.cpp      **** 
1786:main.cpp      **** /* ŌĢÉŌĢÉŌĢÉŌĢÉŌĢÉŌĢÉŌĢÉŌĢÉŌĢÉŌĢÉŌĢÉŌĢÉŌĢÉŌĢÉŌĢÉŌĢÉŌĢÉŌĢÉŌĢÉŌĢÉŌĢÉŌĢÉŌĢÉŌĢÉŌĢÉŌĢÉŌĢÉŌĢÉŌĢÉŌĢÉŌĢÉŌĢÉ
1787:main.cpp      ****  *  20. TRIGGER
1788:main.cpp      ****  * ŌĢÉŌĢÉŌĢÉŌĢÉŌĢÉŌĢÉŌĢÉŌĢÉŌĢÉŌĢÉŌĢÉŌĢÉŌĢÉŌĢÉŌĢÉŌĢÉŌĢÉŌĢÉŌĢÉŌĢÉŌĢÉŌĢÉŌĢÉŌĢÉŌĢÉŌĢÉŌĢÉŌĢÉŌĢÉŌĢÉŌĢÉŌĢÉ
1789:main.cpp      **** static void TriggerPad(uint8_t pad, uint8_t velocity,
1790:main.cpp      ****                        uint8_t trkVol, int8_t pan,
1791:main.cpp      ****                        uint32_t maxSamples,
1792:main.cpp      ****                        float sourceVolume)
1793:main.cpp      **** {
 281              		.loc 1 1793 1 is_stmt 1 view -0
 282              		.cfi_startproc
 283              		@ args = 4, pretend = 0, frame = 8
 284              		@ frame_needed = 0, uses_anonymous_args = 0
ARM GAS  C:\Users\cesco\AppData\Local\Temp\ccOskMVA.s 			page 51


1794:main.cpp      ****     if(pad >= MAX_PADS || !sampleLoaded[pad]) return;
 285              		.loc 1 1794 5 view .LVU31
1793:main.cpp      ****     if(pad >= MAX_PADS || !sampleLoaded[pad]) return;
 286              		.loc 1 1793 1 is_stmt 0 view .LVU32
 287 0000 F0B5     		push	{r4, r5, r6, r7, lr}
 288              		.cfi_def_cfa_offset 20
 289              		.cfi_offset 4, -20
 290              		.cfi_offset 5, -16
 291              		.cfi_offset 6, -12
 292              		.cfi_offset 7, -8
 293              		.cfi_offset 14, -4
 294              		.loc 1 1794 5 view .LVU33
 295 0002 1728     		cmp	r0, #23
1793:main.cpp      ****     if(pad >= MAX_PADS || !sampleLoaded[pad]) return;
 296              		.loc 1 1793 1 view .LVU34
 297 0004 83B0     		sub	sp, sp, #12
 298              		.cfi_def_cfa_offset 32
1793:main.cpp      ****     if(pad >= MAX_PADS || !sampleLoaded[pad]) return;
 299              		.loc 1 1793 1 view .LVU35
 300 0006 089F     		ldr	r7, [sp, #32]
 301 0008 CDE90013 		strd	r1, r3, [sp]
 302              		.loc 1 1794 5 view .LVU36
 303 000c 00F2D080 		bhi	.L11
 304              		.loc 1 1794 44 discriminator 2 view .LVU37
 305 0010 A14B     		ldr	r3, .L72
 306              	.LVL10:
 307              		.loc 1 1794 24 discriminator 2 view .LVU38
 308 0012 1B5C     		ldrb	r3, [r3, r0]	@ zero_extendqisi2
 309 0014 002B     		cmp	r3, #0
 310 0016 00F0CB80 		beq	.L11
 311 001a A04D     		ldr	r5, .L72+4
 312              	.LBB1844:
1795:main.cpp      **** 
1796:main.cpp      ****     /* Find free slot or steal oldest */
1797:main.cpp      ****     int slot = -1;
1798:main.cpp      ****     for(int i = 0; i < MAX_VOICES; i++)
 313              		.loc 1 1798 13 view .LVU39
 314 001c 0024     		movs	r4, #0
 315              	.LBE1844:
1794:main.cpp      **** 
 316              		.loc 1 1794 24 discriminator 2 view .LVU40
 317 001e 2E46     		mov	r6, r5
 318 0020 2B46     		mov	r3, r5
 319 0022 03E0     		b	.L14
 320              	.LVL11:
 321              	.L66:
 322              	.LBB1845:
 323              		.loc 1 1798 5 discriminator 2 view .LVU41
 324 0024 0134     		adds	r4, r4, #1
 325              	.LVL12:
 326              		.loc 1 1798 22 is_stmt 1 discriminator 1 view .LVU42
 327 0026 202C     		cmp	r4, #32
 328 0028 00F00281 		beq	.L65
 329              	.LVL13:
 330              	.L14:
1799:main.cpp      ****         if(!voices[i].active){ slot = i; break; }
 331              		.loc 1 1799 9 view .LVU43
ARM GAS  C:\Users\cesco\AppData\Local\Temp\ccOskMVA.s 			page 52


1798:main.cpp      ****         if(!voices[i].active){ slot = i; break; }
 332              		.loc 1 1798 5 discriminator 2 view .LVU44
 333              		.loc 1 1799 9 is_stmt 0 view .LVU45
 334 002c 1978     		ldrb	r1, [r3]	@ zero_extendqisi2
1798:main.cpp      ****         if(!voices[i].active){ slot = i; break; }
 335              		.loc 1 1798 22 discriminator 1 view .LVU46
 336 002e 2C33     		adds	r3, r3, #44
 337              		.loc 1 1799 9 view .LVU47
 338 0030 0029     		cmp	r1, #0
 339 0032 F7D1     		bne	.L66
 340              	.LVL14:
 341              	.L13:
 342              		.loc 1 1799 9 view .LVU48
 343              	.LBE1845:
1800:main.cpp      **** 
1801:main.cpp      ****     if(slot < 0){
1802:main.cpp      ****         /* Voice stealing: prefer same pad, then oldest */
1803:main.cpp      ****         uint32_t oldest = UINT32_MAX; int best = 0;
1804:main.cpp      ****         for(int i = 0; i < MAX_VOICES; i++){
1805:main.cpp      ****             if(voices[i].pad == pad){ best = i; break; }
1806:main.cpp      ****             if(voices[i].age < oldest){ oldest = voices[i].age; best = i; }
1807:main.cpp      ****         }
1808:main.cpp      ****         slot = best;
1809:main.cpp      ****     }
1810:main.cpp      **** 
1811:main.cpp      ****     uint32_t len = sampleLength[pad];
 344              		.loc 1 1811 5 is_stmt 1 view .LVU49
 345              		.loc 1 1811 14 is_stmt 0 view .LVU50
 346 0034 9A4B     		ldr	r3, .L72+8
 347 0036 53F82030 		ldr	r3, [r3, r0, lsl #2]
 348              	.LVL15:
1812:main.cpp      ****     if(maxSamples > 0 && maxSamples < len) len = maxSamples;
 349              		.loc 1 1812 5 is_stmt 1 view .LVU51
 350 003a 002F     		cmp	r7, #0
 351 003c 00F0BA80 		beq	.L45
 352 0040 BB42     		cmp	r3, r7
 353 0042 40F2B780 		bls	.L45
 354              	.L17:
 355              	.LVL16:
1813:main.cpp      **** 
1814:main.cpp      ****     /* Guardar l├Łmite efectivo en la voz */
1815:main.cpp      ****     voices[slot].maxLen = len;
 356              		.loc 1 1815 5 view .LVU52
1816:main.cpp      **** 
1817:main.cpp      ****     float gain = (velocity / 127.0f)
 357              		.loc 1 1817 28 is_stmt 0 view .LVU53
 358 0046 DDED007A 		vldr.32	s15, [sp]	@ int
1815:main.cpp      **** 
 359              		.loc 1 1815 25 view .LVU54
 360 004a 2C21     		movs	r1, #44
 361              		.loc 1 1817 28 view .LVU55
 362 004c DFED956A 		vldr.32	s13, .L72+12
 363              	.LBB1846:
 364              	.LBB1847:
 365              	.LBB1848:
 366              	.LBB1849:
1221:main.cpp      **** }
ARM GAS  C:\Users\cesco\AppData\Local\Temp\ccOskMVA.s 			page 53


 367              		.loc 1 1221 34 discriminator 2 view .LVU56
 368 0050 962A     		cmp	r2, #150
 369              	.LBE1849:
 370              	.LBE1848:
 371              	.LBE1847:
 372              	.LBE1846:
 373              		.loc 1 1817 28 view .LVU57
 374 0052 B8EEE77A 		vcvt.f32.s32	s14, s15
1815:main.cpp      **** 
 375              		.loc 1 1815 25 view .LVU58
 376 0056 01FB0461 		mla	r1, r1, r4, r6
 377 005a 8F62     		str	r7, [r1, #40]
 378              		.loc 1 1817 5 is_stmt 1 view .LVU59
 379              	.LVL17:
 380              	.LBB1859:
 381              	.LBI1846:
1224:main.cpp      **** {
 382              		.loc 1 1224 21 view .LVU60
 383              	.LBB1856:
1226:main.cpp      **** }
 384              		.loc 1 1226 5 view .LVU61
 385              	.LBB1853:
 386              	.LBI1848:
1220:main.cpp      ****     return v < lo ? lo : (v > hi ? hi : v);
 387              		.loc 1 1220 21 view .LVU62
 388              	.LBB1850:
1221:main.cpp      **** }
 389              		.loc 1 1221 5 view .LVU63
 390              	.LBE1850:
 391              	.LBE1853:
 392              	.LBE1856:
 393              	.LBE1859:
 394              		.loc 1 1817 28 is_stmt 0 view .LVU64
 395 005c C7EE267A 		vdiv.f32	s15, s14, s13
 396              	.LBB1860:
 397              	.LBB1857:
 398              	.LBB1854:
 399              	.LBB1851:
1221:main.cpp      **** }
 400              		.loc 1 1221 34 discriminator 2 view .LVU65
 401 0060 00F2C180 		bhi	.L36
 402              	.LBE1851:
 403              	.LBE1854:
1226:main.cpp      **** }
 404              		.loc 1 1226 18 view .LVU66
 405 0064 07EE102A 		vmov	s14, r2	@ int
1226:main.cpp      **** }
 406              		.loc 1 1226 53 discriminator 1 view .LVU67
 407 0068 9FED8F6A 		vldr.32	s12, .L72+16
1226:main.cpp      **** }
 408              		.loc 1 1226 18 view .LVU68
 409 006c B8EE477A 		vcvt.f32.u32	s14, s14
1226:main.cpp      **** }
 410              		.loc 1 1226 53 discriminator 1 view .LVU69
 411 0070 C7EE066A 		vdiv.f32	s13, s14, s12
 412              	.L19:
 413              	.LVL18:
ARM GAS  C:\Users\cesco\AppData\Local\Temp\ccOskMVA.s 			page 54


1226:main.cpp      **** }
 414              		.loc 1 1226 53 discriminator 1 view .LVU70
 415              	.LBE1857:
 416              	.LBE1860:
1818:main.cpp      ****                * VolumeByteToGain(trkVol)
1819:main.cpp      ****                * trackGain[pad]
 417              		.loc 1 1819 31 view .LVU71
 418 0074 8D4A     		ldr	r2, .L72+20
 419              	.LVL19:
 420              		.loc 1 1819 31 view .LVU72
 421 0076 8100     		lsls	r1, r0, #2
 422 0078 02EB8002 		add	r2, r2, r0, lsl #2
 423              	.LBB1861:
 424              	.LBB1862:
1221:main.cpp      **** }
 425              		.loc 1 1221 19 view .LVU73
 426 007c B5EEC00A 		vcmpe.f32	s0, #0
 427              	.LBE1862:
 428              	.LBE1861:
 429              		.loc 1 1819 16 view .LVU74
 430 0080 92ED007A 		vldr.32	s14, [r2]
1818:main.cpp      ****                * VolumeByteToGain(trkVol)
 431              		.loc 1 1818 16 discriminator 1 view .LVU75
 432 0084 67EEA67A 		vmul.f32	s15, s15, s13
 433              	.LBB1866:
 434              	.LBB1863:
1221:main.cpp      **** }
 435              		.loc 1 1221 19 view .LVU76
 436 0088 F1EE10FA 		vmrs	APSR_nzcv, FPSCR
 437              	.LBE1863:
 438              	.LBE1866:
 439              		.loc 1 1819 16 view .LVU77
 440 008c 67EE877A 		vmul.f32	s15, s15, s14
 441              	.LVL20:
 442              	.LBB1867:
 443              	.LBI1861:
1220:main.cpp      ****     return v < lo ? lo : (v > hi ? hi : v);
 444              		.loc 1 1220 21 is_stmt 1 view .LVU78
 445              	.LBB1864:
1221:main.cpp      **** }
 446              		.loc 1 1221 5 view .LVU79
1221:main.cpp      **** }
 447              		.loc 1 1221 19 is_stmt 0 view .LVU80
 448 0090 00F1A680 		bmi	.L37
1221:main.cpp      **** }
 449              		.loc 1 1221 34 discriminator 2 view .LVU81
 450 0094 B7EE087A 		vmov.f32	s14, #1.5e+0
1221:main.cpp      **** }
 451              		.loc 1 1221 34 discriminator 4 view .LVU82
 452 0098 B4EE470A 		vcmp.f32	s0, s14
 453 009c F1EE10FA 		vmrs	APSR_nzcv, FPSCR
 454 00a0 37FE000A 		vselgt.f32	s0, s14, s0
 455              	.LVL21:
 456              	.L20:
1221:main.cpp      **** }
 457              		.loc 1 1221 34 discriminator 4 view .LVU83
 458              	.LBE1864:
ARM GAS  C:\Users\cesco\AppData\Local\Temp\ccOskMVA.s 			page 55


 459              	.LBE1867:
1820:main.cpp      ****                * clampF(sourceVolume, 0.0f, 1.5f);
1821:main.cpp      ****     float panF = trackPanF[pad] + (pan / 100.0f);
 460              		.loc 1 1821 40 view .LVU84
 461 00a4 9DED017A 		vldr.32	s14, [sp, #4]	@ int
 462              	.LBB1868:
 463              	.LBB1869:
1221:main.cpp      **** }
 464              		.loc 1 1221 19 view .LVU85
 465 00a8 BFEE006A 		vmov.f32	s12, #-1.0e+0
 466              	.LBE1869:
 467              	.LBE1868:
 468              		.loc 1 1821 40 view .LVU86
 469 00ac DFED7E5A 		vldr.32	s11, .L72+16
1820:main.cpp      ****                * clampF(sourceVolume, 0.0f, 1.5f);
 470              		.loc 1 1820 49 discriminator 1 view .LVU87
 471 00b0 67EE807A 		vmul.f32	s15, s15, s0
 472              	.LVL22:
 473              		.loc 1 1821 5 is_stmt 1 view .LVU88
 474              		.loc 1 1821 40 is_stmt 0 view .LVU89
 475 00b4 F8EEC76A 		vcvt.f32.s32	s13, s14
 476              		.loc 1 1821 31 view .LVU90
 477 00b8 7D4A     		ldr	r2, .L72+24
 478 00ba 0A44     		add	r2, r2, r1
 479              		.loc 1 1821 40 view .LVU91
 480 00bc 86EEA57A 		vdiv.f32	s14, s13, s11
 481              		.loc 1 1821 11 view .LVU92
 482 00c0 D2ED006A 		vldr.32	s13, [r2]
 483 00c4 37EE267A 		vadd.f32	s14, s14, s13
 484              	.LVL23:
1822:main.cpp      ****     panF = clampF(panF, -1.0f, 1.0f);
 485              		.loc 1 1822 5 is_stmt 1 view .LVU93
 486              	.LBB1872:
 487              	.LBI1868:
1220:main.cpp      ****     return v < lo ? lo : (v > hi ? hi : v);
 488              		.loc 1 1220 21 view .LVU94
 489              	.LBB1870:
1221:main.cpp      **** }
 490              		.loc 1 1221 5 view .LVU95
1221:main.cpp      **** }
 491              		.loc 1 1221 19 is_stmt 0 view .LVU96
 492 00c8 B4EEC67A 		vcmpe.f32	s14, s12
 493 00cc F1EE10FA 		vmrs	APSR_nzcv, FPSCR
 494 00d0 75D5     		bpl	.L61
 495              	.LBE1870:
 496              	.LBE1872:
1823:main.cpp      ****     float gL = gain * (1.0f - clampF(panF, 0.f, 1.f));
 497              		.loc 1 1823 53 discriminator 1 view .LVU97
 498 00d2 9FED787A 		vldr.32	s14, .L72+28
 499              	.LVL24:
 500              		.loc 1 1823 53 discriminator 1 view .LVU98
 501 00d6 27EE877A 		vmul.f32	s14, s15, s14
 502              	.LVL25:
 503              	.L24:
1824:main.cpp      ****     float gR = gain * (1.0f + clampF(panF, -1.f, 0.f));
1825:main.cpp      **** 
1826:main.cpp      ****     voices[slot].active = true;
ARM GAS  C:\Users\cesco\AppData\Local\Temp\ccOskMVA.s 			page 56


 504              		.loc 1 1826 5 is_stmt 1 view .LVU99
 505              		.loc 1 1826 25 is_stmt 0 view .LVU100
 506 00da 2C22     		movs	r2, #44
1827:main.cpp      ****     voices[slot].pad    = pad;
1828:main.cpp      ****     voices[slot].pos    = padReverse[pad] ? (float)(sampleLength[pad] - 1) : 0.0f;
 507              		.loc 1 1828 41 view .LVU101
 508 00dc 764D     		ldr	r5, .L72+32
1826:main.cpp      ****     voices[slot].pad    = pad;
 509              		.loc 1 1826 25 view .LVU102
 510 00de 04FB02F2 		mul	r2, r4, r2
 511              		.loc 1 1828 43 view .LVU103
 512 00e2 2D5C     		ldrb	r5, [r5, r0]	@ zero_extendqisi2
1826:main.cpp      ****     voices[slot].pad    = pad;
 513              		.loc 1 1826 25 view .LVU104
 514 00e4 B718     		adds	r7, r6, r2
 515              	.LVL26:
1827:main.cpp      ****     voices[slot].pad    = pad;
 516              		.loc 1 1827 25 view .LVU105
 517 00e6 7870     		strb	r0, [r7, #1]
1826:main.cpp      ****     voices[slot].pad    = pad;
 518              		.loc 1 1826 25 view .LVU106
 519 00e8 0127     		movs	r7, #1
 520 00ea B754     		strb	r7, [r6, r2]
1827:main.cpp      ****     voices[slot].pad    = pad;
 521              		.loc 1 1827 5 is_stmt 1 view .LVU107
 522              		.loc 1 1828 5 view .LVU108
 523              		.loc 1 1828 43 is_stmt 0 view .LVU109
 524 00ec 002D     		cmp	r5, #0
 525 00ee 63D0     		beq	.L39
 526              		.loc 1 1828 71 discriminator 1 view .LVU110
 527 00f0 013B     		subs	r3, r3, #1
 528              		.loc 1 1828 43 discriminator 1 view .LVU111
 529 00f2 06EE903A 		vmov	s13, r3	@ int
 530 00f6 F8EE666A 		vcvt.f32.u32	s13, s13
 531              	.L29:
1829:main.cpp      ****     voices[slot].speed  = padPitch[pad];
 532              		.loc 1 1829 39 view .LVU112
 533 00fa 704A     		ldr	r2, .L72+36
1828:main.cpp      ****     voices[slot].speed  = padPitch[pad];
 534              		.loc 1 1828 25 discriminator 4 view .LVU113
 535 00fc 2C23     		movs	r3, #44
 536              	.LVL27:
 537              		.loc 1 1829 39 view .LVU114
 538 00fe 0A44     		add	r2, r2, r1
1828:main.cpp      ****     voices[slot].speed  = padPitch[pad];
 539              		.loc 1 1828 25 discriminator 4 view .LVU115
 540 0100 03FB0463 		mla	r3, r3, r4, r6
 541              	.LVL28:
 542              		.loc 1 1829 25 view .LVU116
 543 0104 1268     		ldr	r2, [r2]	@ float
1828:main.cpp      ****     voices[slot].speed  = padPitch[pad];
 544              		.loc 1 1828 25 discriminator 4 view .LVU117
 545 0106 C3ED016A 		vstr.32	s13, [r3, #4]
 546              		.loc 1 1829 5 is_stmt 1 view .LVU118
 547              		.loc 1 1829 25 is_stmt 0 view .LVU119
 548 010a 9A60     		str	r2, [r3, #8]	@ float
1830:main.cpp      ****     voices[slot].gainL  = gL;
ARM GAS  C:\Users\cesco\AppData\Local\Temp\ccOskMVA.s 			page 57


 549              		.loc 1 1830 5 is_stmt 1 view .LVU120
1831:main.cpp      ****     voices[slot].gainR  = gR;
 550              		.loc 1 1831 5 view .LVU121
1832:main.cpp      ****     if(trkEnvAdActive[pad]){
 551              		.loc 1 1832 5 view .LVU122
 552              	.LBB1873:
 553              		.loc 1 1832 26 is_stmt 0 view .LVU123
 554 010c 6C4A     		ldr	r2, .L72+40
 555              	.LBE1873:
1830:main.cpp      ****     voices[slot].gainL  = gL;
 556              		.loc 1 1830 25 view .LVU124
 557 010e C3ED037A 		vstr.32	s15, [r3, #12]
 558              	.LBB1898:
 559              		.loc 1 1832 5 view .LVU125
 560 0112 125C     		ldrb	r2, [r2, r0]	@ zero_extendqisi2
 561              	.LBE1898:
1831:main.cpp      ****     voices[slot].gainR  = gR;
 562              		.loc 1 1831 25 view .LVU126
 563 0114 83ED047A 		vstr.32	s14, [r3, #16]
 564              	.LBB1899:
 565              		.loc 1 1832 5 view .LVU127
 566 0118 AAB3     		cbz	r2, .L30
 567              	.LBB1874:
1833:main.cpp      ****         float atkMs = clampF(trkEnvAttackMs[pad], 0.0f, 2000.0f);
 568              		.loc 1 1833 9 is_stmt 1 view .LVU128
 569              		.loc 1 1833 29 is_stmt 0 view .LVU129
 570 011a 6A4B     		ldr	r3, .L72+44
 571 011c 0B44     		add	r3, r3, r1
 572 011e D3ED007A 		vldr.32	s15, [r3]
 573              	.LVL29:
 574              	.LBB1875:
 575              	.LBI1875:
1220:main.cpp      ****     return v < lo ? lo : (v > hi ? hi : v);
 576              		.loc 1 1220 21 is_stmt 1 view .LVU130
 577              	.LBB1876:
1221:main.cpp      **** }
 578              		.loc 1 1221 5 view .LVU131
1221:main.cpp      **** }
 579              		.loc 1 1221 19 is_stmt 0 view .LVU132
 580 0122 F5EEC07A 		vcmpe.f32	s15, #0
 581 0126 F1EE10FA 		vmrs	APSR_nzcv, FPSCR
 582 012a 66D5     		bpl	.L67
 583              	.LVL30:
 584              	.L42:
1221:main.cpp      **** }
 585              		.loc 1 1221 19 view .LVU133
 586              	.LBE1876:
 587              	.LBE1875:
1834:main.cpp      ****         voices[slot].env = (atkMs <= 0.01f) ? 1.0f : 0.0f;
 588              		.loc 1 1834 26 discriminator 4 view .LVU134
 589 012c F7EE007A 		vmov.f32	s15, #1.0e+0
 590 0130 0125     		movs	r5, #1
1835:main.cpp      ****         voices[slot].envAttackInc = (atkMs <= 0.01f)
1836:main.cpp      ****             ? 1.0f
 591              		.loc 1 1836 13 discriminator 1 view .LVU135
 592 0132 F0EE676A 		vmov.f32	s13, s15
 593              	.L31:
ARM GAS  C:\Users\cesco\AppData\Local\Temp\ccOskMVA.s 			page 58


 594 0136 2C23     		movs	r3, #44
 595              	.LVL31:
 596              	.LBB1879:
 597              	.LBB1880:
 598              	.LBB1881:
 599              	.LBB1882:
1221:main.cpp      **** }
 600              		.loc 1 1221 19 view .LVU136
 601 0138 B7EE007A 		vmov.f32	s14, #1.0e+0
 602 013c 03FB0463 		mla	r3, r3, r4, r6
 603              	.LVL32:
1221:main.cpp      **** }
 604              		.loc 1 1221 19 view .LVU137
 605 0140 C3ED057A 		vstr.32	s15, [r3, #20]
 606              	.LBE1882:
 607              	.LBE1881:
 608              	.LBE1880:
 609              	.LBE1879:
1835:main.cpp      ****         voices[slot].envAttackInc = (atkMs <= 0.01f)
 610              		.loc 1 1835 35 view .LVU138
 611 0144 C3ED066A 		vstr.32	s13, [r3, #24]
1837:main.cpp      ****             : (1.0f / (atkMs * (float)SAMPLE_RATE * 0.001f));
1838:main.cpp      ****         voices[slot].envDecayCoef = AdDecayCoefFromMs(trkEnvDecayMs[pad]);
 612              		.loc 1 1838 9 is_stmt 1 view .LVU139
 613              		.loc 1 1838 54 is_stmt 0 view .LVU140
 614 0148 5F4B     		ldr	r3, .L72+48
 615 014a 0B44     		add	r3, r3, r1
 616 014c D3ED007A 		vldr.32	s15, [r3]
 617              	.LVL33:
 618              	.LBB1889:
 619              	.LBI1879:
1252:main.cpp      **** {
 620              		.loc 1 1252 21 is_stmt 1 view .LVU141
 621              	.LBB1887:
1254:main.cpp      ****     return expf(-1.0f / samples);
 622              		.loc 1 1254 5 view .LVU142
 623              	.LBB1885:
 624              	.LBI1881:
1220:main.cpp      ****     return v < lo ? lo : (v > hi ? hi : v);
 625              		.loc 1 1220 21 view .LVU143
 626              	.LBB1883:
1221:main.cpp      **** }
 627              		.loc 1 1221 5 view .LVU144
1221:main.cpp      **** }
 628              		.loc 1 1221 19 is_stmt 0 view .LVU145
 629 0150 F4EEC77A 		vcmpe.f32	s15, s14
 630 0154 F1EE10FA 		vmrs	APSR_nzcv, FPSCR
 631 0158 7ED4     		bmi	.L43
1221:main.cpp      **** }
 632              		.loc 1 1221 34 discriminator 2 view .LVU146
 633 015a 9FED5C7A 		vldr.32	s14, .L72+52
 634 015e F4EEC77A 		vcmpe.f32	s15, s14
 635 0162 F1EE10FA 		vmrs	APSR_nzcv, FPSCR
 636 0166 7ADC     		bgt	.L44
 637              	.LBE1883:
 638              	.LBE1885:
1254:main.cpp      ****     return expf(-1.0f / samples);
ARM GAS  C:\Users\cesco\AppData\Local\Temp\ccOskMVA.s 			page 59


 639              		.loc 1 1254 52 discriminator 1 view .LVU147
 640 0168 9FED596A 		vldr.32	s12, .L72+56
1255:main.cpp      **** }
 641              		.loc 1 1255 16 view .LVU148
 642 016c BFEE007A 		vmov.f32	s14, #-1.0e+0
1254:main.cpp      ****     return expf(-1.0f / samples);
 643              		.loc 1 1254 75 discriminator 1 view .LVU149
 644 0170 DFED586A 		vldr.32	s13, .L72+60
1254:main.cpp      ****     return expf(-1.0f / samples);
 645              		.loc 1 1254 52 discriminator 1 view .LVU150
 646 0174 67EE867A 		vmul.f32	s15, s15, s12
 647              	.LVL34:
1254:main.cpp      ****     return expf(-1.0f / samples);
 648              		.loc 1 1254 75 discriminator 1 view .LVU151
 649 0178 67EEA67A 		vmul.f32	s15, s15, s13
1255:main.cpp      **** }
 650              		.loc 1 1255 16 view .LVU152
 651 017c 87EE270A 		vdiv.f32	s0, s14, s15
 652              	.L33:
 653              	.LVL35:
1255:main.cpp      **** }
 654              		.loc 1 1255 5 is_stmt 1 view .LVU153
1255:main.cpp      **** }
 655              		.loc 1 1255 16 is_stmt 0 view .LVU154
 656 0180 FFF7FEFF 		bl	expf
 657              	.LVL36:
1255:main.cpp      **** }
 658              		.loc 1 1255 16 view .LVU155
 659              	.LBE1887:
 660              	.LBE1889:
1839:main.cpp      ****         voices[slot].envStage = (atkMs <= 0.01f) ? 1 : 0;
 661              		.loc 1 1839 9 is_stmt 1 view .LVU156
 662              	.LBE1874:
 663 0184 08E0     		b	.L34
 664              	.LVL37:
 665              	.L30:
1840:main.cpp      ****     } else {
1841:main.cpp      ****         voices[slot].env = 1.0f;
 666              		.loc 1 1841 9 view .LVU157
 667              		.loc 1 1841 26 is_stmt 0 view .LVU158
 668 0186 F7EE007A 		vmov.f32	s15, #1.0e+0
1842:main.cpp      ****         voices[slot].envAttackInc = 1.0f;
 669              		.loc 1 1842 35 view .LVU159
 670 018a 0225     		movs	r5, #2
 671 018c B0EE670A 		vmov.f32	s0, s15
1841:main.cpp      ****         voices[slot].envAttackInc = 1.0f;
 672              		.loc 1 1841 26 view .LVU160
 673 0190 C3ED057A 		vstr.32	s15, [r3, #20]
 674              		.loc 1 1842 9 is_stmt 1 view .LVU161
 675              		.loc 1 1842 35 is_stmt 0 view .LVU162
 676 0194 C3ED067A 		vstr.32	s15, [r3, #24]
1843:main.cpp      ****         voices[slot].envDecayCoef = 1.0f;
 677              		.loc 1 1843 9 is_stmt 1 view .LVU163
1844:main.cpp      ****         voices[slot].envStage = 2;
 678              		.loc 1 1844 9 view .LVU164
 679              	.LVL38:
 680              	.L34:
ARM GAS  C:\Users\cesco\AppData\Local\Temp\ccOskMVA.s 			page 60


 681              		.loc 1 1844 9 is_stmt 0 view .LVU165
 682              	.LBE1899:
1845:main.cpp      ****     }
1846:main.cpp      ****     voices[slot].age    = voiceAge++;
 683              		.loc 1 1846 35 view .LVU166
 684 0198 4F4B     		ldr	r3, .L72+64
 685              	.LBB1900:
 686              	.LBB1893:
1838:main.cpp      ****         voices[slot].envStage = (atkMs <= 0.01f) ? 1 : 0;
 687              		.loc 1 1838 35 discriminator 1 view .LVU167
 688 019a 2C22     		movs	r2, #44
 689 019c 02FB0466 		mla	r6, r2, r4, r6
 690              	.LBE1893:
 691              	.LBE1900:
 692              		.loc 1 1846 35 view .LVU168
 693 01a0 1A68     		ldr	r2, [r3]
 694 01a2 511C     		adds	r1, r2, #1
 695              	.LBB1901:
 696              	.LBB1894:
1838:main.cpp      ****         voices[slot].envStage = (atkMs <= 0.01f) ? 1 : 0;
 697              		.loc 1 1838 35 discriminator 1 view .LVU169
 698 01a4 86ED070A 		vstr.32	s0, [r6, #28]
1839:main.cpp      ****     } else {
 699              		.loc 1 1839 31 discriminator 4 view .LVU170
 700 01a8 86F82050 		strb	r5, [r6, #32]
 701              	.LBE1894:
 702              	.LBE1901:
 703              		.loc 1 1846 5 is_stmt 1 view .LVU171
 704              		.loc 1 1846 25 is_stmt 0 view .LVU172
 705 01ac 7262     		str	r2, [r6, #36]
 706              		.loc 1 1846 35 view .LVU173
 707 01ae 1960     		str	r1, [r3]
 708              	.LVL39:
 709              	.L11:
1847:main.cpp      **** }
 710              		.loc 1 1847 1 view .LVU174
 711 01b0 03B0     		add	sp, sp, #12
 712              		.cfi_remember_state
 713              		.cfi_def_cfa_offset 20
 714              	.LVL40:
 715              		.loc 1 1847 1 view .LVU175
 716              		@ sp needed
 717 01b2 F0BD     		pop	{r4, r5, r6, r7, pc}
 718              	.LVL41:
 719              	.L45:
 720              		.cfi_restore_state
1811:main.cpp      ****     if(maxSamples > 0 && maxSamples < len) len = maxSamples;
 721              		.loc 1 1811 14 view .LVU176
 722 01b4 1F46     		mov	r7, r3
 723 01b6 46E7     		b	.L17
 724              	.LVL42:
 725              	.L39:
1828:main.cpp      ****     voices[slot].speed  = padPitch[pad];
 726              		.loc 1 1828 43 discriminator 2 view .LVU177
 727 01b8 DFED3E6A 		vldr.32	s13, .L72+28
 728 01bc 9DE7     		b	.L29
 729              	.LVL43:
ARM GAS  C:\Users\cesco\AppData\Local\Temp\ccOskMVA.s 			page 61


 730              	.L61:
 731              	.LBB1902:
 732              	.LBB1871:
1221:main.cpp      **** }
 733              		.loc 1 1221 34 discriminator 2 view .LVU178
 734 01be F7EE006A 		vmov.f32	s13, #1.0e+0
 735 01c2 B4EEE67A 		vcmpe.f32	s14, s13
 736 01c6 F1EE10FA 		vmrs	APSR_nzcv, FPSCR
 737 01ca 0FDC     		bgt	.L68
 738              	.LVL44:
1221:main.cpp      **** }
 739              		.loc 1 1221 34 discriminator 2 view .LVU179
 740              	.LBE1871:
 741              	.LBE1902:
1823:main.cpp      ****     float gR = gain * (1.0f + clampF(panF, -1.f, 0.f));
 742              		.loc 1 1823 5 is_stmt 1 view .LVU180
 743              	.LBB1903:
 744              	.LBI1903:
1220:main.cpp      ****     return v < lo ? lo : (v > hi ? hi : v);
 745              		.loc 1 1220 21 view .LVU181
 746              	.LBB1904:
1221:main.cpp      **** }
 747              		.loc 1 1221 5 view .LVU182
1221:main.cpp      **** }
 748              		.loc 1 1221 19 is_stmt 0 view .LVU183
 749 01cc B5EEC07A 		vcmpe.f32	s14, #0
 750 01d0 F1EE10FA 		vmrs	APSR_nzcv, FPSCR
 751 01d4 46D5     		bpl	.L63
 752              	.LBE1904:
 753              	.LBE1903:
1824:main.cpp      **** 
 754              		.loc 1 1824 29 discriminator 1 view .LVU184
 755 01d6 37EE267A 		vadd.f32	s14, s14, s13
 756              	.LVL45:
1824:main.cpp      **** 
 757              		.loc 1 1824 54 discriminator 1 view .LVU185
 758 01da 27EE277A 		vmul.f32	s14, s14, s15
 759 01de 7CE7     		b	.L24
 760              	.LVL46:
 761              	.L37:
 762              	.LBB1905:
 763              	.LBB1865:
1221:main.cpp      **** }
 764              		.loc 1 1221 19 discriminator 1 view .LVU186
 765 01e0 9FED340A 		vldr.32	s0, .L72+28
 766              	.LVL47:
1221:main.cpp      **** }
 767              		.loc 1 1221 19 discriminator 1 view .LVU187
 768 01e4 5EE7     		b	.L20
 769              	.LVL48:
 770              	.L36:
1221:main.cpp      **** }
 771              		.loc 1 1221 19 discriminator 1 view .LVU188
 772              	.LBE1865:
 773              	.LBE1905:
 774              	.LBB1906:
 775              	.LBB1858:
ARM GAS  C:\Users\cesco\AppData\Local\Temp\ccOskMVA.s 			page 62


 776              	.LBB1855:
 777              	.LBB1852:
 778 01e6 F7EE086A 		vmov.f32	s13, #1.5e+0
 779 01ea 43E7     		b	.L19
 780              	.LVL49:
 781              	.L68:
1221:main.cpp      **** }
 782              		.loc 1 1221 19 discriminator 1 view .LVU189
 783              	.LBE1852:
 784              	.LBE1855:
 785              	.LBE1858:
 786              	.LBE1906:
1823:main.cpp      ****     float gR = gain * (1.0f + clampF(panF, -1.f, 0.f));
 787              		.loc 1 1823 53 discriminator 1 view .LVU190
 788 01ec DFED316A 		vldr.32	s13, .L72+28
 789              	.LVL50:
1824:main.cpp      **** 
 790              		.loc 1 1824 5 is_stmt 1 view .LVU191
 791              	.LBB1907:
 792              	.LBI1907:
1220:main.cpp      ****     return v < lo ? lo : (v > hi ? hi : v);
 793              		.loc 1 1220 21 view .LVU192
 794              	.LBB1908:
1221:main.cpp      **** }
 795              		.loc 1 1221 5 view .LVU193
 796              	.LBE1908:
 797              	.LBE1907:
1823:main.cpp      ****     float gR = gain * (1.0f + clampF(panF, -1.f, 0.f));
 798              		.loc 1 1823 53 is_stmt 0 discriminator 1 view .LVU194
 799 01f0 B0EE677A 		vmov.f32	s14, s15
 800 01f4 67EEA67A 		vmul.f32	s15, s15, s13
 801              	.LVL51:
1823:main.cpp      ****     float gR = gain * (1.0f + clampF(panF, -1.f, 0.f));
 802              		.loc 1 1823 53 discriminator 1 view .LVU195
 803 01f8 6FE7     		b	.L24
 804              	.LVL52:
 805              	.L67:
 806              	.LBB1910:
 807              	.LBB1895:
 808              	.LBB1890:
 809              	.LBB1877:
1221:main.cpp      **** }
 810              		.loc 1 1221 34 discriminator 2 view .LVU196
 811 01fa 9FED387A 		vldr.32	s14, .L72+68
 812 01fe F4EEC77A 		vcmpe.f32	s15, s14
 813 0202 F1EE10FA 		vmrs	APSR_nzcv, FPSCR
 814 0206 37DC     		bgt	.L41
 815              	.LVL53:
1221:main.cpp      **** }
 816              		.loc 1 1221 34 discriminator 2 view .LVU197
 817              	.LBE1877:
 818              	.LBE1890:
1834:main.cpp      ****         voices[slot].envAttackInc = (atkMs <= 0.01f)
 819              		.loc 1 1834 9 is_stmt 1 view .LVU198
1834:main.cpp      ****         voices[slot].envAttackInc = (atkMs <= 0.01f)
 820              		.loc 1 1834 45 is_stmt 0 view .LVU199
 821 0208 9FED357A 		vldr.32	s14, .L72+72
ARM GAS  C:\Users\cesco\AppData\Local\Temp\ccOskMVA.s 			page 63


 822 020c F4EEC77A 		vcmpe.f32	s15, s14
 823 0210 F1EE10FA 		vmrs	APSR_nzcv, FPSCR
 824 0214 8AD9     		bls	.L42
1837:main.cpp      ****         voices[slot].envDecayCoef = AdDecayCoefFromMs(trkEnvDecayMs[pad]);
 825              		.loc 1 1837 30 view .LVU200
 826 0216 9FED2E6A 		vldr.32	s12, .L72+56
1836:main.cpp      ****             : (1.0f / (atkMs * (float)SAMPLE_RATE * 0.001f));
 827              		.loc 1 1836 13 discriminator 2 view .LVU201
 828 021a B7EE007A 		vmov.f32	s14, #1.0e+0
1837:main.cpp      ****         voices[slot].envDecayCoef = AdDecayCoefFromMs(trkEnvDecayMs[pad]);
 829              		.loc 1 1837 51 view .LVU202
 830 021e DFED2D6A 		vldr.32	s13, .L72+60
1837:main.cpp      ****         voices[slot].envDecayCoef = AdDecayCoefFromMs(trkEnvDecayMs[pad]);
 831              		.loc 1 1837 30 view .LVU203
 832 0222 67EE867A 		vmul.f32	s15, s15, s12
 833              	.LVL54:
1837:main.cpp      ****         voices[slot].envDecayCoef = AdDecayCoefFromMs(trkEnvDecayMs[pad]);
 834              		.loc 1 1837 51 view .LVU204
 835 0226 67EEA67A 		vmul.f32	s15, s15, s13
1836:main.cpp      ****             : (1.0f / (atkMs * (float)SAMPLE_RATE * 0.001f));
 836              		.loc 1 1836 13 discriminator 2 view .LVU205
 837 022a C7EE276A 		vdiv.f32	s13, s14, s15
 838 022e 25E0     		b	.L32
 839              	.LVL55:
 840              	.L65:
1836:main.cpp      ****             : (1.0f / (atkMs * (float)SAMPLE_RATE * 0.001f));
 841              		.loc 1 1836 13 discriminator 2 view .LVU206
 842              	.LBE1895:
 843              	.LBE1910:
 844              	.LBB1911:
 845 0230 0024     		movs	r4, #0
 846              	.LVL56:
1836:main.cpp      ****             : (1.0f / (atkMs * (float)SAMPLE_RATE * 0.001f));
 847              		.loc 1 1836 13 discriminator 2 view .LVU207
 848 0232 4FF0FF33 		mov	r3, #-1
 849 0236 A446     		mov	ip, r4
 850 0238 0AE0     		b	.L16
 851              	.LVL57:
 852              	.L70:
1836:main.cpp      ****             : (1.0f / (atkMs * (float)SAMPLE_RATE * 0.001f));
 853              		.loc 1 1836 13 discriminator 2 view .LVU208
 854              	.LBE1911:
 855              	.LBB1912:
 856              	.LBB1913:
1806:main.cpp      ****         }
 857              		.loc 1 1806 26 view .LVU209
 858 023a 696A     		ldr	r1, [r5, #36]
1804:main.cpp      ****             if(voices[i].pad == pad){ best = i; break; }
 859              		.loc 1 1804 26 discriminator 1 view .LVU210
 860 023c 2C35     		adds	r5, r5, #44
1806:main.cpp      ****         }
 861              		.loc 1 1806 48 discriminator 1 view .LVU211
 862 023e 9942     		cmp	r1, r3
 863 0240 38BF     		it	cc
 864 0242 A446     		movcc	ip, r4
 865              	.LVL58:
1804:main.cpp      ****             if(voices[i].pad == pad){ best = i; break; }
ARM GAS  C:\Users\cesco\AppData\Local\Temp\ccOskMVA.s 			page 64


 866              		.loc 1 1804 9 discriminator 2 view .LVU212
 867 0244 04F10104 		add	r4, r4, #1
 868              	.LVL59:
1806:main.cpp      ****         }
 869              		.loc 1 1806 48 discriminator 1 view .LVU213
 870 0248 38BF     		it	cc
 871 024a 0B46     		movcc	r3, r1
 872              	.LVL60:
1804:main.cpp      ****             if(voices[i].pad == pad){ best = i; break; }
 873              		.loc 1 1804 9 is_stmt 1 discriminator 2 view .LVU214
1804:main.cpp      ****             if(voices[i].pad == pad){ best = i; break; }
 874              		.loc 1 1804 26 discriminator 1 view .LVU215
 875 024c 202C     		cmp	r4, #32
 876 024e 20D0     		beq	.L69
 877              	.LVL61:
 878              	.L16:
1805:main.cpp      ****             if(voices[i].age < oldest){ oldest = voices[i].age; best = i; }
 879              		.loc 1 1805 13 view .LVU216
1806:main.cpp      ****         }
 880              		.loc 1 1806 13 view .LVU217
1805:main.cpp      ****             if(voices[i].age < oldest){ oldest = voices[i].age; best = i; }
 881              		.loc 1 1805 13 is_stmt 0 view .LVU218
 882 0250 6978     		ldrb	r1, [r5, #1]	@ zero_extendqisi2
 883 0252 8142     		cmp	r1, r0
 884 0254 F1D1     		bne	.L70
 885 0256 EDE6     		b	.L13
 886              	.LVL62:
 887              	.L43:
1805:main.cpp      ****             if(voices[i].age < oldest){ oldest = voices[i].age; best = i; }
 888              		.loc 1 1805 13 view .LVU219
 889              	.LBE1913:
 890              	.LBE1912:
 891              	.LBB1915:
 892              	.LBB1896:
 893              	.LBB1891:
 894              	.LBB1888:
 895              	.LBB1886:
 896              	.LBB1884:
 897 0258 9FED220A 		vldr.32	s0, .L72+76
 898 025c 90E7     		b	.L33
 899              	.L44:
 900 025e 9FED220A 		vldr.32	s0, .L72+80
 901 0262 8DE7     		b	.L33
 902              	.LVL63:
 903              	.L63:
1805:main.cpp      ****             if(voices[i].age < oldest){ oldest = voices[i].age; best = i; }
 904              		.loc 1 1805 13 view .LVU220
 905              	.LBE1884:
 906              	.LBE1886:
 907              	.LBE1888:
 908              	.LBE1891:
 909              	.LBE1896:
 910              	.LBE1915:
1823:main.cpp      ****     float gR = gain * (1.0f + clampF(panF, -1.f, 0.f));
 911              		.loc 1 1823 29 discriminator 1 view .LVU221
 912 0264 36EEC76A 		vsub.f32	s12, s13, s14
1823:main.cpp      ****     float gR = gain * (1.0f + clampF(panF, -1.f, 0.f));
ARM GAS  C:\Users\cesco\AppData\Local\Temp\ccOskMVA.s 			page 65


 913              		.loc 1 1823 53 discriminator 1 view .LVU222
 914 0268 26EE276A 		vmul.f32	s12, s12, s15
 915              	.LVL64:
1824:main.cpp      **** 
 916              		.loc 1 1824 5 is_stmt 1 view .LVU223
 917              	.LBB1916:
1220:main.cpp      ****     return v < lo ? lo : (v > hi ? hi : v);
 918              		.loc 1 1220 21 view .LVU224
 919              	.LBB1909:
1221:main.cpp      **** }
 920              		.loc 1 1221 5 view .LVU225
1221:main.cpp      **** }
 921              		.loc 1 1221 34 is_stmt 0 discriminator 2 view .LVU226
 922 026c 0ADD     		ble	.L71
 923 026e B0EE677A 		vmov.f32	s14, s15
 924              	.LVL65:
1221:main.cpp      **** }
 925              		.loc 1 1221 34 discriminator 2 view .LVU227
 926 0272 F0EE467A 		vmov.f32	s15, s12
 927              	.LVL66:
1221:main.cpp      **** }
 928              		.loc 1 1221 34 discriminator 2 view .LVU228
 929 0276 30E7     		b	.L24
 930              	.LVL67:
 931              	.L41:
1221:main.cpp      **** }
 932              		.loc 1 1221 34 discriminator 2 view .LVU229
 933              	.LBE1909:
 934              	.LBE1916:
 935              	.LBB1917:
 936              	.LBB1897:
 937              	.LBB1892:
 938              	.LBB1878:
 939 0278 DFED1C6A 		vldr.32	s13, .L72+84
 940              	.LVL68:
 941              	.L32:
1221:main.cpp      **** }
 942              		.loc 1 1221 34 discriminator 2 view .LVU230
 943              	.LBE1878:
 944              	.LBE1892:
1835:main.cpp      ****             ? 1.0f
 945              		.loc 1 1835 9 is_stmt 1 view .LVU231
1836:main.cpp      ****             : (1.0f / (atkMs * (float)SAMPLE_RATE * 0.001f));
 946              		.loc 1 1836 13 is_stmt 0 discriminator 1 view .LVU232
 947 027c 0025     		movs	r5, #0
1834:main.cpp      ****         voices[slot].envAttackInc = (atkMs <= 0.01f)
 948              		.loc 1 1834 26 discriminator 4 view .LVU233
 949 027e DFED0D7A 		vldr.32	s15, .L72+28
 950 0282 58E7     		b	.L31
 951              	.LVL69:
 952              	.L71:
1834:main.cpp      ****         voices[slot].envAttackInc = (atkMs <= 0.01f)
 953              		.loc 1 1834 26 discriminator 4 view .LVU234
 954              	.LBE1897:
 955              	.LBE1917:
1824:main.cpp      **** 
 956              		.loc 1 1824 29 discriminator 1 view .LVU235
ARM GAS  C:\Users\cesco\AppData\Local\Temp\ccOskMVA.s 			page 66


 957 0284 37EE267A 		vadd.f32	s14, s14, s13
 958              	.LVL70:
1824:main.cpp      **** 
 959              		.loc 1 1824 54 discriminator 1 view .LVU236
 960 0288 27EE277A 		vmul.f32	s14, s14, s15
 961 028c F0EE467A 		vmov.f32	s15, s12
 962              	.LVL71:
1824:main.cpp      **** 
 963              		.loc 1 1824 54 discriminator 1 view .LVU237
 964 0290 23E7     		b	.L24
 965              	.LVL72:
 966              	.L69:
 967              	.LBB1918:
 968              	.LBB1914:
1824:main.cpp      **** 
 969              		.loc 1 1824 54 discriminator 1 view .LVU238
 970 0292 6446     		mov	r4, ip
 971              	.LVL73:
1824:main.cpp      **** 
 972              		.loc 1 1824 54 discriminator 1 view .LVU239
 973 0294 CEE6     		b	.L13
 974              	.L73:
 975 0296 00BF     		.align	2
 976              	.L72:
 977 0298 00000000 		.word	_ZL12sampleLoaded
 978 029c 00000000 		.word	_ZL6voices
 979 02a0 00000000 		.word	_ZL12sampleLength
 980 02a4 0000FE42 		.word	1123942400
 981 02a8 0000C842 		.word	1120403456
 982 02ac 00000000 		.word	_ZL9trackGain
 983 02b0 00000000 		.word	_ZL9trackPanF
 984 02b4 00000000 		.word	0
 985 02b8 00000000 		.word	_ZL10padReverse
 986 02bc 00000000 		.word	_ZL8padPitch
 987 02c0 00000000 		.word	_ZL14trkEnvAdActive
 988 02c4 00000000 		.word	_ZL14trkEnvAttackMs
 989 02c8 00000000 		.word	_ZL13trkEnvDecayMs
 990 02cc 0000FA45 		.word	1174011904
 991 02d0 00803B47 		.word	1195081728
 992 02d4 6F12833A 		.word	981668463
 993 02d8 00000000 		.word	_ZL8voiceAge
 994 02dc 0000FA44 		.word	1157234688
 995 02e0 0AD7233C 		.word	1008981770
 996 02e4 AAAAAABC 		.word	-1129665878
 997 02e8 3DC32EB6 		.word	-1238449347
 998 02ec 3DC32E37 		.word	925811517
 999              	.LBE1914:
 1000              	.LBE1918:
 1001              		.cfi_endproc
 1002              	.LFE5443:
 1004              		.section	.text._ZL9isWavFilePKc,"ax",%progbits
 1005              		.align	1
 1006              		.p2align 2,,3
 1007              		.syntax unified
 1008              		.thumb
 1009              		.thumb_func
 1011              	_ZL9isWavFilePKc:
ARM GAS  C:\Users\cesco\AppData\Local\Temp\ccOskMVA.s 			page 67


 1012              	.LVL74:
 1013              	.LFB5459:
1848:main.cpp      **** 
1849:main.cpp      **** static uint8_t ActiveVoices(){
1850:main.cpp      ****     uint8_t c = 0;
1851:main.cpp      ****     for(int i = 0; i < MAX_VOICES; i++) if(voices[i].active) c++;
1852:main.cpp      ****     return c;
1853:main.cpp      **** }
1854:main.cpp      **** 
1855:main.cpp      **** /* ŌöĆŌöĆŌöĆ Daisy Sequencer: fire all active steps for the current step index ŌöĆŌöĆŌöĆ
1856:main.cpp      ****  * Called from inside AudioCallback ŌĆö sample-accurate, zero SPI latency.
1857:main.cpp      ****  * TriggerPad() is safe to call here: it modifies voices[] before the
1858:main.cpp      ****  * per-voice render loop of the SAME sample iteration.                         */
1859:main.cpp      **** static void DsqFireStep() {
1860:main.cpp      ****     uint8_t pat  = dseq.currentPattern;
1861:main.cpp      ****     uint8_t slen = dseq.patternLength;
1862:main.cpp      ****     uint8_t step = (uint8_t)((dseq.currentStep % (int)slen + (int)slen) % (int)slen);
1863:main.cpp      **** 
1864:main.cpp      ****     for(int t = 0; t < DSQ_TRACKS; t++){
1865:main.cpp      ****         if(dseq.trackMuted[t]) continue;
1866:main.cpp      ****         DsqStepFull& s = dsqSteps[pat][t][step];
1867:main.cpp      ****         if(!s.active || s.velocity == 0) continue;
1868:main.cpp      **** 
1869:main.cpp      ****         int8_t  eng     = dsqTrackEngine[t];
1870:main.cpp      ****         bool    isSynth = (eng >= 0 && eng <= 3);
1871:main.cpp      **** 
1872:main.cpp      ****         /* Tracks de sampler: verificar que hay muestra cargada */
1873:main.cpp      ****         if(!isSynth && !sampleLoaded[t]) continue;
1874:main.cpp      **** 
1875:main.cpp      ****         /* Probability gate */
1876:main.cpp      ****         if(s.probability < 100){
1877:main.cpp      ****             if((uint8_t)(FastRand() % 100) >= s.probability) continue;
1878:main.cpp      ****         }
1879:main.cpp      **** 
1880:main.cpp      ****         float vel = s.velocity / 127.0f;
1881:main.cpp      **** 
1882:main.cpp      ****         if(!isSynth){
1883:main.cpp      ****             /* ŌöĆŌöĆ SAMPLER TRACK ŌöĆŌöĆ */
1884:main.cpp      ****             uint32_t maxS = 0;
1885:main.cpp      ****             if(s.noteLenDiv >= 2){
1886:main.cpp      ****                 float stepSec = 60.0f / (dseq.tempo * 4.0f);
1887:main.cpp      ****                 float noteSec = stepSec * (4.0f / (float)s.noteLenDiv);
1888:main.cpp      ****                 maxS = (uint32_t)(noteSec * (float)SAMPLE_RATE);
1889:main.cpp      ****             }
1890:main.cpp      ****             /* Param locks (solo aplican a tracks de sampler) */
1891:main.cpp      ****             if(s.cutoffEn){
1892:main.cpp      ****                 float f = clampF((float)s.cutoffHz, 20.f, 20000.f);
1893:main.cpp      ****                 trkFilter[t].SetType(FTYPE_LOWPASS, f, trkFilterQ[t], (float)SAMPLE_RATE);
1894:main.cpp      ****                 trkFilterType[t] = FTYPE_LOWPASS;
1895:main.cpp      ****                 trkFilterCut[t]  = f;
1896:main.cpp      ****             }
1897:main.cpp      ****             if(s.reverbEn)
1898:main.cpp      ****                 trackReverbSend[t] = clampF(s.reverbSend / 100.0f, 0.f, 1.f);
1899:main.cpp      ****             if(s.volEn)
1900:main.cpp      ****                 trackGain[t] = VolumeByteToGain(s.volume);
1901:main.cpp      ****             TriggerPad((uint8_t)t, s.velocity, 100, 0, maxS, seqVolume);
1902:main.cpp      ****         } else {
ARM GAS  C:\Users\cesco\AppData\Local\Temp\ccOskMVA.s 			page 68


1903:main.cpp      ****             /* ŌöĆŌöĆ SYNTH ENGINE TRACK (808/909/505/303) ŌöĆŌöĆ */
1904:main.cpp      ****             switch(eng){
1905:main.cpp      ****                 case SYNTH_ENGINE_808:
1906:main.cpp      ****                     if(t < 16) synth808.Trigger(padTo808[t], vel);
1907:main.cpp      ****                     break;
1908:main.cpp      ****                 case SYNTH_ENGINE_909:
1909:main.cpp      ****                     if(t < 16) synth909.Trigger(padTo909[t], vel);
1910:main.cpp      ****                     break;
1911:main.cpp      ****                 case SYNTH_ENGINE_505:
1912:main.cpp      ****                     if(t < 16) synth505.Trigger(padTo505[t], vel);
1913:main.cpp      ****                     break;
1914:main.cpp      ****                 case SYNTH_ENGINE_303: {
1915:main.cpp      ****                     uint8_t note   = (t < 16) ? padTo303Midi[t] : 48;
1916:main.cpp      ****                     bool    accent = (vel > 0.85f);
1917:main.cpp      ****                     bool    slide  = false;
1918:main.cpp      ****                     acid303.NoteOn(note, accent, slide);
1919:main.cpp      ****                     break;
1920:main.cpp      ****                 }
1921:main.cpp      ****             }
1922:main.cpp      ****         }
1923:main.cpp      ****     }
1924:main.cpp      **** }
1925:main.cpp      **** 
1926:main.cpp      **** /* Forward decl ŌĆō definida m├Īs abajo, pero la llamamos desde AudioCallback */
1927:main.cpp      **** static void SpiDrainRxToRing();
1928:main.cpp      **** 
1929:main.cpp      **** /* ŌĢÉŌĢÉŌĢÉŌĢÉŌĢÉŌĢÉŌĢÉŌĢÉŌĢÉŌĢÉŌĢÉŌĢÉŌĢÉŌĢÉŌĢÉŌĢÉŌĢÉŌĢÉŌĢÉŌĢÉŌĢÉŌĢÉŌĢÉŌĢÉŌĢÉŌĢÉŌĢÉŌĢÉŌĢÉŌĢÉŌĢÉŌĢÉ
1930:main.cpp      ****  *  21. AUDIO CALLBACK
1931:main.cpp      ****  * ŌĢÉŌĢÉŌĢÉŌĢÉŌĢÉŌĢÉŌĢÉŌĢÉŌĢÉŌĢÉŌĢÉŌĢÉŌĢÉŌĢÉŌĢÉŌĢÉŌĢÉŌĢÉŌĢÉŌĢÉŌĢÉŌĢÉŌĢÉŌĢÉŌĢÉŌĢÉŌĢÉŌĢÉŌĢÉŌĢÉŌĢÉŌĢÉ
1932:main.cpp      **** void AudioCallback(AudioHandle::InputBuffer  /*in*/,
1933:main.cpp      ****                    AudioHandle::OutputBuffer out,
1934:main.cpp      ****                    size_t                    size)
1935:main.cpp      **** {
1936:main.cpp      ****     /* ŌöĆŌöĆ STARTUP TONE TEST: tono 1kHz directo, bypasea toda la cadena ŌöĆŌöĆ */
1937:main.cpp      ****     if(kStartupToneTest){
1938:main.cpp      ****         static uint32_t toneSamples = 0;
1939:main.cpp      ****         static float    tonePhase   = 0.0f;
1940:main.cpp      ****         const  uint32_t toneDurSamp = (uint32_t)SAMPLE_RATE * 3;  /* 3 segundos */
1941:main.cpp      ****         if(toneSamples < toneDurSamp){
1942:main.cpp      ****             for(size_t i = 0; i < size; i++){
1943:main.cpp      ****                 float s = 0.7f * sinf(tonePhase);
1944:main.cpp      ****                 out[0][i] = s;
1945:main.cpp      ****                 out[1][i] = s;
1946:main.cpp      ****                 tonePhase += 2.0f * 3.14159265f * 1000.0f / (float)SAMPLE_RATE;
1947:main.cpp      ****                 if(tonePhase > 2.0f * 3.14159265f) tonePhase -= 2.0f * 3.14159265f;
1948:main.cpp      ****                 toneSamples++;
1949:main.cpp      ****             }
1950:main.cpp      ****             return;
1951:main.cpp      ****         }
1952:main.cpp      ****     }
1953:main.cpp      **** 
1954:main.cpp      ****     for(size_t i = 0; i < size; i++) out[0][i] = out[1][i] = 0.0f;
1955:main.cpp      **** 
1956:main.cpp      ****     if(kAudioSafeMode)
1957:main.cpp      ****         return;
1958:main.cpp      **** 
1959:main.cpp      ****     float mixPeak = 0.0f;
ARM GAS  C:\Users\cesco\AppData\Local\Temp\ccOskMVA.s 			page 69


1960:main.cpp      **** 
1961:main.cpp      ****     for(size_t i = 0; i < size; i++){
1962:main.cpp      ****         /* ŌöĆŌöĆ Drenar SPI FIFO cada 4 samples (~83┬Ąs) para evitar overflow
1963:main.cpp      ****          *    durante el audio callback.  DMA audio tiene prioridad m├Īxima (0)
1964:main.cpp      ****          *    as├Ł que TIM6 NO puede preemptar ŌåÆ debemos drenar aqu├Ł.          */
1965:main.cpp      ****         if((i & 3) == 0) SpiDrainRxToRing();
1966:main.cpp      **** 
1967:main.cpp      ****         /* ŌöĆŌöĆ Daisy Sequencer tick (sample-accurate BPM clock) ŌöĆŌöĆŌöĆŌöĆŌöĆŌöĆŌöĆŌöĆŌöĆŌöĆŌö
1968:main.cpp      ****          *  samplesElapsed==0 ŌåÆ new step boundary: advance and fire.
1969:main.cpp      ****          *  Called BEFORE voice rendering so new voices are active this sample. */
1970:main.cpp      ****         if(dseq.playing){
1971:main.cpp      ****             if(dseq.samplesElapsed == 0){
1972:main.cpp      ****                 dseq.currentStep = (dseq.currentStep + 1) % (int16_t)dseq.patternLength;
1973:main.cpp      ****                 DsqFireStep();
1974:main.cpp      ****             }
1975:main.cpp      ****             dseq.samplesElapsed++;
1976:main.cpp      ****             /* Swing: odd steps delayed */
1977:main.cpp      ****             uint32_t thr = dseq.samplesPerStep;
1978:main.cpp      ****             if(dseq.swingAmount > 0 && (dseq.currentStep & 1) == 1)
1979:main.cpp      ****                 thr = dseq.samplesPerStep + (dseq.samplesPerStep * (uint32_t)dseq.swingAmount / 200
1980:main.cpp      ****             if(dseq.samplesElapsed >= thr)
1981:main.cpp      ****                 dseq.samplesElapsed = 0;
1982:main.cpp      ****         }
1983:main.cpp      **** 
1984:main.cpp      ****         float busL = 0, busR = 0;
1985:main.cpp      ****         float reverbBusL = 0, delayBusL = 0, chorusBusL = 0;
1986:main.cpp      ****         float sideSrc = 0;
1987:main.cpp      **** 
1988:main.cpp      ****         float lfoVal[MAX_PADS];
1989:main.cpp      ****         uint8_t trkFilterLfoSet[MAX_PADS];
1990:main.cpp      ****         for(int t = 0; t < MAX_PADS; t++){
1991:main.cpp      ****             lfoVal[t] = 0.0f;
1992:main.cpp      ****             trkFilterLfoSet[t] = 0;
1993:main.cpp      ****             if(!trkLfoActive[t] || trkLfoDepth[t] <= 0.0001f) continue;
1994:main.cpp      **** 
1995:main.cpp      ****             trkLfoPhase[t] += trkLfoRate[t] / (float)SAMPLE_RATE;
1996:main.cpp      ****             if(trkLfoPhase[t] >= 1.0f){
1997:main.cpp      ****                 trkLfoPhase[t] -= 1.0f;
1998:main.cpp      ****                 if(trkLfoWave[t] == LFO_WAVE_SH)
1999:main.cpp      ****                     trkLfoSH[t] = RandFloat(); /* -1..1 */
2000:main.cpp      ****             }
2001:main.cpp      **** 
2002:main.cpp      ****             float v = 0.0f;
2003:main.cpp      ****             if(trkLfoWave[t] == LFO_WAVE_TRI)
2004:main.cpp      ****                 v = TriFromPhase(trkLfoPhase[t]);
2005:main.cpp      ****             else if(trkLfoWave[t] == LFO_WAVE_SH)
2006:main.cpp      ****                 v = trkLfoSH[t];
2007:main.cpp      ****             else
2008:main.cpp      ****                 v = sinf(2.0f * (float)M_PI * trkLfoPhase[t]);
2009:main.cpp      **** 
2010:main.cpp      ****             lfoVal[t] = v * trkLfoDepth[t];
2011:main.cpp      ****         }
2012:main.cpp      **** 
2013:main.cpp      ****         /* ŌöĆŌöĆ Render voices ŌöĆŌöĆ */
2014:main.cpp      ****         for(int v = 0; v < MAX_VOICES; v++){
2015:main.cpp      ****             Voice& vx = voices[v];
2016:main.cpp      ****             if(!vx.active) continue;
ARM GAS  C:\Users\cesco\AppData\Local\Temp\ccOskMVA.s 			page 70


2017:main.cpp      ****             uint8_t p = vx.pad;
2018:main.cpp      **** 
2019:main.cpp      ****             /* Position / bounds */
2020:main.cpp      ****             uint32_t idx = (uint32_t)fabsf(vx.pos);
2021:main.cpp      ****             uint32_t endLen = (vx.maxLen > 0 && vx.maxLen < sampleLength[p])
2022:main.cpp      ****                              ? vx.maxLen : sampleLength[p];
2023:main.cpp      ****             if(padReverse[p]){
2024:main.cpp      ****                 if(vx.pos < 0.0f){
2025:main.cpp      ****                     if(padLoop[p]) vx.pos = (float)(endLen - 1);
2026:main.cpp      ****                     else { vx.active = false; continue; }
2027:main.cpp      ****                 }
2028:main.cpp      ****             } else {
2029:main.cpp      ****                 if(idx >= endLen){
2030:main.cpp      ****                     if(padLoop[p]){ vx.pos = 0.0f; idx = 0; }
2031:main.cpp      ****                     else { vx.active = false; continue; }
2032:main.cpp      ****                 }
2033:main.cpp      ****             }
2034:main.cpp      ****             idx = (uint32_t)fabsf(vx.pos);
2035:main.cpp      ****             if(idx >= sampleLength[p]){ vx.active = false; continue; }
2036:main.cpp      **** 
2037:main.cpp      ****             /* Interpolation */
2038:main.cpp      ****             float frac = fabsf(vx.pos) - idx;
2039:main.cpp      ****             float s0   = sampleStorage[p][idx] / 32768.0f;
2040:main.cpp      ****             float s1   = (idx + 1 < sampleLength[p])
2041:main.cpp      ****                          ? sampleStorage[p][idx + 1] / 32768.0f : 0.0f;
2042:main.cpp      ****             float s    = s0 + frac * (s1 - s0);
2043:main.cpp      **** 
2044:main.cpp      ****             /* ŌöĆŌöĆ Voice AD envelope ŌöĆŌöĆ */
2045:main.cpp      ****             if(vx.envStage == 0){
2046:main.cpp      ****                 vx.env += vx.envAttackInc;
2047:main.cpp      ****                 if(vx.env >= 1.0f){
2048:main.cpp      ****                     vx.env = 1.0f;
2049:main.cpp      ****                     vx.envStage = 1;
2050:main.cpp      ****                 }
2051:main.cpp      ****             } else if(vx.envStage == 1){
2052:main.cpp      ****                 vx.env *= vx.envDecayCoef;
2053:main.cpp      ****                 if(vx.env < 0.0005f){
2054:main.cpp      ****                     vx.active = false;
2055:main.cpp      ****                     continue;
2056:main.cpp      ****                 }
2057:main.cpp      ****             }
2058:main.cpp      ****             s *= vx.env;
2059:main.cpp      **** 
2060:main.cpp      ****             /* ŌöĆŌöĆ Stutter ŌöĆŌöĆ */
2061:main.cpp      ****             if(padStutterOn[p]){
2062:main.cpp      ****                 padStutterCnt[p]++;
2063:main.cpp      ****                 if(padStutterCnt[p] >= padStutterIval[p]){
2064:main.cpp      ****                     padStutterCnt[p] = 0;
2065:main.cpp      ****                     if(vx.pos > 100.f) vx.pos -= 100.f; else vx.pos = 0.f;
2066:main.cpp      ****                 }
2067:main.cpp      ****             }
2068:main.cpp      **** 
2069:main.cpp      ****             /* ŌöĆŌöĆ Advance position ŌöĆŌöĆ */
2070:main.cpp      ****             float adv = vx.speed;
2071:main.cpp      ****             if(padScratchOn[p]){
2072:main.cpp      ****                 float tri = padScratchPhase[p] < 0.5f
2073:main.cpp      ****                     ? padScratchPhase[p]*2.f : 2.f - padScratchPhase[p]*2.f;
ARM GAS  C:\Users\cesco\AppData\Local\Temp\ccOskMVA.s 			page 71


2074:main.cpp      ****                 adv *= 1.f + (tri - 0.5f) * padScratchDepth[p];
2075:main.cpp      ****                 if(adv < 0.25f) adv = 0.25f;
2076:main.cpp      ****                 padScratchPhase[p] += padScratchRate[p] / (float)SAMPLE_RATE;
2077:main.cpp      ****                 if(padScratchPhase[p] >= 1.f) padScratchPhase[p] -= 1.f;
2078:main.cpp      ****             }
2079:main.cpp      ****             if(padTurnOn[p]){
2080:main.cpp      ****                 int8_t mode = padTurnMode[p];
2081:main.cpp      ****                 if(padTurnAuto[p]){
2082:main.cpp      ****                     mode = (padTurnPhase[p] < 0.5f) ? 0 : 1;
2083:main.cpp      ****                     padTurnPhase[p] += padTurnRate[p] / (float)SAMPLE_RATE;
2084:main.cpp      ****                     if(padTurnPhase[p] >= 1.f) padTurnPhase[p] -= 1.f;
2085:main.cpp      ****                 }
2086:main.cpp      ****                 if(mode == 1){
2087:main.cpp      ****                     float bsmp = padTurnBrakeMs[p] * (float)SAMPLE_RATE / 1000.f;
2088:main.cpp      ****                     float envF = 1.f - clampF((float)padTurnCounter[p]/bsmp, 0.f, 1.f);
2089:main.cpp      ****                     adv *= envF;
2090:main.cpp      ****                     if(adv < 0.01f) adv = 0.01f;
2091:main.cpp      ****                     padTurnCounter[p]++;
2092:main.cpp      ****                 } else if(mode == 2){
2093:main.cpp      ****                     float bsmp = padTurnBackMs[p] * (float)SAMPLE_RATE / 1000.f;
2094:main.cpp      ****                     if((padTurnCounter[p] % 3) == 0 && vx.pos > 0.f) vx.pos -= 1.f;
2095:main.cpp      ****                     adv *= 0.7f;
2096:main.cpp      ****                     padTurnCounter[p]++;
2097:main.cpp      ****                     if(padTurnCounter[p] > (uint32_t)bsmp) padTurnCounter[p] = 0;
2098:main.cpp      ****                 } else {
2099:main.cpp      ****                     padTurnCounter[p] = 0;
2100:main.cpp      ****                 }
2101:main.cpp      ****             }
2102:main.cpp      ****             vx.pos += padReverse[p] ? -adv : adv;
2103:main.cpp      **** 
2104:main.cpp      ****             /* ŌöĆŌöĆ Pad filter ŌöĆŌöĆ */
2105:main.cpp      ****             if(padFilterType[p]){
2106:main.cpp      ****                 s = padFilter[p].Process(s);
2107:main.cpp      ****             }
2108:main.cpp      **** 
2109:main.cpp      ****             /* ŌöĆŌöĆ Pad distortion + crush ŌöĆŌöĆ */
2110:main.cpp      ****             s = ApplyDist(s, padDistDrive[p], DMODE_SOFT);
2111:main.cpp      ****             s = BitCrush(s, padBitDepth[p]);
2112:main.cpp      **** 
2113:main.cpp      ****             /* ŌöĆŌöĆ Scratch FX ŌöĆŌöĆ */
2114:main.cpp      ****             if(padScratchOn[p]){
2115:main.cpp      ****                 padScratchFilter[p].SetType(FTYPE_LOWPASS, padScratchCut[p], 0.707f, (float)SAMPLE_
2116:main.cpp      ****                 s = padScratchFilter[p].Process(s);
2117:main.cpp      ****                 if(padScratchCrackle[p] > 0.01f && (FastRand() & 0xFF) < (uint32_t)(padScratchCrack
2118:main.cpp      ****                     s += RandFloat() * 0.05f;
2119:main.cpp      ****             }
2120:main.cpp      ****             if(padTurnOn[p] && padTurnNoise[p] > 0.01f)
2121:main.cpp      ****                 s += RandFloat() * padTurnNoise[p] * 0.1f;
2122:main.cpp      **** 
2123:main.cpp      ****             /* ŌöĆŌöĆ Per-track filter ŌöĆŌöĆ */
2124:main.cpp      ****             if(trkFilterType[p]){
2125:main.cpp      ****                 if(trkLfoActive[p] && trkLfoTarget[p] == LFO_TGT_FILTER && !trkFilterLfoSet[p]){
2126:main.cpp      ****                     float modCut = trkFilterCut[p] * (1.0f + 0.9f * lfoVal[p]);
2127:main.cpp      ****                     modCut = clampF(modCut, 20.f, 20000.f);
2128:main.cpp      ****                     trkFilter[p].SetType(trkFilterType[p], modCut, trkFilterQ[p], (float)SAMPLE_RAT
2129:main.cpp      ****                     trkFilterLfoSet[p] = 1;
2130:main.cpp      ****                 }
ARM GAS  C:\Users\cesco\AppData\Local\Temp\ccOskMVA.s 			page 72


2131:main.cpp      ****                 s = trkFilter[p].Process(s);
2132:main.cpp      ****             }
2133:main.cpp      **** 
2134:main.cpp      ****             /* ŌöĆŌöĆ Per-track dist + crush ŌöĆŌöĆ */
2135:main.cpp      ****             s = ApplyDist(s, trkDistDrive[p], trkDistMode[p]);
2136:main.cpp      ****             s = BitCrush(s, trkBitDepth[p]);
2137:main.cpp      **** 
2138:main.cpp      ****             /* ŌöĆŌöĆ Per-track EQ (3-band) ŌöĆŌöĆ */
2139:main.cpp      ****             if(trkEqLowDb[p])  s = trkEqLow[p].Process(s);
2140:main.cpp      ****             if(trkEqMidDb[p])  s = trkEqMid[p].Process(s);
2141:main.cpp      ****             if(trkEqHighDb[p]) s = trkEqHigh[p].Process(s);
2142:main.cpp      **** 
2143:main.cpp      ****             /* ŌöĆŌöĆ Per-track echo ŌöĆŌöĆ */
2144:main.cpp      ****             if(trkEchoActive[p]){
2145:main.cpp      ****                 uint32_t d = (uint32_t)trkEchoDelay[p];
2146:main.cpp      ****                 if(d==0) d=1; if(d>=TRACK_ECHO_SIZE) d=TRACK_ECHO_SIZE-1;
2147:main.cpp      ****                 uint32_t rp = (trkEchoWp[p] + TRACK_ECHO_SIZE - d) % TRACK_ECHO_SIZE;
2148:main.cpp      ****                 float delayed = trkEchoBuf[p][rp];
2149:main.cpp      ****                 trkEchoBuf[p][trkEchoWp[p]] = clampF(s + delayed*trkEchoFb[p], -1.f, 1.f);
2150:main.cpp      ****                 s = s*(1.f - trkEchoMix[p]) + delayed*trkEchoMix[p];
2151:main.cpp      ****                 trkEchoWp[p] = (trkEchoWp[p] + 1) % TRACK_ECHO_SIZE;
2152:main.cpp      ****             }
2153:main.cpp      **** 
2154:main.cpp      ****             /* ŌöĆŌöĆ Per-track flanger ŌöĆŌöĆ */
2155:main.cpp      ****             if(trkFlgActive[p]){
2156:main.cpp      ****                 trkFlgBuf[p][trkFlgWp[p]] = s;
2157:main.cpp      ****                 float tri = trkFlgPhase[p] < 0.5f ? trkFlgPhase[p]*2.f : 2.f - trkFlgPhase[p]*2.f;
2158:main.cpp      ****                 uint32_t tap = 2 + (uint32_t)(tri * trkFlgDepth[p] * (float)TRACK_FLANGER_SIZE * 0.
2159:main.cpp      ****                 if(tap >= TRACK_FLANGER_SIZE) tap = TRACK_FLANGER_SIZE - 1;
2160:main.cpp      ****                 uint32_t rp = (trkFlgWp[p] + TRACK_FLANGER_SIZE - tap) % TRACK_FLANGER_SIZE;
2161:main.cpp      ****                 float del = trkFlgBuf[p][rp];
2162:main.cpp      ****                 trkFlgBuf[p][trkFlgWp[p]] = clampF(s + del*trkFlgFb[p], -1.f, 1.f);
2163:main.cpp      ****                 s = s*(1.f - trkFlgMix[p]) + del*trkFlgMix[p];
2164:main.cpp      ****                 trkFlgWp[p] = (trkFlgWp[p] + 1) % TRACK_FLANGER_SIZE;
2165:main.cpp      ****                 trkFlgPhase[p] += trkFlgRate[p] / (float)SAMPLE_RATE;
2166:main.cpp      ****                 if(trkFlgPhase[p] >= 1.f) trkFlgPhase[p] -= 1.f;
2167:main.cpp      ****             }
2168:main.cpp      **** 
2169:main.cpp      ****             /* ŌöĆŌöĆ Per-track compressor ŌöĆŌöĆ */
2170:main.cpp      ****             if(trkCompActive[p]){
2171:main.cpp      ****                 float absS = fabsf(s);
2172:main.cpp      ****                 if(absS > trkCompEnv[p]) trkCompEnv[p] += (absS - trkCompEnv[p]) * 0.25f;
2173:main.cpp      ****                 else                     trkCompEnv[p] -= (trkCompEnv[p] - absS) * 0.03f;
2174:main.cpp      ****                 if(trkCompEnv[p] > trkCompThresh[p] && trkCompEnv[p] > 0.001f){
2175:main.cpp      ****                     float g = trkCompThresh[p] / trkCompEnv[p];
2176:main.cpp      ****                     g = powf(g, 1.f - 1.f/trkCompRatio[p]);
2177:main.cpp      ****                     if(g < 0.125f) g = 0.125f;
2178:main.cpp      ****                     s *= g;
2179:main.cpp      ****                 }
2180:main.cpp      ****             }
2181:main.cpp      **** 
2182:main.cpp      ****             /* ŌöĆŌöĆ Sidechain ŌöĆŌöĆ */
2183:main.cpp      ****             float absS = fabsf(s);
2184:main.cpp      ****             if(scActive && p == scSrc) sideSrc = fmaxf(sideSrc, absS);
2185:main.cpp      ****             if(scActive && p != scSrc && (scDstMask & (1u << p))){
2186:main.cpp      ****                 float duck = scAmount * scEnv;
2187:main.cpp      ****                 if(duck > 0.88f) duck = 0.88f;
ARM GAS  C:\Users\cesco\AppData\Local\Temp\ccOskMVA.s 			page 73


2188:main.cpp      ****                 s *= (1.f - duck);
2189:main.cpp      ****             }
2190:main.cpp      **** 
2191:main.cpp      ****             /* ŌöĆŌöĆ Mute / Solo ŌöĆŌöĆ */
2192:main.cpp      ****             bool muted = trackMute[p];
2193:main.cpp      ****             if(anySolo && !trackSolo[p]) muted = true;
2194:main.cpp      ****             if(muted) s = 0;
2195:main.cpp      **** 
2196:main.cpp      ****             float lfoGain = 1.0f;
2197:main.cpp      ****             if(trkLfoActive[p] && trkLfoTarget[p] == LFO_TGT_GAIN)
2198:main.cpp      ****                 lfoGain = clampF(1.0f + 0.8f * lfoVal[p], 0.0f, 2.0f);
2199:main.cpp      **** 
2200:main.cpp      ****             /* ŌöĆŌöĆ Apply voice gain ŌåÆ mix ŌöĆŌöĆ */
2201:main.cpp      ****             float outL = s * vx.gainL * lfoGain;
2202:main.cpp      ****             float outR = s * vx.gainR * lfoGain;
2203:main.cpp      **** 
2204:main.cpp      ****             /* ŌöĆŌöĆ Pan ŌöĆŌöĆ */
2205:main.cpp      ****             float panTrack = trackPanF[p];
2206:main.cpp      ****             if(trkLfoActive[p] && trkLfoTarget[p] == LFO_TGT_PAN)
2207:main.cpp      ****                 panTrack = clampF(panTrack + 0.9f * lfoVal[p], -1.0f, 1.0f);
2208:main.cpp      ****             float panL = (1.0f - panTrack) * 0.5f;
2209:main.cpp      ****             float panR = (1.0f + panTrack) * 0.5f;
2210:main.cpp      ****             busL += outL * panL;
2211:main.cpp      ****             busR += outR * panR;
2212:main.cpp      **** 
2213:main.cpp      ****             /* ŌöĆŌöĆ Send buses ŌöĆŌöĆ */
2214:main.cpp      ****             float mono = (outL + outR) * 0.5f;
2215:main.cpp      ****             reverbBusL += mono * trackReverbSend[p];
2216:main.cpp      ****             delayBusL  += mono * trackDelaySend[p];
2217:main.cpp      ****             chorusBusL += mono * trackChorusSend[p];
2218:main.cpp      **** 
2219:main.cpp      ****             /* ŌöĆŌöĆ Track peak ŌöĆŌöĆ */
2220:main.cpp      ****             float pk = fmaxf(fabsf(outL), fabsf(outR));
2221:main.cpp      ****             if(pk > trackPeak[p]) trackPeak[p] = pk;
2222:main.cpp      ****         }
2223:main.cpp      **** 
2224:main.cpp      ****         /* ŌöĆŌöĆ Sidechain envelope ŌöĆŌöĆ */
2225:main.cpp      ****         if(scActive){
2226:main.cpp      ****             if(sideSrc > scEnv) scEnv += (sideSrc - scEnv) * scAttackK;
2227:main.cpp      ****             else                scEnv -= (scEnv - sideSrc) * scReleaseK;
2228:main.cpp      ****         }
2229:main.cpp      **** 
2230:main.cpp      ****         /* ŌöĆŌöĆ DEMO MODE: tick del secuenciador ŌöĆŌöĆ */
2231:main.cpp      ****         float demoFadeGain = 1.0f;
2232:main.cpp      ****         if (demoModeActive)
2233:main.cpp      ****             demoFadeGain = demoSeq.ProcessSample();
2234:main.cpp      **** 
2235:main.cpp      ****         /* ŌöĆŌöĆ SYNTH ENGINES (s├Łntesis matem├Ītica) ŌöĆŌöĆ */
2236:main.cpp      ****         float synthMix = 0.0f;
2237:main.cpp      ****         if (synthActiveMask & (1 << SYNTH_ENGINE_808))
2238:main.cpp      ****             synthMix += synth808.Process();
2239:main.cpp      ****         if (synthActiveMask & (1 << SYNTH_ENGINE_909))
2240:main.cpp      ****             synthMix += synth909.Process();
2241:main.cpp      ****         if (kEnableSynth505 && (synthActiveMask & (1 << SYNTH_ENGINE_505)))
2242:main.cpp      ****             synthMix += synth505.Process();
2243:main.cpp      ****         if (synthActiveMask & (1 << SYNTH_ENGINE_303))
2244:main.cpp      ****             synthMix += acid303.Process();
ARM GAS  C:\Users\cesco\AppData\Local\Temp\ccOskMVA.s 			page 74


2245:main.cpp      **** 
2246:main.cpp      ****         /* Aplicar fade del demo mode */
2247:main.cpp      ****         if (demoModeActive)
2248:main.cpp      ****             synthMix *= demoFadeGain;
2249:main.cpp      **** 
2250:main.cpp      ****         /* A├▒adir synths al bus (mono ŌåÆ ambos canales) */
2251:main.cpp      ****         busL += synthMix;
2252:main.cpp      ****         busR += synthMix;
2253:main.cpp      **** 
2254:main.cpp      ****         /* ŌöĆŌöĆ Startup section cue (formante retro-rob├│tico) ŌöĆŌöĆ */
2255:main.cpp      ****         if(startupAnnounceActive)
2256:main.cpp      ****         {
2257:main.cpp      ****             float cue = startupAnnounceOsc.Process() * startupAnnounceEnv * 0.16f;
2258:main.cpp      ****             busL += cue;
2259:main.cpp      ****             busR += cue;
2260:main.cpp      ****             startupAnnounceEnv *= 0.9994f;
2261:main.cpp      ****             if(startupAnnounceRemain > 0) startupAnnounceRemain--;
2262:main.cpp      ****             if(startupAnnounceRemain == 0 || startupAnnounceEnv < 0.005f)
2263:main.cpp      ****                 startupAnnounceActive = false;
2264:main.cpp      ****         }
2265:main.cpp      **** 
2266:main.cpp      ****         /* ŌöĆŌöĆ MASTER FX CHAIN ŌöĆŌöĆ */
2267:main.cpp      ****         float gainOut = kForceMasterGainDebug ? 1.0f : masterGain;
2268:main.cpp      ****         float L = busL * gainOut;
2269:main.cpp      ****         float R = busR * gainOut;
2270:main.cpp      **** 
2271:main.cpp      ****         /* ŌöĆŌöĆ Global filter ŌöĆŌöĆ */
2272:main.cpp      ****         if(gFilterType != FTYPE_NONE){
2273:main.cpp      ****             L = gFilterL.Process(L);
2274:main.cpp      ****             R = gFilterR.Process(R);
2275:main.cpp      ****         }
2276:main.cpp      **** 
2277:main.cpp      ****         /* ŌöĆŌöĆ Global bitcrush + distortion ŌöĆŌöĆ */
2278:main.cpp      ****         L = BitCrush(L, gFilterBitDepth);
2279:main.cpp      ****         R = BitCrush(R, gFilterBitDepth);
2280:main.cpp      ****         L = ApplyDist(L, gFilterDist, gFilterDistMode);
2281:main.cpp      ****         R = ApplyDist(R, gFilterDist, gFilterDistMode);
2282:main.cpp      **** 
2283:main.cpp      ****         /* ŌöĆŌöĆ Global SAMPLE_RATE reduce ŌöĆŌöĆ */
2284:main.cpp      ****         if(gFilterSrReduce > 0 && gFilterSrReduce < (uint32_t)SAMPLE_RATE){
2285:main.cpp      ****             uint32_t step = (uint32_t)SAMPLE_RATE / gFilterSrReduce;
2286:main.cpp      ****             if(step < 1) step = 1;
2287:main.cpp      ****             gSrCounter++;
2288:main.cpp      ****             if(gSrCounter >= step){
2289:main.cpp      ****                 gSrCounter = 0;
2290:main.cpp      ****                 gSrHoldL = L; gSrHoldR = R;
2291:main.cpp      ****             } else {
2292:main.cpp      ****                 L = gSrHoldL; R = gSrHoldR;
2293:main.cpp      ****             }
2294:main.cpp      ****         }
2295:main.cpp      **** 
2296:main.cpp      ****         /* ŌöĆŌöĆ Delay (with send bus input) ŌöĆŌöĆ */
2297:main.cpp      ****         if(delayActive){
2298:main.cpp      ****             float wet = masterDelay.Read();
2299:main.cpp      ****             masterDelay.Write(L + delayBusL + wet * delayFeedback);
2300:main.cpp      ****             L = L * (1.0f - delayMix) + wet * delayMix;
2301:main.cpp      ****             R = R * (1.0f - delayMix) + wet * delayMix;
ARM GAS  C:\Users\cesco\AppData\Local\Temp\ccOskMVA.s 			page 75


2302:main.cpp      ****         }
2303:main.cpp      **** 
2304:main.cpp      ****         /* ŌöĆŌöĆ Compressor ŌöĆŌöĆ */
2305:main.cpp      ****         if(compActive){
2306:main.cpp      ****             L = masterComp.Process(L);
2307:main.cpp      ****             R = masterComp.Process(R);
2308:main.cpp      ****         }
2309:main.cpp      **** 
2310:main.cpp      ****         /* ŌöĆŌöĆ Wavefolder ŌöĆŌöĆ */
2311:main.cpp      ****         if(waveFolderGain > 1.01f){
2312:main.cpp      ****             masterFold.SetIncrement(waveFolderGain);
2313:main.cpp      ****             L = masterFold.Process(L);
2314:main.cpp      ****             R = masterFold.Process(R);
2315:main.cpp      ****         }
2316:main.cpp      **** 
2317:main.cpp      ****         /* ŌöĆŌöĆ Phaser ŌöĆŌöĆ */
2318:main.cpp      ****         if(phaserActive){
2319:main.cpp      ****             L = masterPhaser.Process(L);
2320:main.cpp      ****             /* Apply partially to R for stereo width */
2321:main.cpp      ****             R = R * 0.7f + L * 0.3f;
2322:main.cpp      ****         }
2323:main.cpp      **** 
2324:main.cpp      ****         /* ŌöĆŌöĆ Flanger (manual) ŌöĆŌöĆ */
2325:main.cpp      ****         if(flangerActive){
2326:main.cpp      ****             flangerBuf[flangerWp] = L;
2327:main.cpp      ****             float tri = flangerPhase < 0.5f ? flangerPhase*2.f : 2.f - flangerPhase*2.f;
2328:main.cpp      ****             uint32_t tap = 4 + (uint32_t)(tri * flangerDepth * 200.f);
2329:main.cpp      ****             if(tap >= 4096) tap = 4095;
2330:main.cpp      ****             uint32_t rp = (flangerWp + 4096 - tap) % 4096;
2331:main.cpp      ****             float del = flangerBuf[rp];
2332:main.cpp      ****             flangerBuf[flangerWp] = clampF(L + del*flangerFb, -1.f, 1.f);
2333:main.cpp      ****             L = L*(1.f - flangerMix) + del*flangerMix;
2334:main.cpp      ****             R = R*(1.f - flangerMix) + del*flangerMix;
2335:main.cpp      ****             flangerWp = (flangerWp + 1) % 4096;
2336:main.cpp      ****             flangerPhase += flangerRate / (float)SAMPLE_RATE;
2337:main.cpp      ****             if(flangerPhase >= 1.f) flangerPhase -= 1.f;
2338:main.cpp      ****         }
2339:main.cpp      **** 
2340:main.cpp      ****         /* ŌöĆŌöĆ Tremolo ŌöĆŌöĆ */
2341:main.cpp      ****         if(tremoloActive){
2342:main.cpp      ****             float t = masterTremolo.Process(1.0f);
2343:main.cpp      ****             L *= t; R *= t;
2344:main.cpp      ****         }
2345:main.cpp      **** 
2346:main.cpp      ****         /* ŌöĆŌöĆ Chorus (with send bus input) ŌöĆŌöĆ */
2347:main.cpp      ****         if(chorusActive){
2348:main.cpp      ****             float wet = masterChorus.Process(L + chorusBusL);
2349:main.cpp      ****             L = L * (1.0f - chorusMix) + wet * chorusMix;
2350:main.cpp      ****             R = R * (1.0f - chorusMix) + wet * chorusMix;
2351:main.cpp      ****         }
2352:main.cpp      **** 
2353:main.cpp      ****         /* ŌöĆŌöĆ Reverb (with send bus input) ŌöĆŌöĆ */
2354:main.cpp      ****         float revL = 0, revR = 0;
2355:main.cpp      ****         if(reverbActive){
2356:main.cpp      ****             masterReverb.Process(L + reverbBusL, R + reverbBusL,
2357:main.cpp      ****                                 &revL, &revR);
2358:main.cpp      ****             L = L * (1.0f - reverbMix) + revL * reverbMix;
ARM GAS  C:\Users\cesco\AppData\Local\Temp\ccOskMVA.s 			page 76


2359:main.cpp      ****             R = R * (1.0f - reverbMix) + revR * reverbMix;
2360:main.cpp      ****         }
2361:main.cpp      **** 
