ARM GAS  C:\Users\cesco\AppData\Local\Temp\ccHBw06Y.s 			page 1


   1              		.cpu cortex-m4
   2              		.arch armv7e-m
   3              		.fpu fpv4-sp-d16
   4              		.eabi_attribute 27, 1
   5              		.eabi_attribute 28, 1
   6              		.eabi_attribute 20, 1
   7              		.eabi_attribute 21, 1
   8              		.eabi_attribute 23, 3
   9              		.eabi_attribute 24, 1
  10              		.eabi_attribute 25, 1
  11              		.eabi_attribute 26, 1
  12              		.eabi_attribute 30, 1
  13              		.eabi_attribute 34, 1
  14              		.eabi_attribute 18, 4
  15              		.file	"main.c"
  16              		.text
  17              	.Ltext0:
  18              		.cfi_sections	.debug_frame
  19              		.file 1 "Core/Src/main.c"
  20              		.section	.text.le16,"ax",%progbits
  21              		.align	1
  22              		.syntax unified
  23              		.thumb
  24              		.thumb_func
  26              	le16:
  27              	.LVL0:
  28              	.LFB134:
   1:Core/Src/main.c **** /* USER CODE BEGIN Header */
   2:Core/Src/main.c **** /**
   3:Core/Src/main.c ****   ******************************************************************************
   4:Core/Src/main.c ****   * @file           : main.c
   5:Core/Src/main.c ****   * @brief          : TR-808 demo sequencer (SD folders -> I2S2 PCM5102)
   6:Core/Src/main.c ****   ******************************************************************************
   7:Core/Src/main.c ****   */
   8:Core/Src/main.c **** /* USER CODE END Header */
   9:Core/Src/main.c **** 
  10:Core/Src/main.c **** #include "main.h"
  11:Core/Src/main.c **** #include <string.h>
  12:Core/Src/main.c **** #include <math.h>
  13:Core/Src/main.c **** 
  14:Core/Src/main.c **** I2S_HandleTypeDef hi2s2;
  15:Core/Src/main.c **** DMA_HandleTypeDef hdma_spi2_tx;
  16:Core/Src/main.c **** SD_HandleTypeDef hsd;
  17:Core/Src/main.c **** SPI_HandleTypeDef hspi1;
  18:Core/Src/main.c **** 
  19:Core/Src/main.c **** #define AUDIO_TX_WORDS       4096U   /* frames per half-buffer (46 ms @ 44100 Hz) */
  20:Core/Src/main.c **** #define AUDIO_TX_WORDS_FULL  8192U   /* double buffer for circular DMA */
  21:Core/Src/main.c **** #define SD_READ_BYTES        4096U
  22:Core/Src/main.c **** 
  23:Core/Src/main.c **** #define DEBUG_LED_PORT       GPIOE
  24:Core/Src/main.c **** #define DEBUG_LED_PIN        GPIO_PIN_0
  25:Core/Src/main.c **** #define DEBUG_LED2_PORT      GPIOA
  26:Core/Src/main.c **** #define DEBUG_LED2_PIN       GPIO_PIN_6
  27:Core/Src/main.c **** #define DEBUG_LED3_PORT      GPIOD
  28:Core/Src/main.c **** #define DEBUG_LED3_PIN       GPIO_PIN_13
  29:Core/Src/main.c **** 
  30:Core/Src/main.c **** #define NUM_INSTRUMENTS      16U
ARM GAS  C:\Users\cesco\AppData\Local\Temp\ccHBw06Y.s 			page 2


  31:Core/Src/main.c **** #define MAX_SAMPLE_FRAMES    3000U
  32:Core/Src/main.c **** #define MAX_VOICES           10U
  33:Core/Src/main.c **** 
  34:Core/Src/main.c **** #define DEMO_SAMPLE_RATE     44100U
  35:Core/Src/main.c **** #define DEMO_BPM             92U
  36:Core/Src/main.c **** #define TOTAL_STEPS          64U
  37:Core/Src/main.c **** #define ARR_SECTIONS         8U
  38:Core/Src/main.c **** #define ARR_STEPS            (TOTAL_STEPS * ARR_SECTIONS)
  39:Core/Src/main.c **** #define DELAY_SAMPLES        6000U
  40:Core/Src/main.c **** 
  41:Core/Src/main.c **** #define SPI_MAGIC_CMD        0xA5U
  42:Core/Src/main.c **** #define SPI_MAGIC_RESP       0x5AU
  43:Core/Src/main.c **** #define SPI_MAGIC_SAMPLE     0xDAU
  44:Core/Src/main.c **** #define SPI_MAGIC_BULK       0xBBU
  45:Core/Src/main.c **** 
  46:Core/Src/main.c **** #define CMD_TRIGGER_SEQ      0x01U
  47:Core/Src/main.c **** #define CMD_TRIGGER_LIVE     0x02U
  48:Core/Src/main.c **** #define CMD_TRIGGER_STOP     0x03U
  49:Core/Src/main.c **** #define CMD_TRIGGER_STOP_ALL 0x04U
  50:Core/Src/main.c **** #define CMD_TRIGGER_SIDECHAIN 0x05U
  51:Core/Src/main.c **** 
  52:Core/Src/main.c **** #define CMD_MASTER_VOLUME    0x10U
  53:Core/Src/main.c **** #define CMD_SEQ_VOLUME       0x11U
  54:Core/Src/main.c **** #define CMD_LIVE_VOLUME      0x12U
  55:Core/Src/main.c **** #define CMD_TRACK_VOLUME     0x13U
  56:Core/Src/main.c **** #define CMD_LIVE_PITCH       0x14U
  57:Core/Src/main.c **** 
  58:Core/Src/main.c **** #define CMD_FILTER_TYPE       0x20U
  59:Core/Src/main.c **** #define CMD_FILTER_CUTOFF     0x21U
  60:Core/Src/main.c **** #define CMD_FILTER_RESONANCE  0x22U
  61:Core/Src/main.c **** #define CMD_FILTER_BITDEPTH   0x23U
  62:Core/Src/main.c **** #define CMD_FILTER_DISTORTION 0x24U
  63:Core/Src/main.c **** #define CMD_FILTER_DIST_MODE  0x25U
  64:Core/Src/main.c **** #define CMD_FILTER_SR_REDUCE  0x26U
  65:Core/Src/main.c **** 
  66:Core/Src/main.c **** #define CMD_DELAY_ACTIVE     0x30U
  67:Core/Src/main.c **** #define CMD_DELAY_TIME       0x31U
  68:Core/Src/main.c **** #define CMD_DELAY_FEEDBACK   0x32U
  69:Core/Src/main.c **** #define CMD_DELAY_MIX        0x33U
  70:Core/Src/main.c **** 
  71:Core/Src/main.c **** #define CMD_PHASER_ACTIVE    0x34U
  72:Core/Src/main.c **** #define CMD_PHASER_RATE      0x35U
  73:Core/Src/main.c **** #define CMD_PHASER_DEPTH     0x36U
  74:Core/Src/main.c **** #define CMD_PHASER_FEEDBACK  0x37U
  75:Core/Src/main.c **** 
  76:Core/Src/main.c **** #define CMD_FLANGER_ACTIVE   0x38U
  77:Core/Src/main.c **** #define CMD_FLANGER_RATE     0x39U
  78:Core/Src/main.c **** #define CMD_FLANGER_DEPTH    0x3AU
  79:Core/Src/main.c **** #define CMD_FLANGER_FEEDBACK 0x3BU
  80:Core/Src/main.c **** #define CMD_FLANGER_MIX      0x3CU
  81:Core/Src/main.c **** 
  82:Core/Src/main.c **** #define CMD_COMP_ACTIVE      0x3DU
  83:Core/Src/main.c **** #define CMD_COMP_THRESHOLD   0x3EU
  84:Core/Src/main.c **** #define CMD_COMP_RATIO       0x3FU
  85:Core/Src/main.c **** #define CMD_COMP_ATTACK      0x40U
  86:Core/Src/main.c **** #define CMD_COMP_RELEASE     0x41U
  87:Core/Src/main.c **** #define CMD_COMP_MAKEUP      0x42U
ARM GAS  C:\Users\cesco\AppData\Local\Temp\ccHBw06Y.s 			page 3


  88:Core/Src/main.c **** 
  89:Core/Src/main.c **** #define CMD_TRACK_FILTER     0x50U
  90:Core/Src/main.c **** #define CMD_TRACK_CLEAR_FILTER 0x51U
  91:Core/Src/main.c **** #define CMD_TRACK_DISTORTION 0x52U
  92:Core/Src/main.c **** #define CMD_TRACK_BITCRUSH   0x53U
  93:Core/Src/main.c **** #define CMD_TRACK_ECHO       0x54U
  94:Core/Src/main.c **** #define CMD_TRACK_FLANGER_FX 0x55U
  95:Core/Src/main.c **** #define CMD_TRACK_COMPRESSOR 0x56U
  96:Core/Src/main.c **** #define CMD_TRACK_CLEAR_LIVE 0x57U
  97:Core/Src/main.c **** #define CMD_TRACK_CLEAR_FX   0x58U
  98:Core/Src/main.c **** 
  99:Core/Src/main.c **** #define CMD_SIDECHAIN_SET    0x90U
 100:Core/Src/main.c **** #define CMD_SIDECHAIN_CLEAR  0x91U
 101:Core/Src/main.c **** 
 102:Core/Src/main.c **** #define CMD_SAMPLE_BEGIN      0xA0U
 103:Core/Src/main.c **** #define CMD_SAMPLE_DATA       0xA1U
 104:Core/Src/main.c **** #define CMD_SAMPLE_END        0xA2U
 105:Core/Src/main.c **** #define CMD_SAMPLE_UNLOAD     0xA3U
 106:Core/Src/main.c **** #define CMD_SAMPLE_UNLOAD_ALL 0xA4U
 107:Core/Src/main.c **** 
 108:Core/Src/main.c **** #define CMD_PAD_FILTER       0x70U
 109:Core/Src/main.c **** #define CMD_PAD_CLEAR_FILTER 0x71U
 110:Core/Src/main.c **** #define CMD_PAD_DISTORTION   0x72U
 111:Core/Src/main.c **** #define CMD_PAD_BITCRUSH     0x73U
 112:Core/Src/main.c **** #define CMD_PAD_LOOP         0x74U
 113:Core/Src/main.c **** #define CMD_PAD_REVERSE      0x75U
 114:Core/Src/main.c **** #define CMD_PAD_PITCH        0x76U
 115:Core/Src/main.c **** #define CMD_PAD_STUTTER      0x77U
 116:Core/Src/main.c **** #define CMD_PAD_SCRATCH      0x78U
 117:Core/Src/main.c **** #define CMD_PAD_TURNTABLISM  0x79U
 118:Core/Src/main.c **** #define CMD_PAD_CLEAR_FX     0x7AU
 119:Core/Src/main.c **** 
 120:Core/Src/main.c **** #define CMD_BULK_TRIGGERS    0xF0U
 121:Core/Src/main.c **** #define CMD_BULK_FX          0xF1U
 122:Core/Src/main.c **** 
 123:Core/Src/main.c **** #define CMD_GET_STATUS       0xE0U
 124:Core/Src/main.c **** #define CMD_GET_PEAKS        0xE1U
 125:Core/Src/main.c **** #define CMD_GET_CPU_LOAD     0xE2U
 126:Core/Src/main.c **** #define CMD_GET_VOICES       0xE3U
 127:Core/Src/main.c **** #define CMD_PING             0xEEU
 128:Core/Src/main.c **** #define CMD_RESET            0xEFU
 129:Core/Src/main.c **** 
 130:Core/Src/main.c **** #define SPI_TRIG_Q_LEN       16U
 131:Core/Src/main.c **** #define SPI_MAX_PAYLOAD      600U
 132:Core/Src/main.c **** #define SPI_TX_Q_LEN         768U
 133:Core/Src/main.c **** #define TRACK_FX_BUF_SAMPLES 512U
 134:Core/Src/main.c **** #define TRACK_PEAK_COUNT     16U
 135:Core/Src/main.c **** 
 136:Core/Src/main.c **** static uint8_t  sdReadBuf[SD_READ_BYTES];
 137:Core/Src/main.c **** static uint16_t i2sBuf[AUDIO_TX_WORDS_FULL]; /* double buffer circular I2S DMA */
 138:Core/Src/main.c **** DMA_HandleTypeDef hdma_spi1_rx;             /* DMA2 Stream0 Ch3 para SPI1 RX */
 139:Core/Src/main.c **** static volatile uint8_t g_audioFillHalf = 0xFFU; /* 0 = llenar 1ª mitad, 1 = 2ª mitad */
 140:Core/Src/main.c **** static volatile uint32_t g_audioLastCbTick = 0U;
 141:Core/Src/main.c **** 
 142:Core/Src/main.c **** typedef struct {
 143:Core/Src/main.c ****   uint32_t part_lba;
 144:Core/Src/main.c ****   uint32_t fat_lba;
ARM GAS  C:\Users\cesco\AppData\Local\Temp\ccHBw06Y.s 			page 4


 145:Core/Src/main.c ****   uint32_t data_lba;
 146:Core/Src/main.c ****   uint32_t root_cluster;
 147:Core/Src/main.c ****   uint32_t sectors_per_fat;
 148:Core/Src/main.c ****   uint8_t sectors_per_cluster;
 149:Core/Src/main.c **** } Fat32Info;
 150:Core/Src/main.c **** 
 151:Core/Src/main.c **** typedef struct {
 152:Core/Src/main.c ****   Fat32Info fs;
 153:Core/Src/main.c ****   uint32_t first_cluster;
 154:Core/Src/main.c ****   uint32_t current_cluster;
 155:Core/Src/main.c ****   uint32_t file_size;
 156:Core/Src/main.c ****   uint32_t pos;
 157:Core/Src/main.c ****   uint32_t sector_in_cluster;
 158:Core/Src/main.c ****   uint16_t sector_offset;
 159:Core/Src/main.c ****   uint8_t sector_buf[512];
 160:Core/Src/main.c ****   uint8_t sector_valid;
 161:Core/Src/main.c **** } FileCtx;
 162:Core/Src/main.c **** 
 163:Core/Src/main.c **** typedef struct {
 164:Core/Src/main.c ****   uint16_t channels;
 165:Core/Src/main.c ****   uint32_t sample_rate;
 166:Core/Src/main.c ****   uint16_t bits_per_sample;
 167:Core/Src/main.c ****   uint32_t data_size;
 168:Core/Src/main.c **** } WavInfo;
 169:Core/Src/main.c **** 
 170:Core/Src/main.c **** typedef struct {
 171:Core/Src/main.c ****   int16_t data[MAX_SAMPLE_FRAMES];
 172:Core/Src/main.c ****   uint32_t length;
 173:Core/Src/main.c ****   uint8_t loaded;
 174:Core/Src/main.c **** } InstrumentSample;
 175:Core/Src/main.c **** 
 176:Core/Src/main.c **** typedef struct {
 177:Core/Src/main.c ****   uint8_t active;
 178:Core/Src/main.c ****   uint8_t inst;
 179:Core/Src/main.c ****   uint32_t pos;
 180:Core/Src/main.c ****   uint16_t frac_q12;
 181:Core/Src/main.c ****   uint16_t step_q12;
 182:Core/Src/main.c ****   int16_t gain_q15;
 183:Core/Src/main.c ****   int8_t pan;
 184:Core/Src/main.c **** } Voice;
 185:Core/Src/main.c **** 
 186:Core/Src/main.c **** static InstrumentSample g_samples[NUM_INSTRUMENTS];
 187:Core/Src/main.c **** static Voice g_voices[MAX_VOICES];
 188:Core/Src/main.c **** static int16_t g_delayL[DELAY_SAMPLES] __attribute__((section(".ccmram")));
 189:Core/Src/main.c **** static int16_t g_delayR[DELAY_SAMPLES] __attribute__((section(".ccmram")));
 190:Core/Src/main.c **** static uint32_t g_delayIdx = 0;
 191:Core/Src/main.c **** static int32_t g_lpL = 0;
 192:Core/Src/main.c **** static int32_t g_lpR = 0;
 193:Core/Src/main.c **** static uint32_t g_step = 0;
 194:Core/Src/main.c **** static uint32_t g_songStep = 0;
 195:Core/Src/main.c **** static uint32_t g_samplesPerStep = 0;
 196:Core/Src/main.c **** static uint32_t g_samplesToNextStep = 1;
 197:Core/Src/main.c **** static volatile uint8_t g_demoSeqEnabled = 0;
 198:Core/Src/main.c **** static uint16_t g_flangerPhase = 0;
 199:Core/Src/main.c **** static uint8_t g_fxFlangerOn = 0;
 200:Core/Src/main.c **** static uint8_t g_fxReverbBoost = 0;
 201:Core/Src/main.c **** static uint8_t g_fxSparkleOn = 0;
ARM GAS  C:\Users\cesco\AppData\Local\Temp\ccHBw06Y.s 			page 5


 202:Core/Src/main.c **** 
 203:Core/Src/main.c **** typedef struct {
 204:Core/Src/main.c ****   uint8_t pad;
 205:Core/Src/main.c ****   uint8_t vel;
 206:Core/Src/main.c **** } SpiTrigger;
 207:Core/Src/main.c **** 
 208:Core/Src/main.c **** typedef struct __attribute__((packed)) {
 209:Core/Src/main.c ****   uint8_t magic;
 210:Core/Src/main.c ****   uint8_t cmd;
 211:Core/Src/main.c ****   uint16_t length;
 212:Core/Src/main.c ****   uint16_t sequence;
 213:Core/Src/main.c ****   uint16_t checksum;
 214:Core/Src/main.c **** } SpiPacketHeader;
 215:Core/Src/main.c **** 
 216:Core/Src/main.c **** /* ── SPI slave: buffers para dos transacciones CS separadas ── */
 217:Core/Src/main.c **** #define SPI_RX_BUF_SIZE  536U   /* 8 header + 528 max payload */
 218:Core/Src/main.c **** #define SPI_TX_BUF_SIZE  76U    /* 8 header + 68 max response */
 219:Core/Src/main.c **** 
 220:Core/Src/main.c **** static uint8_t g_spiRxBuf[SPI_RX_BUF_SIZE];
 221:Core/Src/main.c **** static uint8_t g_spiTxBuf[SPI_TX_BUF_SIZE];
 222:Core/Src/main.c **** static volatile uint8_t g_spiWaitingPayload = 0;
 223:Core/Src/main.c **** 
 224:Core/Src/main.c **** static volatile SpiTrigger g_spiTrigQ[SPI_TRIG_Q_LEN];
 225:Core/Src/main.c **** static volatile uint8_t g_spiTrigHead = 0;
 226:Core/Src/main.c **** static volatile uint8_t g_spiTrigTail = 0;
 227:Core/Src/main.c **** 
 228:Core/Src/main.c **** static volatile uint8_t g_masterVolume = 100;
 229:Core/Src/main.c **** static volatile uint8_t g_seqVolume = 100;
 230:Core/Src/main.c **** static volatile uint8_t g_liveVolume = 100;
 231:Core/Src/main.c **** static volatile uint8_t g_trackVolume[NUM_INSTRUMENTS] = {[0 ... 15] = 100};
 232:Core/Src/main.c **** static volatile uint8_t g_globalFilterType = 0;
 233:Core/Src/main.c **** static volatile uint8_t g_globalFilterCutQ8 = 200;
 234:Core/Src/main.c **** static volatile uint8_t g_globalFilterResQ8 = 32;
 235:Core/Src/main.c **** static volatile uint8_t g_globalBitDepth = 16;
 236:Core/Src/main.c **** static volatile uint8_t g_globalDistQ8 = 0;
 237:Core/Src/main.c **** static volatile uint8_t g_globalDistMode = 0;
 238:Core/Src/main.c **** static volatile uint8_t g_globalSrReduce = 1;
 239:Core/Src/main.c **** static int32_t g_globalFilterStateL = 0;
 240:Core/Src/main.c **** static int32_t g_globalFilterStateR = 0;
 241:Core/Src/main.c **** static uint8_t g_globalSrPhase = 0;
 242:Core/Src/main.c **** static int32_t g_globalSrHoldL = 0;
 243:Core/Src/main.c **** static int32_t g_globalSrHoldR = 0;
 244:Core/Src/main.c **** static volatile uint8_t g_delayActive = 1;
 245:Core/Src/main.c **** static volatile uint8_t g_delayMixQ8 = 128;
 246:Core/Src/main.c **** static volatile uint8_t g_delayFbQ8 = 96;
 247:Core/Src/main.c **** static volatile uint8_t g_flangerEnabled = 1;
 248:Core/Src/main.c **** static volatile uint8_t g_flangerDepth = 120;
 249:Core/Src/main.c **** static volatile uint8_t g_flangerMixQ8 = 64;
 250:Core/Src/main.c **** static volatile uint8_t g_flangerFeedbackQ8 = 64;
 251:Core/Src/main.c **** static volatile uint8_t g_flangerRateStep = 3;
 252:Core/Src/main.c **** static volatile uint8_t g_phaserEnabled = 0;
 253:Core/Src/main.c **** static volatile uint8_t g_phaserDepthQ8 = 96;
 254:Core/Src/main.c **** static volatile uint8_t g_phaserFeedbackQ8 = 48;
 255:Core/Src/main.c **** static volatile uint8_t g_phaserRateStep = 2;
 256:Core/Src/main.c **** static volatile int16_t g_phaserLast = 0;
 257:Core/Src/main.c **** static volatile uint16_t g_phaserPhase = 0;
 258:Core/Src/main.c **** 
ARM GAS  C:\Users\cesco\AppData\Local\Temp\ccHBw06Y.s 			page 6


 259:Core/Src/main.c **** static volatile uint8_t g_masterCompEnabled = 0;
 260:Core/Src/main.c **** static volatile uint16_t g_masterCompThresholdQ15 = 20000;
 261:Core/Src/main.c **** static volatile uint8_t g_masterCompRatioQ8 = 64;
 262:Core/Src/main.c **** static volatile uint8_t g_masterCompAttackK = 64;
 263:Core/Src/main.c **** static volatile uint8_t g_masterCompReleaseK = 8;
 264:Core/Src/main.c **** static volatile uint16_t g_masterCompEnvQ15 = 0;
 265:Core/Src/main.c **** static volatile uint8_t g_masterCompMakeupQ8 = 255;
 266:Core/Src/main.c **** 
 267:Core/Src/main.c **** static volatile uint8_t g_cpuLoadPercent = 14;
 268:Core/Src/main.c **** static volatile uint16_t g_masterPeakQ15 = 0;
 269:Core/Src/main.c **** static volatile uint16_t g_trackPeakQ15[TRACK_PEAK_COUNT] = {0};
 270:Core/Src/main.c **** static volatile uint16_t g_spiErrorCount = 0;
 271:Core/Src/main.c **** static volatile uint32_t g_spiPacketCount = 0;
 272:Core/Src/main.c **** static volatile uint16_t g_spiCrcErrorCount = 0;
 273:Core/Src/main.c **** static volatile uint32_t g_samplesLoadedMask = 0;
 274:Core/Src/main.c **** 
 275:Core/Src/main.c **** static volatile uint16_t g_instPitchQ12[NUM_INSTRUMENTS] = {[0 ... 15] = 4096};
 276:Core/Src/main.c **** static volatile uint8_t g_padLoopEnabled[NUM_INSTRUMENTS] = {0};
 277:Core/Src/main.c **** static volatile uint8_t g_padStutterEnabled[NUM_INSTRUMENTS] = {0};
 278:Core/Src/main.c **** static volatile uint16_t g_padStutterInterval[NUM_INSTRUMENTS] = {[0 ... 15] = 220};
 279:Core/Src/main.c **** static volatile uint16_t g_padStutterCount[NUM_INSTRUMENTS] = {0};
 280:Core/Src/main.c **** static volatile uint8_t g_trackFilterType[NUM_INSTRUMENTS] = {0};
 281:Core/Src/main.c **** static volatile uint8_t g_trackFilterCutQ8[NUM_INSTRUMENTS] = {[0 ... 15] = 200};
 282:Core/Src/main.c **** static volatile uint8_t g_trackFilterResQ8[NUM_INSTRUMENTS] = {[0 ... 15] = 32};
 283:Core/Src/main.c **** static int32_t g_trackFilterState[NUM_INSTRUMENTS] = {0};
 284:Core/Src/main.c **** static volatile uint8_t g_padFilterType[NUM_INSTRUMENTS] = {0};
 285:Core/Src/main.c **** static volatile uint8_t g_padFilterCutQ8[NUM_INSTRUMENTS] = {[0 ... 15] = 200};
 286:Core/Src/main.c **** static volatile uint8_t g_padFilterResQ8[NUM_INSTRUMENTS] = {[0 ... 15] = 32};
 287:Core/Src/main.c **** static int32_t g_padFilterState[NUM_INSTRUMENTS] = {0};
 288:Core/Src/main.c **** static volatile uint8_t g_trackDistQ8[NUM_INSTRUMENTS] = {0};
 289:Core/Src/main.c **** static volatile uint8_t g_trackBitDepth[NUM_INSTRUMENTS] = {[0 ... 15] = 16};
 290:Core/Src/main.c **** static volatile uint8_t g_padDistQ8[NUM_INSTRUMENTS] = {0};
 291:Core/Src/main.c **** static volatile uint8_t g_padBitDepth[NUM_INSTRUMENTS] = {[0 ... 15] = 16};
 292:Core/Src/main.c **** static volatile uint8_t g_padScratchActive[NUM_INSTRUMENTS] = {0};
 293:Core/Src/main.c **** static volatile uint16_t g_padScratchRateQ8[NUM_INSTRUMENTS] = {0};
 294:Core/Src/main.c **** static volatile uint8_t g_padScratchDepthQ8[NUM_INSTRUMENTS] = {0};
 295:Core/Src/main.c **** static volatile uint8_t g_padScratchCutQ8[NUM_INSTRUMENTS] = {[0 ... 15] = 128};
 296:Core/Src/main.c **** static volatile uint8_t g_padScratchCrackleQ8[NUM_INSTRUMENTS] = {0};
 297:Core/Src/main.c **** static uint16_t g_padScratchPhase[NUM_INSTRUMENTS] = {0};
 298:Core/Src/main.c **** static int32_t g_padScratchState[NUM_INSTRUMENTS] = {0};
 299:Core/Src/main.c **** 
 300:Core/Src/main.c **** static volatile uint8_t g_padTurnActive[NUM_INSTRUMENTS] = {0};
 301:Core/Src/main.c **** static volatile uint8_t g_padTurnAuto[NUM_INSTRUMENTS] = {0};
 302:Core/Src/main.c **** static volatile int8_t g_padTurnMode[NUM_INSTRUMENTS] = {0};
 303:Core/Src/main.c **** static volatile uint16_t g_padTurnBrakeMs[NUM_INSTRUMENTS] = {[0 ... 15] = 150};
 304:Core/Src/main.c **** static volatile uint16_t g_padTurnBackspinMs[NUM_INSTRUMENTS] = {[0 ... 15] = 120};
 305:Core/Src/main.c **** static volatile uint16_t g_padTurnRateQ8[NUM_INSTRUMENTS] = {0};
 306:Core/Src/main.c **** static volatile uint8_t g_padTurnNoiseQ8[NUM_INSTRUMENTS] = {0};
 307:Core/Src/main.c **** static uint16_t g_padTurnPhase[NUM_INSTRUMENTS] = {0};
 308:Core/Src/main.c **** static uint16_t g_padTurnCounter[NUM_INSTRUMENTS] = {0};
 309:Core/Src/main.c **** 
 310:Core/Src/main.c **** static volatile uint8_t g_abSeqTrimQ8 = 242U;
 311:Core/Src/main.c **** static volatile uint8_t g_abLiveTrimQ8 = 236U;
 312:Core/Src/main.c **** static volatile uint8_t g_abMasterTrimQ8 = 232U;
 313:Core/Src/main.c **** static uint32_t g_noiseState = 0x12345678U;
 314:Core/Src/main.c **** 
 315:Core/Src/main.c **** typedef struct {
ARM GAS  C:\Users\cesco\AppData\Local\Temp\ccHBw06Y.s 			page 7


 316:Core/Src/main.c ****   uint8_t active;
 317:Core/Src/main.c ****   uint8_t inst;
 318:Core/Src/main.c ****   uint32_t totalBytes;
 319:Core/Src/main.c ****   uint32_t receivedBytes;
 320:Core/Src/main.c **** } SampleUploadState;
 321:Core/Src/main.c **** 
 322:Core/Src/main.c **** static volatile SampleUploadState g_sampleUpload = {0};
 323:Core/Src/main.c **** 
 324:Core/Src/main.c **** typedef struct {
 325:Core/Src/main.c ****   uint8_t active;
 326:Core/Src/main.c ****   uint16_t delaySamples;
 327:Core/Src/main.c ****   uint8_t feedbackQ8;
 328:Core/Src/main.c ****   uint8_t mixQ8;
 329:Core/Src/main.c ****   uint16_t writePos;
 330:Core/Src/main.c **** } TrackEchoState;
 331:Core/Src/main.c **** 
 332:Core/Src/main.c **** typedef struct {
 333:Core/Src/main.c ****   uint8_t active;
 334:Core/Src/main.c ****   uint8_t depthQ8;
 335:Core/Src/main.c ****   uint8_t feedbackQ8;
 336:Core/Src/main.c ****   uint8_t mixQ8;
 337:Core/Src/main.c ****   uint8_t rateStep;
 338:Core/Src/main.c ****   uint16_t writePos;
 339:Core/Src/main.c ****   uint16_t phase;
 340:Core/Src/main.c **** } TrackFlangerState;
 341:Core/Src/main.c **** 
 342:Core/Src/main.c **** typedef struct {
 343:Core/Src/main.c ****   uint8_t active;
 344:Core/Src/main.c ****   uint16_t thresholdQ15;
 345:Core/Src/main.c ****   uint8_t ratioQ8;
 346:Core/Src/main.c ****   uint16_t envQ15;
 347:Core/Src/main.c **** } TrackCompState;
 348:Core/Src/main.c **** 
 349:Core/Src/main.c **** typedef struct {
 350:Core/Src/main.c ****   uint8_t active;
 351:Core/Src/main.c ****   uint8_t sourceTrack;
 352:Core/Src/main.c ****   uint16_t destinationMask;
 353:Core/Src/main.c ****   uint8_t amountQ8;
 354:Core/Src/main.c ****   uint8_t attackK;
 355:Core/Src/main.c ****   uint8_t releaseK;
 356:Core/Src/main.c ****   uint16_t envQ15;
 357:Core/Src/main.c **** } SidechainState;
 358:Core/Src/main.c **** 
 359:Core/Src/main.c **** static TrackEchoState g_trackEcho[NUM_INSTRUMENTS];
 360:Core/Src/main.c **** static TrackFlangerState g_trackFlanger[NUM_INSTRUMENTS];
 361:Core/Src/main.c **** static TrackCompState g_trackComp[NUM_INSTRUMENTS];
 362:Core/Src/main.c **** static SidechainState g_sidechain = {0};
 363:Core/Src/main.c **** static int16_t g_trackEchoBuf[NUM_INSTRUMENTS][TRACK_FX_BUF_SAMPLES] __attribute__((section(".ccmra
 364:Core/Src/main.c **** static int16_t g_trackFlangerBuf[NUM_INSTRUMENTS][TRACK_FX_BUF_SAMPLES] __attribute__((section(".cc
 365:Core/Src/main.c **** 
 366:Core/Src/main.c **** void SystemClock_Config(void);
 367:Core/Src/main.c **** static void MX_GPIO_Init(void);
 368:Core/Src/main.c **** static void MX_DMA_Init(void);
 369:Core/Src/main.c **** static void MX_I2S2_Init(void);
 370:Core/Src/main.c **** static void MX_SPI1_Init(void);
 371:Core/Src/main.c **** static void MX_SDIO_SD_Init(void);
 372:Core/Src/main.c **** 
ARM GAS  C:\Users\cesco\AppData\Local\Temp\ccHBw06Y.s 			page 8


 373:Core/Src/main.c **** static void Debug_LED_Init(void);
 374:Core/Src/main.c **** static void Debug_LED_Blink(int times);
 375:Core/Src/main.c **** 
 376:Core/Src/main.c **** static int SD_ReadSectors(uint32_t lba, uint8_t *buf, uint32_t count);
 377:Core/Src/main.c **** static int FAT32_Init(Fat32Info *fs);
 378:Core/Src/main.c **** static uint32_t FAT32_ClusterToLba(const Fat32Info *fs, uint32_t cluster);
 379:Core/Src/main.c **** static int FAT32_NextCluster(const Fat32Info *fs, uint32_t cluster, uint32_t *next_cluster);
 380:Core/Src/main.c **** static int FAT32_FindRootDirCluster(const Fat32Info *fs, const char *dirName, uint32_t *cluster_out
 381:Core/Src/main.c **** static int FAT32_OpenWavInDirByIndex(const Fat32Info *fs, uint32_t dir_cluster, uint32_t wav_index,
 382:Core/Src/main.c **** static int FAT32_OpenWavByName(const Fat32Info *fs, uint32_t dir_cluster, const char *target, FileC
 383:Core/Src/main.c **** static int LoadInstrumentFromFile(const char *dirName, const char *fileName, InstrumentSample *out)
 384:Core/Src/main.c **** 
 385:Core/Src/main.c **** static int File_Read(FileCtx *file, uint8_t *dst, uint32_t bytes, uint32_t *read_bytes);
 386:Core/Src/main.c **** static int File_Skip(FileCtx *file, uint32_t bytes);
 387:Core/Src/main.c **** static int WAV_ReadHeader(FileCtx *file, WavInfo *wav);
 388:Core/Src/main.c **** static int LoadInstrumentFromFolder(const char *folderName, InstrumentSample *out);
 389:Core/Src/main.c **** 
 390:Core/Src/main.c **** static int16_t ClipS16(int32_t x);
 391:Core/Src/main.c **** static void TriggerVoice(uint8_t inst, int16_t gain_q15, int8_t pan);
 392:Core/Src/main.c **** static void ProcessSpiTriggers(void);
 393:Core/Src/main.c **** static uint16_t SpiCrc16(const uint8_t *data, uint16_t len);
 394:Core/Src/main.c **** static void SpiQueueTrigger(uint8_t pad, uint8_t vel);
 395:Core/Src/main.c **** static void SpiEnqueueResponse(uint8_t cmd, uint16_t sequence, const uint8_t *payload, uint16_t len
 396:Core/Src/main.c **** static void SpiHandleCommand(uint8_t cmd, const uint8_t *payload, uint16_t len, uint16_t seq);
 397:Core/Src/main.c **** static void SpiRearmReceive(void);
 398:Core/Src/main.c **** static void ProcessSequencerStep(void);
 399:Core/Src/main.c **** static void RenderDemoBuffer(uint16_t *dst, uint32_t words);
 400:Core/Src/main.c **** 
 401:Core/Src/main.c **** static uint16_t le16(const uint8_t *p) { return (uint16_t)(p[0] | (p[1] << 8)); }
  29              		.loc 1 401 40 view -0
  30              		.cfi_startproc
  31              		@ args = 0, pretend = 0, frame = 0
  32              		@ frame_needed = 0, uses_anonymous_args = 0
  33              		@ link register save eliminated.
  34              		.loc 1 401 42 view .LVU1
  35              		.loc 1 401 61 is_stmt 0 view .LVU2
  36 0000 0378     		ldrb	r3, [r0]	@ zero_extendqisi2
  37              		.loc 1 401 69 view .LVU3
  38 0002 4078     		ldrb	r0, [r0, #1]	@ zero_extendqisi2
  39              	.LVL1:
  40              		.loc 1 401 81 view .LVU4
  41 0004 43EA0020 		orr	r0, r3, r0, lsl #8
  42 0008 7047     		bx	lr
  43              		.cfi_endproc
  44              	.LFE134:
  46              		.section	.text.le32,"ax",%progbits
  47              		.align	1
  48              		.syntax unified
  49              		.thumb
  50              		.thumb_func
  52              	le32:
  53              	.LVL2:
  54              	.LFB135:
 402:Core/Src/main.c **** static uint32_t le32(const uint8_t *p) { return (uint32_t)(p[0] | (p[1] << 8) | (p[2] << 16) | (p[3
  55              		.loc 1 402 40 is_stmt 1 view -0
  56              		.cfi_startproc
  57              		@ args = 0, pretend = 0, frame = 0
ARM GAS  C:\Users\cesco\AppData\Local\Temp\ccHBw06Y.s 			page 9


  58              		@ frame_needed = 0, uses_anonymous_args = 0
  59              		@ link register save eliminated.
  60              		.loc 1 402 42 view .LVU6
  61              		.loc 1 402 61 is_stmt 0 view .LVU7
  62 0000 0378     		ldrb	r3, [r0]	@ zero_extendqisi2
  63              		.loc 1 402 69 view .LVU8
  64 0002 4278     		ldrb	r2, [r0, #1]	@ zero_extendqisi2
  65              		.loc 1 402 65 view .LVU9
  66 0004 43EA0223 		orr	r3, r3, r2, lsl #8
  67              		.loc 1 402 83 view .LVU10
  68 0008 8278     		ldrb	r2, [r0, #2]	@ zero_extendqisi2
  69              		.loc 1 402 79 view .LVU11
  70 000a 43EA0243 		orr	r3, r3, r2, lsl #16
  71              		.loc 1 402 98 view .LVU12
  72 000e C078     		ldrb	r0, [r0, #3]	@ zero_extendqisi2
  73              	.LVL3:
  74              		.loc 1 402 111 view .LVU13
  75 0010 43EA0060 		orr	r0, r3, r0, lsl #24
  76 0014 7047     		bx	lr
  77              		.cfi_endproc
  78              	.LFE135:
  80              		.section	.text.ApplySoftDist,"ax",%progbits
  81              		.align	1
  82              		.syntax unified
  83              		.thumb
  84              		.thumb_func
  86              	ApplySoftDist:
  87              	.LVL4:
  88              	.LFB136:
 403:Core/Src/main.c **** 
 404:Core/Src/main.c **** static int32_t ApplySoftDist(int32_t sample, uint8_t amountQ8)
 405:Core/Src/main.c **** {
  89              		.loc 1 405 1 is_stmt 1 view -0
  90              		.cfi_startproc
  91              		@ args = 0, pretend = 0, frame = 0
  92              		@ frame_needed = 0, uses_anonymous_args = 0
  93              		@ link register save eliminated.
 406:Core/Src/main.c ****   if (amountQ8 == 0U) return sample;
  94              		.loc 1 406 3 view .LVU15
  95              		.loc 1 406 6 is_stmt 0 view .LVU16
  96 0000 89B1     		cbz	r1, .L3
 407:Core/Src/main.c ****   int32_t driveQ8 = 256 + ((int32_t)amountQ8 * 3);
  97              		.loc 1 407 3 is_stmt 1 view .LVU17
  98              		.loc 1 407 46 is_stmt 0 view .LVU18
  99 0002 01EB4103 		add	r3, r1, r1, lsl #1
 100              		.loc 1 407 11 view .LVU19
 101 0006 03F58073 		add	r3, r3, #256
 102              	.LVL5:
 408:Core/Src/main.c ****   int32_t x = (sample * driveQ8) >> 8;
 103              		.loc 1 408 3 is_stmt 1 view .LVU20
 104              		.loc 1 408 23 is_stmt 0 view .LVU21
 105 000a 03FB00F0 		mul	r0, r3, r0
 106              	.LVL6:
 107              		.loc 1 408 11 view .LVU22
 108 000e 0012     		asrs	r0, r0, #8
 109              	.LVL7:
 409:Core/Src/main.c ****   int32_t absx = (x < 0) ? -x : x;
ARM GAS  C:\Users\cesco\AppData\Local\Temp\ccHBw06Y.s 			page 10


 110              		.loc 1 409 3 is_stmt 1 view .LVU23
 111              		.loc 1 409 11 is_stmt 0 view .LVU24
 112 0010 80EAE073 		eor	r3, r0, r0, asr #31
 113              	.LVL8:
 114              		.loc 1 409 11 view .LVU25
 115 0014 A3EBE073 		sub	r3, r3, r0, asr #31
 116              	.LVL9:
 410:Core/Src/main.c ****   int32_t y = (x * 32767) / (32767 + absx);
 117              		.loc 1 410 3 is_stmt 1 view .LVU26
 118              		.loc 1 410 18 is_stmt 0 view .LVU27
 119 0018 C0EBC030 		rsb	r0, r0, r0, lsl #15
 120              	.LVL10:
 121              		.loc 1 410 36 view .LVU28
 122 001c 03F5FF43 		add	r3, r3, #32640
 123              	.LVL11:
 124              		.loc 1 410 36 view .LVU29
 125 0020 7F33     		adds	r3, r3, #127
 126              	.LVL12:
 127              		.loc 1 410 11 view .LVU30
 128 0022 90FBF3F0 		sdiv	r0, r0, r3
 129              	.LVL13:
 411:Core/Src/main.c ****   return y;
 130              		.loc 1 411 3 is_stmt 1 view .LVU31
 131              	.L3:
 412:Core/Src/main.c **** }
 132              		.loc 1 412 1 is_stmt 0 view .LVU32
 133 0026 7047     		bx	lr
 134              		.cfi_endproc
 135              	.LFE136:
 137              		.section	.text.CutoffHzToQ8,"ax",%progbits
 138              		.align	1
 139              		.syntax unified
 140              		.thumb
 141              		.thumb_func
 143              	CutoffHzToQ8:
 144              	.LVL14:
 145              	.LFB138:
 413:Core/Src/main.c **** 
 414:Core/Src/main.c **** static int32_t ApplyBitCrush(int32_t sample, uint8_t bits)
 415:Core/Src/main.c **** {
 416:Core/Src/main.c ****   if (bits >= 16U) return sample;
 417:Core/Src/main.c ****   if (bits < 4U) bits = 4U;
 418:Core/Src/main.c ****   int32_t shift = 16 - bits;
 419:Core/Src/main.c ****   int32_t s = ClipS16(sample);
 420:Core/Src/main.c ****   s = (s >> shift) << shift;
 421:Core/Src/main.c ****   return s;
 422:Core/Src/main.c **** }
 423:Core/Src/main.c **** 
 424:Core/Src/main.c **** static uint8_t CutoffHzToQ8(float cutoffHz)
 425:Core/Src/main.c **** {
 146              		.loc 1 425 1 is_stmt 1 view -0
 147              		.cfi_startproc
 148              		@ args = 0, pretend = 0, frame = 0
 149              		@ frame_needed = 0, uses_anonymous_args = 0
 150              		@ link register save eliminated.
 426:Core/Src/main.c ****   if (cutoffHz < 20.0f) cutoffHz = 20.0f;
 151              		.loc 1 426 3 view .LVU34
ARM GAS  C:\Users\cesco\AppData\Local\Temp\ccHBw06Y.s 			page 11


 152              		.loc 1 426 6 is_stmt 0 view .LVU35
 153 0000 F3EE047A 		vmov.f32	s15, #2.0e+1
 154 0004 B4EEE70A 		vcmpe.f32	s0, s15
 155 0008 F1EE10FA 		vmrs	APSR_nzcv, FPSCR
 156 000c 09D4     		bmi	.L9
 427:Core/Src/main.c ****   if (cutoffHz > 20000.0f) cutoffHz = 20000.0f;
 157              		.loc 1 427 3 is_stmt 1 view .LVU36
 158              		.loc 1 427 6 is_stmt 0 view .LVU37
 159 000e DFED107A 		vldr.32	s15, .L12
 160 0012 B4EEE70A 		vcmpe.f32	s0, s15
 161 0016 F1EE10FA 		vmrs	APSR_nzcv, FPSCR
 162 001a 04DD     		ble	.L7
 163              		.loc 1 427 37 discriminator 1 view .LVU38
 164 001c 9FED0C0A 		vldr.32	s0, .L12
 165              	.LVL15:
 166              		.loc 1 427 37 discriminator 1 view .LVU39
 167 0020 01E0     		b	.L7
 168              	.LVL16:
 169              	.L9:
 426:Core/Src/main.c ****   if (cutoffHz < 20.0f) cutoffHz = 20.0f;
 170              		.loc 1 426 34 discriminator 1 view .LVU40
 171 0022 B3EE040A 		vmov.f32	s0, #2.0e+1
 172              	.LVL17:
 173              	.L7:
 428:Core/Src/main.c ****   float norm = (cutoffHz - 20.0f) / (20000.0f - 20.0f);
 174              		.loc 1 428 3 is_stmt 1 view .LVU41
 175              		.loc 1 428 26 is_stmt 0 view .LVU42
 176 0026 F3EE047A 		vmov.f32	s15, #2.0e+1
 177 002a 30EE670A 		vsub.f32	s0, s0, s15
 178              	.LVL18:
 179              		.loc 1 428 9 view .LVU43
 180 002e 9FED097A 		vldr.32	s14, .L12+4
 181 0032 C0EE077A 		vdiv.f32	s15, s0, s14
 182              	.LVL19:
 429:Core/Src/main.c ****   uint32_t q = (uint32_t)(norm * 255.0f);
 183              		.loc 1 429 3 is_stmt 1 view .LVU44
 184              		.loc 1 429 32 is_stmt 0 view .LVU45
 185 0036 9FED087A 		vldr.32	s14, .L12+8
 186 003a 67EE877A 		vmul.f32	s15, s15, s14
 187              	.LVL20:
 188              		.loc 1 429 12 view .LVU46
 189 003e FCEEE77A 		vcvt.u32.f32	s15, s15
 190 0042 17EE900A 		vmov	r0, s15	@ int
 191              	.LVL21:
 430:Core/Src/main.c ****   if (q > 255U) q = 255U;
 192              		.loc 1 430 3 is_stmt 1 view .LVU47
 193              		.loc 1 430 6 is_stmt 0 view .LVU48
 194 0046 FF28     		cmp	r0, #255
 195 0048 00D9     		bls	.L8
 196              		.loc 1 430 19 discriminator 1 view .LVU49
 197 004a FF20     		movs	r0, #255
 198              	.LVL22:
 199              	.L8:
 431:Core/Src/main.c ****   return (uint8_t)q;
 200              		.loc 1 431 3 is_stmt 1 view .LVU50
 432:Core/Src/main.c **** }
 201              		.loc 1 432 1 is_stmt 0 view .LVU51
ARM GAS  C:\Users\cesco\AppData\Local\Temp\ccHBw06Y.s 			page 12


 202 004c C0B2     		uxtb	r0, r0
 203              	.LVL23:
 204              		.loc 1 432 1 view .LVU52
 205 004e 7047     		bx	lr
 206              	.L13:
 207              		.align	2
 208              	.L12:
 209 0050 00409C46 		.word	1184645120
 210 0054 00189C46 		.word	1184634880
 211 0058 00007F43 		.word	1132396544
 212              		.cfi_endproc
 213              	.LFE138:
 215              		.section	.text.ResonanceToQ8,"ax",%progbits
 216              		.align	1
 217              		.syntax unified
 218              		.thumb
 219              		.thumb_func
 221              	ResonanceToQ8:
 222              	.LVL24:
 223              	.LFB139:
 433:Core/Src/main.c **** 
 434:Core/Src/main.c **** static uint8_t ResonanceToQ8(float resonance)
 435:Core/Src/main.c **** {
 224              		.loc 1 435 1 is_stmt 1 view -0
 225              		.cfi_startproc
 226              		@ args = 0, pretend = 0, frame = 0
 227              		@ frame_needed = 0, uses_anonymous_args = 0
 228              		@ link register save eliminated.
 436:Core/Src/main.c ****   if (resonance < 0.1f) resonance = 0.1f;
 229              		.loc 1 436 3 view .LVU54
 230              		.loc 1 436 6 is_stmt 0 view .LVU55
 231 0000 DFED137A 		vldr.32	s15, .L20
 232 0004 B4EEE70A 		vcmpe.f32	s0, s15
 233 0008 F1EE10FA 		vmrs	APSR_nzcv, FPSCR
 234 000c 09D4     		bmi	.L17
 437:Core/Src/main.c ****   if (resonance > 30.0f) resonance = 30.0f;
 235              		.loc 1 437 3 is_stmt 1 view .LVU56
 236              		.loc 1 437 6 is_stmt 0 view .LVU57
 237 000e F3EE0E7A 		vmov.f32	s15, #3.0e+1
 238 0012 B4EEE70A 		vcmpe.f32	s0, s15
 239 0016 F1EE10FA 		vmrs	APSR_nzcv, FPSCR
 240 001a 04DD     		ble	.L15
 241              		.loc 1 437 36 discriminator 1 view .LVU58
 242 001c B3EE0E0A 		vmov.f32	s0, #3.0e+1
 243              	.LVL25:
 244              		.loc 1 437 36 discriminator 1 view .LVU59
 245 0020 01E0     		b	.L15
 246              	.LVL26:
 247              	.L17:
 436:Core/Src/main.c ****   if (resonance < 0.1f) resonance = 0.1f;
 248              		.loc 1 436 35 discriminator 1 view .LVU60
 249 0022 9FED0B0A 		vldr.32	s0, .L20
 250              	.LVL27:
 251              	.L15:
 438:Core/Src/main.c ****   float norm = (resonance - 0.1f) / (30.0f - 0.1f);
 252              		.loc 1 438 3 is_stmt 1 view .LVU61
 253              		.loc 1 438 27 is_stmt 0 view .LVU62
ARM GAS  C:\Users\cesco\AppData\Local\Temp\ccHBw06Y.s 			page 13


 254 0026 DFED0A7A 		vldr.32	s15, .L20
 255 002a 30EE670A 		vsub.f32	s0, s0, s15
 256              	.LVL28:
 257              		.loc 1 438 9 view .LVU63
 258 002e 9FED097A 		vldr.32	s14, .L20+4
 259 0032 C0EE077A 		vdiv.f32	s15, s0, s14
 260              	.LVL29:
 439:Core/Src/main.c ****   uint32_t q = (uint32_t)(norm * 255.0f);
 261              		.loc 1 439 3 is_stmt 1 view .LVU64
 262              		.loc 1 439 32 is_stmt 0 view .LVU65
 263 0036 9FED087A 		vldr.32	s14, .L20+8
 264 003a 67EE877A 		vmul.f32	s15, s15, s14
 265              	.LVL30:
 266              		.loc 1 439 12 view .LVU66
 267 003e FCEEE77A 		vcvt.u32.f32	s15, s15
 268 0042 17EE900A 		vmov	r0, s15	@ int
 269              	.LVL31:
 440:Core/Src/main.c ****   if (q > 255U) q = 255U;
 270              		.loc 1 440 3 is_stmt 1 view .LVU67
 271              		.loc 1 440 6 is_stmt 0 view .LVU68
 272 0046 FF28     		cmp	r0, #255
 273 0048 00D9     		bls	.L16
 274              		.loc 1 440 19 discriminator 1 view .LVU69
 275 004a FF20     		movs	r0, #255
 276              	.LVL32:
 277              	.L16:
 441:Core/Src/main.c ****   return (uint8_t)q;
 278              		.loc 1 441 3 is_stmt 1 view .LVU70
 442:Core/Src/main.c **** }
 279              		.loc 1 442 1 is_stmt 0 view .LVU71
 280 004c C0B2     		uxtb	r0, r0
 281              	.LVL33:
 282              		.loc 1 442 1 view .LVU72
 283 004e 7047     		bx	lr
 284              	.L21:
 285              		.align	2
 286              	.L20:
 287 0050 CDCCCC3D 		.word	1036831949
 288 0054 3333EF41 		.word	1106195251
 289 0058 00007F43 		.word	1132396544
 290              		.cfi_endproc
 291              	.LFE139:
 293              		.section	.text.ApplyGlobalDistMode,"ax",%progbits
 294              		.align	1
 295              		.syntax unified
 296              		.thumb
 297              		.thumb_func
 299              	ApplyGlobalDistMode:
 300              	.LVL34:
 301              	.LFB141:
 443:Core/Src/main.c **** 
 444:Core/Src/main.c **** static int32_t ApplyOnePoleFilter(int32_t sample, uint8_t type, uint8_t cutQ8, uint8_t resQ8, int32
 445:Core/Src/main.c **** {
 446:Core/Src/main.c ****   if (type == 0U) return sample;
 447:Core/Src/main.c ****   int32_t alpha = 8 + ((int32_t)cutQ8 * 120);
 448:Core/Src/main.c ****   int32_t lp = *state + (((sample - *state) * alpha) >> 15);
 449:Core/Src/main.c ****   *state = lp;
ARM GAS  C:\Users\cesco\AppData\Local\Temp\ccHBw06Y.s 			page 14


 450:Core/Src/main.c ****   int32_t out = (type == 2U) ? (sample - lp) : lp;
 451:Core/Src/main.c ****   int32_t makeUp = 256 + ((int32_t)resQ8 >> 2);
 452:Core/Src/main.c ****   out = (out * makeUp) >> 8;
 453:Core/Src/main.c ****   return ClipS16(out);
 454:Core/Src/main.c **** }
 455:Core/Src/main.c **** 
 456:Core/Src/main.c **** static int32_t ApplyGlobalDistMode(int32_t sample)
 457:Core/Src/main.c **** {
 302              		.loc 1 457 1 is_stmt 1 view -0
 303              		.cfi_startproc
 304              		@ args = 0, pretend = 0, frame = 0
 305              		@ frame_needed = 0, uses_anonymous_args = 0
 306              		.loc 1 457 1 is_stmt 0 view .LVU74
 307 0000 08B5     		push	{r3, lr}
 308              	.LCFI0:
 309              		.cfi_def_cfa_offset 8
 310              		.cfi_offset 3, -8
 311              		.cfi_offset 14, -4
 458:Core/Src/main.c ****   if (g_globalDistQ8 == 0U) return sample;
 312              		.loc 1 458 3 is_stmt 1 view .LVU75
 313              		.loc 1 458 22 is_stmt 0 view .LVU76
 314 0002 1C4B     		ldr	r3, .L32
 315 0004 1B78     		ldrb	r3, [r3]	@ zero_extendqisi2
 316              		.loc 1 458 6 view .LVU77
 317 0006 FBB1     		cbz	r3, .L22
 459:Core/Src/main.c ****   switch (g_globalDistMode)
 318              		.loc 1 459 3 is_stmt 1 view .LVU78
 319 0008 1B4B     		ldr	r3, .L32+4
 320 000a 1B78     		ldrb	r3, [r3]	@ zero_extendqisi2
 321 000c DAB2     		uxtb	r2, r3
 322 000e 022B     		cmp	r3, #2
 323 0010 13D0     		beq	.L24
 324 0012 032A     		cmp	r2, #3
 325 0014 19D0     		beq	.L25
 326 0016 012A     		cmp	r2, #1
 327 0018 24D1     		bne	.L26
 328              	.LBB11:
 460:Core/Src/main.c ****   {
 461:Core/Src/main.c ****     case 1U:
 462:Core/Src/main.c ****     {
 463:Core/Src/main.c ****       int32_t drive = 256 + ((int32_t)g_globalDistQ8 * 4);
 329              		.loc 1 463 7 view .LVU79
 330              		.loc 1 463 30 is_stmt 0 view .LVU80
 331 001a 164B     		ldr	r3, .L32
 332 001c 1B78     		ldrb	r3, [r3]	@ zero_extendqisi2
 333              		.loc 1 463 27 view .LVU81
 334 001e 4033     		adds	r3, r3, #64
 335              	.LVL35:
 464:Core/Src/main.c ****       int32_t x = (sample * drive) >> 8;
 336              		.loc 1 464 7 is_stmt 1 view .LVU82
 337              		.loc 1 464 27 is_stmt 0 view .LVU83
 338 0020 00FB03F3 		mul	r3, r0, r3
 339              	.LVL36:
 340              		.loc 1 464 15 view .LVU84
 341 0024 43F39710 		sbfx	r0, r3, #6, #24
 342              	.LVL37:
 465:Core/Src/main.c ****       if (x > 22000) x = 22000;
ARM GAS  C:\Users\cesco\AppData\Local\Temp\ccHBw06Y.s 			page 15


 343              		.loc 1 465 7 is_stmt 1 view .LVU85
 344              		.loc 1 465 10 is_stmt 0 view .LVU86
 345 0028 45F2F053 		movw	r3, #22000
 346 002c 9842     		cmp	r0, r3
 347 002e 1EDC     		bgt	.L28
 466:Core/Src/main.c ****       if (x < -22000) x = -22000;
 348              		.loc 1 466 7 is_stmt 1 view .LVU87
 349              		.loc 1 466 10 is_stmt 0 view .LVU88
 350 0030 124B     		ldr	r3, .L32+8
 351 0032 9842     		cmp	r0, r3
 352 0034 08DA     		bge	.L22
 353              		.loc 1 466 25 discriminator 1 view .LVU89
 354 0036 1148     		ldr	r0, .L32+8
 355              	.LVL38:
 356              		.loc 1 466 25 discriminator 1 view .LVU90
 357 0038 06E0     		b	.L22
 358              	.LVL39:
 359              	.L24:
 360              		.loc 1 466 25 discriminator 1 view .LVU91
 361              	.LBE11:
 467:Core/Src/main.c ****       return x;
 468:Core/Src/main.c ****     }
 469:Core/Src/main.c ****     case 2U:
 470:Core/Src/main.c ****       return (sample * (256 + (int32_t)g_globalDistQ8)) >> 8;
 362              		.loc 1 470 7 is_stmt 1 view .LVU92
 363              		.loc 1 470 31 is_stmt 0 view .LVU93
 364 003a 0E4B     		ldr	r3, .L32
 365 003c 1B78     		ldrb	r3, [r3]	@ zero_extendqisi2
 366              		.loc 1 470 29 view .LVU94
 367 003e 03F58073 		add	r3, r3, #256
 368              		.loc 1 470 22 view .LVU95
 369 0042 00FB03F3 		mul	r3, r0, r3
 370              		.loc 1 470 57 view .LVU96
 371 0046 1812     		asrs	r0, r3, #8
 372              	.LVL40:
 373              	.L22:
 471:Core/Src/main.c ****     case 3U:
 472:Core/Src/main.c ****     {
 473:Core/Src/main.c ****       int32_t x = ApplySoftDist(sample, g_globalDistQ8);
 474:Core/Src/main.c ****       int32_t a = (x < 0) ? -x : x;
 475:Core/Src/main.c ****       if (a < 600) x = 0;
 476:Core/Src/main.c ****       return x;
 477:Core/Src/main.c ****     }
 478:Core/Src/main.c ****     default:
 479:Core/Src/main.c ****       return ApplySoftDist(sample, g_globalDistQ8);
 480:Core/Src/main.c ****   }
 481:Core/Src/main.c **** }
 374              		.loc 1 481 1 view .LVU97
 375 0048 08BD     		pop	{r3, pc}
 376              	.LVL41:
 377              	.L25:
 378              	.LBB12:
 473:Core/Src/main.c ****       int32_t a = (x < 0) ? -x : x;
 379              		.loc 1 473 7 is_stmt 1 view .LVU98
 473:Core/Src/main.c ****       int32_t a = (x < 0) ? -x : x;
 380              		.loc 1 473 19 is_stmt 0 view .LVU99
 381 004a 0A4B     		ldr	r3, .L32
ARM GAS  C:\Users\cesco\AppData\Local\Temp\ccHBw06Y.s 			page 16


 382 004c 1978     		ldrb	r1, [r3]	@ zero_extendqisi2
 383 004e FFF7FEFF 		bl	ApplySoftDist
 384              	.LVL42:
 474:Core/Src/main.c ****       if (a < 600) x = 0;
 385              		.loc 1 474 7 is_stmt 1 view .LVU100
 474:Core/Src/main.c ****       if (a < 600) x = 0;
 386              		.loc 1 474 15 is_stmt 0 view .LVU101
 387 0052 80EAE073 		eor	r3, r0, r0, asr #31
 388 0056 A3EBE073 		sub	r3, r3, r0, asr #31
 389              	.LVL43:
 475:Core/Src/main.c ****       return x;
 390              		.loc 1 475 7 is_stmt 1 view .LVU102
 475:Core/Src/main.c ****       return x;
 391              		.loc 1 475 10 is_stmt 0 view .LVU103
 392 005a B3F5167F 		cmp	r3, #600
 393 005e F3DA     		bge	.L22
 475:Core/Src/main.c ****       return x;
 394              		.loc 1 475 22 discriminator 1 view .LVU104
 395 0060 0020     		movs	r0, #0
 396              	.LVL44:
 475:Core/Src/main.c ****       return x;
 397              		.loc 1 475 22 discriminator 1 view .LVU105
 398 0062 F1E7     		b	.L22
 399              	.LVL45:
 400              	.L26:
 475:Core/Src/main.c ****       return x;
 401              		.loc 1 475 22 discriminator 1 view .LVU106
 402              	.LBE12:
 479:Core/Src/main.c ****   }
 403              		.loc 1 479 7 is_stmt 1 view .LVU107
 479:Core/Src/main.c ****   }
 404              		.loc 1 479 14 is_stmt 0 view .LVU108
 405 0064 034B     		ldr	r3, .L32
 406 0066 1978     		ldrb	r1, [r3]	@ zero_extendqisi2
 407 0068 FFF7FEFF 		bl	ApplySoftDist
 408              	.LVL46:
 479:Core/Src/main.c ****   }
 409              		.loc 1 479 14 view .LVU109
 410 006c ECE7     		b	.L22
 411              	.LVL47:
 412              	.L28:
 413              	.LBB13:
 465:Core/Src/main.c ****       if (x < -22000) x = -22000;
 414              		.loc 1 465 24 discriminator 1 view .LVU110
 415 006e 45F2F050 		movw	r0, #22000
 416              	.LVL48:
 465:Core/Src/main.c ****       if (x < -22000) x = -22000;
 417              		.loc 1 465 24 discriminator 1 view .LVU111
 418 0072 E9E7     		b	.L22
 419              	.L33:
 420              		.align	2
 421              	.L32:
 422 0074 00000000 		.word	g_globalDistQ8
 423 0078 00000000 		.word	g_globalDistMode
 424 007c 10AAFFFF 		.word	-22000
 425              	.LBE13:
 426              		.cfi_endproc
ARM GAS  C:\Users\cesco\AppData\Local\Temp\ccHBw06Y.s 			page 17


 427              	.LFE141:
 429              		.section	.text.FastRandU32,"ax",%progbits
 430              		.align	1
 431              		.syntax unified
 432              		.thumb
 433              		.thumb_func
 435              	FastRandU32:
 436              	.LFB142:
 482:Core/Src/main.c **** 
 483:Core/Src/main.c **** static uint32_t FastRandU32(void)
 484:Core/Src/main.c **** {
 437              		.loc 1 484 1 is_stmt 1 view -0
 438              		.cfi_startproc
 439              		@ args = 0, pretend = 0, frame = 0
 440              		@ frame_needed = 0, uses_anonymous_args = 0
 441              		@ link register save eliminated.
 485:Core/Src/main.c ****   g_noiseState = (g_noiseState * 1664525U) + 1013904223U;
 442              		.loc 1 485 3 view .LVU113
 443              		.loc 1 485 32 is_stmt 0 view .LVU114
 444 0000 034B     		ldr	r3, .L35
 445 0002 1A68     		ldr	r2, [r3]
 446              		.loc 1 485 44 view .LVU115
 447 0004 0349     		ldr	r1, .L35+4
 448 0006 0448     		ldr	r0, .L35+8
 449 0008 01FB0200 		mla	r0, r1, r2, r0
 450              		.loc 1 485 16 view .LVU116
 451 000c 1860     		str	r0, [r3]
 486:Core/Src/main.c ****   return g_noiseState;
 452              		.loc 1 486 3 is_stmt 1 view .LVU117
 487:Core/Src/main.c **** }
 453              		.loc 1 487 1 is_stmt 0 view .LVU118
 454 000e 7047     		bx	lr
 455              	.L36:
 456              		.align	2
 457              	.L35:
 458 0010 00000000 		.word	g_noiseState
 459 0014 0D661900 		.word	1664525
 460 0018 5FF36E3C 		.word	1013904223
 461              		.cfi_endproc
 462              	.LFE142:
 464              		.section	.text.FAT32_ClusterToLba,"ax",%progbits
 465              		.align	1
 466              		.syntax unified
 467              		.thumb
 468              		.thumb_func
 470              	FAT32_ClusterToLba:
 471              	.LVL49:
 472              	.LFB147:
 488:Core/Src/main.c **** 
 489:Core/Src/main.c **** static void Debug_LED_Init(void)
 490:Core/Src/main.c **** {
 491:Core/Src/main.c ****   __HAL_RCC_GPIOE_CLK_ENABLE();
 492:Core/Src/main.c ****   __HAL_RCC_GPIOA_CLK_ENABLE();
 493:Core/Src/main.c ****   __HAL_RCC_GPIOD_CLK_ENABLE();
 494:Core/Src/main.c **** 
 495:Core/Src/main.c ****   GPIO_InitTypeDef gi = {0};
 496:Core/Src/main.c ****   gi.Mode = GPIO_MODE_OUTPUT_PP;
ARM GAS  C:\Users\cesco\AppData\Local\Temp\ccHBw06Y.s 			page 18


 497:Core/Src/main.c ****   gi.Pull = GPIO_NOPULL;
 498:Core/Src/main.c ****   gi.Speed = GPIO_SPEED_FREQ_LOW;
 499:Core/Src/main.c **** 
 500:Core/Src/main.c ****   gi.Pin = DEBUG_LED_PIN;
 501:Core/Src/main.c ****   HAL_GPIO_Init(DEBUG_LED_PORT, &gi);
 502:Core/Src/main.c ****   gi.Pin = DEBUG_LED2_PIN;
 503:Core/Src/main.c ****   HAL_GPIO_Init(DEBUG_LED2_PORT, &gi);
 504:Core/Src/main.c ****   gi.Pin = DEBUG_LED3_PIN;
 505:Core/Src/main.c ****   HAL_GPIO_Init(DEBUG_LED3_PORT, &gi);
 506:Core/Src/main.c **** }
 507:Core/Src/main.c **** 
 508:Core/Src/main.c **** static void Debug_LED_Blink(int times)
 509:Core/Src/main.c **** {
 510:Core/Src/main.c ****   for (int i = 0; i < times; i++)
 511:Core/Src/main.c ****   {
 512:Core/Src/main.c ****     HAL_GPIO_WritePin(DEBUG_LED_PORT, DEBUG_LED_PIN, GPIO_PIN_SET);
 513:Core/Src/main.c ****     HAL_GPIO_WritePin(DEBUG_LED2_PORT, DEBUG_LED2_PIN, GPIO_PIN_SET);
 514:Core/Src/main.c ****     HAL_GPIO_WritePin(DEBUG_LED3_PORT, DEBUG_LED3_PIN, GPIO_PIN_SET);
 515:Core/Src/main.c ****     HAL_Delay(120);
 516:Core/Src/main.c ****     HAL_GPIO_WritePin(DEBUG_LED_PORT, DEBUG_LED_PIN, GPIO_PIN_RESET);
 517:Core/Src/main.c ****     HAL_GPIO_WritePin(DEBUG_LED2_PORT, DEBUG_LED2_PIN, GPIO_PIN_RESET);
 518:Core/Src/main.c ****     HAL_GPIO_WritePin(DEBUG_LED3_PORT, DEBUG_LED3_PIN, GPIO_PIN_RESET);
 519:Core/Src/main.c ****     HAL_Delay(120);
 520:Core/Src/main.c ****   }
 521:Core/Src/main.c **** }
 522:Core/Src/main.c **** 
 523:Core/Src/main.c **** static int SD_ReadSectors(uint32_t lba, uint8_t *buf, uint32_t count)
 524:Core/Src/main.c **** {
 525:Core/Src/main.c ****   if (HAL_SD_ReadBlocks(&hsd, buf, lba, count, HAL_MAX_DELAY) != HAL_OK) return -1;
 526:Core/Src/main.c ****   while (HAL_SD_GetCardState(&hsd) != HAL_SD_CARD_TRANSFER) {}
 527:Core/Src/main.c ****   return 0;
 528:Core/Src/main.c **** }
 529:Core/Src/main.c **** 
 530:Core/Src/main.c **** static int FAT32_Init(Fat32Info *fs)
 531:Core/Src/main.c **** {
 532:Core/Src/main.c ****   uint8_t sec[512];
 533:Core/Src/main.c ****   uint32_t part_lba = 0;
 534:Core/Src/main.c **** 
 535:Core/Src/main.c ****   if (SD_ReadSectors(0, sec, 1) != 0) return -1;
 536:Core/Src/main.c ****   if (sec[510] != 0x55 || sec[511] != 0xAA) return -2;
 537:Core/Src/main.c **** 
 538:Core/Src/main.c ****   if (!(sec[0] == 0xEB || sec[0] == 0xE9))
 539:Core/Src/main.c ****   {
 540:Core/Src/main.c ****     part_lba = le32(&sec[446 + 8]);
 541:Core/Src/main.c ****     if (part_lba == 0) return -3;
 542:Core/Src/main.c ****     if (SD_ReadSectors(part_lba, sec, 1) != 0) return -4;
 543:Core/Src/main.c ****   }
 544:Core/Src/main.c **** 
 545:Core/Src/main.c ****   if (le16(&sec[11]) != 512) return -5;
 546:Core/Src/main.c **** 
 547:Core/Src/main.c ****   uint16_t reserved = le16(&sec[14]);
 548:Core/Src/main.c ****   uint8_t fats = sec[16];
 549:Core/Src/main.c ****   uint32_t sectors_per_fat = le32(&sec[36]);
 550:Core/Src/main.c ****   uint32_t root_cluster = le32(&sec[44]);
 551:Core/Src/main.c **** 
 552:Core/Src/main.c ****   fs->part_lba = part_lba;
 553:Core/Src/main.c ****   fs->sectors_per_cluster = sec[13];
ARM GAS  C:\Users\cesco\AppData\Local\Temp\ccHBw06Y.s 			page 19


 554:Core/Src/main.c ****   fs->sectors_per_fat = sectors_per_fat;
 555:Core/Src/main.c ****   fs->fat_lba = part_lba + reserved;
 556:Core/Src/main.c ****   fs->data_lba = part_lba + reserved + (fats * sectors_per_fat);
 557:Core/Src/main.c ****   fs->root_cluster = root_cluster;
 558:Core/Src/main.c ****   return 0;
 559:Core/Src/main.c **** }
 560:Core/Src/main.c **** 
 561:Core/Src/main.c **** static uint32_t FAT32_ClusterToLba(const Fat32Info *fs, uint32_t cluster)
 562:Core/Src/main.c **** {
 473              		.loc 1 562 1 is_stmt 1 view -0
 474              		.cfi_startproc
 475              		@ args = 0, pretend = 0, frame = 0
 476              		@ frame_needed = 0, uses_anonymous_args = 0
 477              		@ link register save eliminated.
 563:Core/Src/main.c ****   return fs->data_lba + (cluster - 2U) * fs->sectors_per_cluster;
 478              		.loc 1 563 3 view .LVU120
 479              		.loc 1 563 12 is_stmt 0 view .LVU121
 480 0000 8368     		ldr	r3, [r0, #8]
 481              		.loc 1 563 34 view .LVU122
 482 0002 0239     		subs	r1, r1, #2
 483              	.LVL50:
 484              		.loc 1 563 44 view .LVU123
 485 0004 007D     		ldrb	r0, [r0, #20]	@ zero_extendqisi2
 486              	.LVL51:
 564:Core/Src/main.c **** }
 487              		.loc 1 564 1 view .LVU124
 488 0006 00FB0130 		mla	r0, r0, r1, r3
 489 000a 7047     		bx	lr
 490              		.cfi_endproc
 491              	.LFE147:
 493              		.section	.text.EntryCluster,"ax",%progbits
 494              		.align	1
 495              		.syntax unified
 496              		.thumb
 497              		.thumb_func
 499              	EntryCluster:
 500              	.LVL52:
 501              	.LFB149:
 565:Core/Src/main.c **** 
 566:Core/Src/main.c **** static int FAT32_NextCluster(const Fat32Info *fs, uint32_t cluster, uint32_t *next_cluster)
 567:Core/Src/main.c **** {
 568:Core/Src/main.c ****   uint8_t sec[512];
 569:Core/Src/main.c ****   uint32_t fat_offset = cluster * 4U;
 570:Core/Src/main.c ****   uint32_t fat_sector = fs->fat_lba + (fat_offset / 512U);
 571:Core/Src/main.c ****   uint32_t ent_offset = fat_offset % 512U;
 572:Core/Src/main.c **** 
 573:Core/Src/main.c ****   if (SD_ReadSectors(fat_sector, sec, 1) != 0) return -1;
 574:Core/Src/main.c ****   *next_cluster = le32(&sec[ent_offset]) & 0x0FFFFFFFU;
 575:Core/Src/main.c ****   return 0;
 576:Core/Src/main.c **** }
 577:Core/Src/main.c **** 
 578:Core/Src/main.c **** static uint32_t EntryCluster(const uint8_t *entry)
 579:Core/Src/main.c **** {
 502              		.loc 1 579 1 is_stmt 1 view -0
 503              		.cfi_startproc
 504              		@ args = 0, pretend = 0, frame = 0
 505              		@ frame_needed = 0, uses_anonymous_args = 0
ARM GAS  C:\Users\cesco\AppData\Local\Temp\ccHBw06Y.s 			page 20


 506              		.loc 1 579 1 is_stmt 0 view .LVU126
 507 0000 38B5     		push	{r3, r4, r5, lr}
 508              	.LCFI1:
 509              		.cfi_def_cfa_offset 16
 510              		.cfi_offset 3, -16
 511              		.cfi_offset 4, -12
 512              		.cfi_offset 5, -8
 513              		.cfi_offset 14, -4
 514 0002 0446     		mov	r4, r0
 580:Core/Src/main.c ****   uint32_t cl_hi = le16(&entry[20]);
 515              		.loc 1 580 3 is_stmt 1 view .LVU127
 516              		.loc 1 580 20 is_stmt 0 view .LVU128
 517 0004 1430     		adds	r0, r0, #20
 518              	.LVL53:
 519              		.loc 1 580 20 view .LVU129
 520 0006 FFF7FEFF 		bl	le16
 521              	.LVL54:
 522 000a 0546     		mov	r5, r0
 523              	.LVL55:
 581:Core/Src/main.c ****   uint32_t cl_lo = le16(&entry[26]);
 524              		.loc 1 581 3 is_stmt 1 view .LVU130
 525              		.loc 1 581 20 is_stmt 0 view .LVU131
 526 000c 04F11A00 		add	r0, r4, #26
 527              	.LVL56:
 528              		.loc 1 581 20 view .LVU132
 529 0010 FFF7FEFF 		bl	le16
 530              	.LVL57:
 582:Core/Src/main.c ****   return (cl_hi << 16) | cl_lo;
 531              		.loc 1 582 3 is_stmt 1 view .LVU133
 583:Core/Src/main.c **** }
 532              		.loc 1 583 1 is_stmt 0 view .LVU134
 533 0014 40EA0540 		orr	r0, r0, r5, lsl #16
 534              	.LVL58:
 535              		.loc 1 583 1 view .LVU135
 536 0018 38BD     		pop	{r3, r4, r5, pc}
 537              		.loc 1 583 1 view .LVU136
 538              		.cfi_endproc
 539              	.LFE149:
 541              		.section	.text.IsWavEntry,"ax",%progbits
 542              		.align	1
 543              		.syntax unified
 544              		.thumb
 545              		.thumb_func
 547              	IsWavEntry:
 548              	.LVL59:
 549              	.LFB150:
 584:Core/Src/main.c **** 
 585:Core/Src/main.c **** static int IsWavEntry(const uint8_t *entry)
 586:Core/Src/main.c **** {
 550              		.loc 1 586 1 is_stmt 1 view -0
 551              		.cfi_startproc
 552              		@ args = 0, pretend = 0, frame = 0
 553              		@ frame_needed = 0, uses_anonymous_args = 0
 554              		@ link register save eliminated.
 587:Core/Src/main.c ****   uint8_t e0 = entry[8], e1 = entry[9], e2 = entry[10];
 555              		.loc 1 587 3 view .LVU138
 556              		.loc 1 587 11 is_stmt 0 view .LVU139
ARM GAS  C:\Users\cesco\AppData\Local\Temp\ccHBw06Y.s 			page 21


 557 0000 037A     		ldrb	r3, [r0, #8]	@ zero_extendqisi2
 558              	.LVL60:
 559              		.loc 1 587 26 view .LVU140
 560 0002 427A     		ldrb	r2, [r0, #9]	@ zero_extendqisi2
 561              	.LVL61:
 562              		.loc 1 587 41 view .LVU141
 563 0004 817A     		ldrb	r1, [r0, #10]	@ zero_extendqisi2
 564              	.LVL62:
 588:Core/Src/main.c ****   if (e0 >= 'a' && e0 <= 'z') e0 -= 32;
 565              		.loc 1 588 3 is_stmt 1 view .LVU142
 566              		.loc 1 588 17 is_stmt 0 view .LVU143
 567 0006 A3F16100 		sub	r0, r3, #97
 568              	.LVL63:
 569              		.loc 1 588 17 view .LVU144
 570 000a C0B2     		uxtb	r0, r0
 571              		.loc 1 588 6 view .LVU145
 572 000c 1928     		cmp	r0, #25
 573 000e 01D8     		bhi	.L41
 574              		.loc 1 588 31 is_stmt 1 discriminator 1 view .LVU146
 575              		.loc 1 588 34 is_stmt 0 discriminator 1 view .LVU147
 576 0010 203B     		subs	r3, r3, #32
 577              	.LVL64:
 578              		.loc 1 588 34 discriminator 1 view .LVU148
 579 0012 DBB2     		uxtb	r3, r3
 580              	.LVL65:
 581              	.L41:
 589:Core/Src/main.c ****   if (e1 >= 'a' && e1 <= 'z') e1 -= 32;
 582              		.loc 1 589 3 is_stmt 1 view .LVU149
 583              		.loc 1 589 17 is_stmt 0 view .LVU150
 584 0014 A2F16100 		sub	r0, r2, #97
 585 0018 C0B2     		uxtb	r0, r0
 586              		.loc 1 589 6 view .LVU151
 587 001a 1928     		cmp	r0, #25
 588 001c 01D8     		bhi	.L42
 589              		.loc 1 589 31 is_stmt 1 discriminator 1 view .LVU152
 590              		.loc 1 589 34 is_stmt 0 discriminator 1 view .LVU153
 591 001e 203A     		subs	r2, r2, #32
 592              	.LVL66:
 593              		.loc 1 589 34 discriminator 1 view .LVU154
 594 0020 D2B2     		uxtb	r2, r2
 595              	.LVL67:
 596              	.L42:
 590:Core/Src/main.c ****   if (e2 >= 'a' && e2 <= 'z') e2 -= 32;
 597              		.loc 1 590 3 is_stmt 1 view .LVU155
 598              		.loc 1 590 17 is_stmt 0 view .LVU156
 599 0022 A1F16100 		sub	r0, r1, #97
 600 0026 C0B2     		uxtb	r0, r0
 601              		.loc 1 590 6 view .LVU157
 602 0028 1928     		cmp	r0, #25
 603 002a 01D8     		bhi	.L43
 604              		.loc 1 590 31 is_stmt 1 discriminator 1 view .LVU158
 605              		.loc 1 590 34 is_stmt 0 discriminator 1 view .LVU159
 606 002c 2039     		subs	r1, r1, #32
 607              	.LVL68:
 608              		.loc 1 590 34 discriminator 1 view .LVU160
 609 002e C9B2     		uxtb	r1, r1
 610              	.LVL69:
ARM GAS  C:\Users\cesco\AppData\Local\Temp\ccHBw06Y.s 			page 22


 611              	.L43:
 591:Core/Src/main.c ****   return (e0 == 'W' && e1 == 'A' && e2 == 'V');
 612              		.loc 1 591 3 is_stmt 1 view .LVU161
 613              		.loc 1 591 34 is_stmt 0 view .LVU162
 614 0030 572B     		cmp	r3, #87
 615 0032 01D0     		beq	.L48
 616              		.loc 1 591 34 discriminator 6 view .LVU163
 617 0034 0020     		movs	r0, #0
 618 0036 7047     		bx	lr
 619              	.L48:
 620              		.loc 1 591 21 discriminator 1 view .LVU164
 621 0038 412A     		cmp	r2, #65
 622 003a 01D0     		beq	.L49
 623              		.loc 1 591 34 discriminator 6 view .LVU165
 624 003c 0020     		movs	r0, #0
 625 003e 7047     		bx	lr
 626              	.L49:
 627              		.loc 1 591 34 discriminator 3 view .LVU166
 628 0040 5629     		cmp	r1, #86
 629 0042 01D0     		beq	.L47
 630              		.loc 1 591 34 discriminator 6 view .LVU167
 631 0044 0020     		movs	r0, #0
 632 0046 7047     		bx	lr
 633              	.L47:
 634              		.loc 1 591 34 discriminator 5 view .LVU168
 635 0048 0120     		movs	r0, #1
 592:Core/Src/main.c **** }
 636              		.loc 1 592 1 view .LVU169
 637 004a 7047     		bx	lr
 638              		.cfi_endproc
 639              	.LFE150:
 641              		.section	.text.ClipS16,"ax",%progbits
 642              		.align	1
 643              		.syntax unified
 644              		.thumb
 645              		.thumb_func
 647              	ClipS16:
 648              	.LVL70:
 649              	.LFB157:
 593:Core/Src/main.c **** 
 594:Core/Src/main.c **** static int FAT32_FindRootDirCluster(const Fat32Info *fs, const char *dirName, uint32_t *cluster_out
 595:Core/Src/main.c **** {
 596:Core/Src/main.c ****   uint8_t sec[512];
 597:Core/Src/main.c ****   uint32_t cluster = fs->root_cluster;
 598:Core/Src/main.c ****   char name83[8] = {' ',' ',' ',' ',' ',' ',' ',' '};
 599:Core/Src/main.c ****   for (int i = 0; i < 8 && dirName[i] != '\0'; i++)
 600:Core/Src/main.c ****   {
 601:Core/Src/main.c ****     char c = dirName[i];
 602:Core/Src/main.c ****     if (c >= 'a' && c <= 'z') c -= 32;
 603:Core/Src/main.c ****     name83[i] = c;
 604:Core/Src/main.c ****   }
 605:Core/Src/main.c **** 
 606:Core/Src/main.c ****   while (cluster >= 2U && cluster < 0x0FFFFFF8U)
 607:Core/Src/main.c ****   {
 608:Core/Src/main.c ****     for (uint32_t s = 0; s < fs->sectors_per_cluster; s++)
 609:Core/Src/main.c ****     {
 610:Core/Src/main.c ****       uint32_t lba = FAT32_ClusterToLba(fs, cluster) + s;
ARM GAS  C:\Users\cesco\AppData\Local\Temp\ccHBw06Y.s 			page 23


 611:Core/Src/main.c ****       if (SD_ReadSectors(lba, sec, 1) != 0) return -1;
 612:Core/Src/main.c **** 
 613:Core/Src/main.c ****       for (int off = 0; off < 512; off += 32)
 614:Core/Src/main.c ****       {
 615:Core/Src/main.c ****         uint8_t *entry = &sec[off];
 616:Core/Src/main.c ****         uint8_t first = entry[0];
 617:Core/Src/main.c ****         if (first == 0x00) return -2;
 618:Core/Src/main.c ****         if (first == 0xE5) continue;
 619:Core/Src/main.c ****         if (entry[11] == 0x0F) continue;
 620:Core/Src/main.c ****         if ((entry[11] & 0x10) == 0) continue;
 621:Core/Src/main.c ****         if (entry[0] == '.') continue;
 622:Core/Src/main.c **** 
 623:Core/Src/main.c ****         if (memcmp(entry, name83, 8) == 0)
 624:Core/Src/main.c ****         {
 625:Core/Src/main.c ****           uint32_t cl = EntryCluster(entry);
 626:Core/Src/main.c ****           if (cl < 2) return -3;
 627:Core/Src/main.c ****           *cluster_out = cl;
 628:Core/Src/main.c ****           return 0;
 629:Core/Src/main.c ****         }
 630:Core/Src/main.c ****       }
 631:Core/Src/main.c ****     }
 632:Core/Src/main.c **** 
 633:Core/Src/main.c ****     uint32_t next;
 634:Core/Src/main.c ****     if (FAT32_NextCluster(fs, cluster, &next) != 0) return -4;
 635:Core/Src/main.c ****     cluster = next;
 636:Core/Src/main.c ****   }
 637:Core/Src/main.c ****   return -5;
 638:Core/Src/main.c **** }
 639:Core/Src/main.c **** 
 640:Core/Src/main.c **** static int FAT32_OpenWavInDirByIndex(const Fat32Info *fs, uint32_t dir_cluster, uint32_t wav_index,
 641:Core/Src/main.c **** {
 642:Core/Src/main.c ****   uint8_t sec[512];
 643:Core/Src/main.c ****   uint32_t cluster = dir_cluster;
 644:Core/Src/main.c ****   uint32_t found = 0;
 645:Core/Src/main.c **** 
 646:Core/Src/main.c ****   while (cluster >= 2U && cluster < 0x0FFFFFF8U)
 647:Core/Src/main.c ****   {
 648:Core/Src/main.c ****     for (uint32_t s = 0; s < fs->sectors_per_cluster; s++)
 649:Core/Src/main.c ****     {
 650:Core/Src/main.c ****       uint32_t lba = FAT32_ClusterToLba(fs, cluster) + s;
 651:Core/Src/main.c ****       if (SD_ReadSectors(lba, sec, 1) != 0) return -1;
 652:Core/Src/main.c **** 
 653:Core/Src/main.c ****       for (int off = 0; off < 512; off += 32)
 654:Core/Src/main.c ****       {
 655:Core/Src/main.c ****         uint8_t *entry = &sec[off];
 656:Core/Src/main.c ****         uint8_t first = entry[0];
 657:Core/Src/main.c ****         if (first == 0x00) return -2;
 658:Core/Src/main.c ****         if (first == 0xE5) continue;
 659:Core/Src/main.c ****         if (entry[11] == 0x0F) continue;
 660:Core/Src/main.c **** 
 661:Core/Src/main.c ****         uint8_t attr = entry[11];
 662:Core/Src/main.c ****         if (attr & 0x08) continue;
 663:Core/Src/main.c ****         if (attr & 0x10) continue;
 664:Core/Src/main.c ****         if (!IsWavEntry(entry)) continue;
 665:Core/Src/main.c **** 
 666:Core/Src/main.c ****         if (found == wav_index)
 667:Core/Src/main.c ****         {
ARM GAS  C:\Users\cesco\AppData\Local\Temp\ccHBw06Y.s 			page 24


 668:Core/Src/main.c ****           memset(file, 0, sizeof(*file));
 669:Core/Src/main.c ****           file->fs = *fs;
 670:Core/Src/main.c ****           file->first_cluster = EntryCluster(entry);
 671:Core/Src/main.c ****           file->current_cluster = file->first_cluster;
 672:Core/Src/main.c ****           file->file_size = le32(&entry[28]);
 673:Core/Src/main.c ****           return 0;
 674:Core/Src/main.c ****         }
 675:Core/Src/main.c ****         found++;
 676:Core/Src/main.c ****       }
 677:Core/Src/main.c ****     }
 678:Core/Src/main.c **** 
 679:Core/Src/main.c ****     uint32_t next;
 680:Core/Src/main.c ****     if (FAT32_NextCluster(fs, cluster, &next) != 0) return -3;
 681:Core/Src/main.c ****     cluster = next;
 682:Core/Src/main.c ****   }
 683:Core/Src/main.c ****   return -4;
 684:Core/Src/main.c **** }
 685:Core/Src/main.c **** 
 686:Core/Src/main.c **** static int File_AdvanceSector(FileCtx *file)
 687:Core/Src/main.c **** {
 688:Core/Src/main.c ****   file->sector_in_cluster++;
 689:Core/Src/main.c ****   if (file->sector_in_cluster >= file->fs.sectors_per_cluster)
 690:Core/Src/main.c ****   {
 691:Core/Src/main.c ****     uint32_t next;
 692:Core/Src/main.c ****     if (FAT32_NextCluster(&file->fs, file->current_cluster, &next) != 0) return -1;
 693:Core/Src/main.c ****     if (next >= 0x0FFFFFF8U) return -2;
 694:Core/Src/main.c ****     file->current_cluster = next;
 695:Core/Src/main.c ****     file->sector_in_cluster = 0;
 696:Core/Src/main.c ****   }
 697:Core/Src/main.c ****   file->sector_valid = 0;
 698:Core/Src/main.c ****   file->sector_offset = 0;
 699:Core/Src/main.c ****   return 0;
 700:Core/Src/main.c **** }
 701:Core/Src/main.c **** 
 702:Core/Src/main.c **** static int File_Read(FileCtx *file, uint8_t *dst, uint32_t bytes, uint32_t *read_bytes)
 703:Core/Src/main.c **** {
 704:Core/Src/main.c ****   *read_bytes = 0;
 705:Core/Src/main.c ****   while (bytes > 0 && file->pos < file->file_size)
 706:Core/Src/main.c ****   {
 707:Core/Src/main.c ****     if (!file->sector_valid)
 708:Core/Src/main.c ****     {
 709:Core/Src/main.c ****       uint32_t lba = FAT32_ClusterToLba(&file->fs, file->current_cluster) + file->sector_in_cluster
 710:Core/Src/main.c ****       if (SD_ReadSectors(lba, file->sector_buf, 1) != 0) return -1;
 711:Core/Src/main.c ****       file->sector_valid = 1;
 712:Core/Src/main.c ****       file->sector_offset = 0;
 713:Core/Src/main.c ****     }
 714:Core/Src/main.c **** 
 715:Core/Src/main.c ****     uint32_t remain_sector = 512U - file->sector_offset;
 716:Core/Src/main.c ****     uint32_t remain_file = file->file_size - file->pos;
 717:Core/Src/main.c ****     uint32_t n = bytes;
 718:Core/Src/main.c ****     if (n > remain_sector) n = remain_sector;
 719:Core/Src/main.c ****     if (n > remain_file) n = remain_file;
 720:Core/Src/main.c **** 
 721:Core/Src/main.c ****     memcpy(dst, &file->sector_buf[file->sector_offset], n);
 722:Core/Src/main.c ****     dst += n;
 723:Core/Src/main.c ****     bytes -= n;
 724:Core/Src/main.c ****     file->pos += n;
ARM GAS  C:\Users\cesco\AppData\Local\Temp\ccHBw06Y.s 			page 25


 725:Core/Src/main.c ****     file->sector_offset += (uint16_t)n;
 726:Core/Src/main.c ****     *read_bytes += n;
 727:Core/Src/main.c **** 
 728:Core/Src/main.c ****     if (file->sector_offset >= 512U)
 729:Core/Src/main.c ****     {
 730:Core/Src/main.c ****       if (File_AdvanceSector(file) != 0 && file->pos < file->file_size) return -2;
 731:Core/Src/main.c ****     }
 732:Core/Src/main.c ****   }
 733:Core/Src/main.c ****   return 0;
 734:Core/Src/main.c **** }
 735:Core/Src/main.c **** 
 736:Core/Src/main.c **** static int File_Skip(FileCtx *file, uint32_t bytes)
 737:Core/Src/main.c **** {
 738:Core/Src/main.c ****   uint8_t tmp[64];
 739:Core/Src/main.c ****   while (bytes > 0)
 740:Core/Src/main.c ****   {
 741:Core/Src/main.c ****     uint32_t chunk = (bytes > sizeof(tmp)) ? sizeof(tmp) : bytes;
 742:Core/Src/main.c ****     uint32_t got = 0;
 743:Core/Src/main.c ****     if (File_Read(file, tmp, chunk, &got) != 0) return -1;
 744:Core/Src/main.c ****     if (got == 0) break;
 745:Core/Src/main.c ****     bytes -= got;
 746:Core/Src/main.c ****   }
 747:Core/Src/main.c ****   return 0;
 748:Core/Src/main.c **** }
 749:Core/Src/main.c **** 
 750:Core/Src/main.c **** static int WAV_ReadHeader(FileCtx *file, WavInfo *wav)
 751:Core/Src/main.c **** {
 752:Core/Src/main.c ****   uint8_t hdr[12];
 753:Core/Src/main.c ****   uint32_t got = 0;
 754:Core/Src/main.c ****   if (File_Read(file, hdr, sizeof(hdr), &got) != 0 || got != sizeof(hdr)) return -1;
 755:Core/Src/main.c ****   if (memcmp(&hdr[0], "RIFF", 4) != 0 || memcmp(&hdr[8], "WAVE", 4) != 0) return -2;
 756:Core/Src/main.c **** 
 757:Core/Src/main.c ****   memset(wav, 0, sizeof(*wav));
 758:Core/Src/main.c ****   while (1)
 759:Core/Src/main.c ****   {
 760:Core/Src/main.c ****     uint8_t ch[8];
 761:Core/Src/main.c ****     if (File_Read(file, ch, sizeof(ch), &got) != 0 || got != sizeof(ch)) return -3;
 762:Core/Src/main.c ****     uint32_t chunk_size = le32(&ch[4]);
 763:Core/Src/main.c **** 
 764:Core/Src/main.c ****     if (memcmp(&ch[0], "fmt ", 4) == 0)
 765:Core/Src/main.c ****     {
 766:Core/Src/main.c ****       uint8_t fmt[40];
 767:Core/Src/main.c ****       uint32_t take = (chunk_size > sizeof(fmt)) ? sizeof(fmt) : chunk_size;
 768:Core/Src/main.c ****       if (File_Read(file, fmt, take, &got) != 0 || got != take) return -4;
 769:Core/Src/main.c ****       if (chunk_size > take) if (File_Skip(file, chunk_size - take) != 0) return -5;
 770:Core/Src/main.c **** 
 771:Core/Src/main.c ****       uint16_t audio_fmt = le16(&fmt[0]);
 772:Core/Src/main.c ****       wav->channels = le16(&fmt[2]);
 773:Core/Src/main.c ****       wav->sample_rate = le32(&fmt[4]);
 774:Core/Src/main.c ****       wav->bits_per_sample = le16(&fmt[14]);
 775:Core/Src/main.c ****       if (audio_fmt != 1) return -6;
 776:Core/Src/main.c ****     }
 777:Core/Src/main.c ****     else if (memcmp(&ch[0], "data", 4) == 0)
 778:Core/Src/main.c ****     {
 779:Core/Src/main.c ****       wav->data_size = chunk_size;
 780:Core/Src/main.c ****       break;
 781:Core/Src/main.c ****     }
ARM GAS  C:\Users\cesco\AppData\Local\Temp\ccHBw06Y.s 			page 26


 782:Core/Src/main.c ****     else
 783:Core/Src/main.c ****     {
 784:Core/Src/main.c ****       if (File_Skip(file, chunk_size) != 0) return -7;
 785:Core/Src/main.c ****     }
 786:Core/Src/main.c ****   }
 787:Core/Src/main.c **** 
 788:Core/Src/main.c ****   if (wav->bits_per_sample != 16) return -8;
 789:Core/Src/main.c ****   if (!(wav->channels == 1 || wav->channels == 2)) return -9;
 790:Core/Src/main.c ****   return 0;
 791:Core/Src/main.c **** }
 792:Core/Src/main.c **** 
 793:Core/Src/main.c **** static int16_t ClipS16(int32_t x)
 794:Core/Src/main.c **** {
 650              		.loc 1 794 1 is_stmt 1 view -0
 651              		.cfi_startproc
 652              		@ args = 0, pretend = 0, frame = 0
 653              		@ frame_needed = 0, uses_anonymous_args = 0
 654              		@ link register save eliminated.
 795:Core/Src/main.c ****   if (x > 32767) return 32767;
 655              		.loc 1 795 3 view .LVU171
 656              		.loc 1 795 6 is_stmt 0 view .LVU172
 657 0000 B0F5004F 		cmp	r0, #32768
 658 0004 04DA     		bge	.L52
 796:Core/Src/main.c ****   if (x < -32768) return -32768;
 659              		.loc 1 796 3 is_stmt 1 view .LVU173
 660              		.loc 1 796 6 is_stmt 0 view .LVU174
 661 0006 10F5004F 		cmn	r0, #32768
 662 000a 04DB     		blt	.L53
 797:Core/Src/main.c ****   return (int16_t)x;
 663              		.loc 1 797 3 is_stmt 1 view .LVU175
 664              		.loc 1 797 10 is_stmt 0 view .LVU176
 665 000c 00B2     		sxth	r0, r0
 666              	.LVL71:
 667              		.loc 1 797 10 view .LVU177
 668 000e 7047     		bx	lr
 669              	.LVL72:
 670              	.L52:
 795:Core/Src/main.c ****   if (x > 32767) return 32767;
 671              		.loc 1 795 25 discriminator 1 view .LVU178
 672 0010 47F6FF70 		movw	r0, #32767
 673              	.LVL73:
 795:Core/Src/main.c ****   if (x > 32767) return 32767;
 674              		.loc 1 795 25 discriminator 1 view .LVU179
 675 0014 7047     		bx	lr
 676              	.LVL74:
 677              	.L53:
 796:Core/Src/main.c ****   if (x < -32768) return -32768;
 678              		.loc 1 796 26 discriminator 1 view .LVU180
 679 0016 0148     		ldr	r0, .L54
 680              	.LVL75:
 798:Core/Src/main.c **** }
 681              		.loc 1 798 1 view .LVU181
 682 0018 7047     		bx	lr
 683              	.L55:
 684 001a 00BF     		.align	2
 685              	.L54:
 686 001c 0080FFFF 		.word	-32768
ARM GAS  C:\Users\cesco\AppData\Local\Temp\ccHBw06Y.s 			page 27


 687              		.cfi_endproc
 688              	.LFE157:
 690              		.section	.text.ApplyBitCrush,"ax",%progbits
 691              		.align	1
 692              		.syntax unified
 693              		.thumb
 694              		.thumb_func
 696              	ApplyBitCrush:
 697              	.LVL76:
 698              	.LFB137:
 415:Core/Src/main.c ****   if (bits >= 16U) return sample;
 699              		.loc 1 415 1 is_stmt 1 view -0
 700              		.cfi_startproc
 701              		@ args = 0, pretend = 0, frame = 0
 702              		@ frame_needed = 0, uses_anonymous_args = 0
 416:Core/Src/main.c ****   if (bits < 4U) bits = 4U;
 703              		.loc 1 416 3 view .LVU183
 416:Core/Src/main.c ****   if (bits < 4U) bits = 4U;
 704              		.loc 1 416 6 is_stmt 0 view .LVU184
 705 0000 0F29     		cmp	r1, #15
 706 0002 0AD8     		bhi	.L62
 415:Core/Src/main.c ****   if (bits >= 16U) return sample;
 707              		.loc 1 415 1 view .LVU185
 708 0004 10B5     		push	{r4, lr}
 709              	.LCFI2:
 710              		.cfi_def_cfa_offset 8
 711              		.cfi_offset 4, -8
 712              		.cfi_offset 14, -4
 417:Core/Src/main.c ****   int32_t shift = 16 - bits;
 713              		.loc 1 417 3 is_stmt 1 view .LVU186
 417:Core/Src/main.c ****   int32_t shift = 16 - bits;
 714              		.loc 1 417 6 is_stmt 0 view .LVU187
 715 0006 0329     		cmp	r1, #3
 716 0008 00D8     		bhi	.L58
 417:Core/Src/main.c ****   int32_t shift = 16 - bits;
 717              		.loc 1 417 23 discriminator 1 view .LVU188
 718 000a 0421     		movs	r1, #4
 719              	.LVL77:
 720              	.L58:
 418:Core/Src/main.c ****   int32_t s = ClipS16(sample);
 721              		.loc 1 418 3 is_stmt 1 view .LVU189
 418:Core/Src/main.c ****   int32_t s = ClipS16(sample);
 722              		.loc 1 418 11 is_stmt 0 view .LVU190
 723 000c C1F11004 		rsb	r4, r1, #16
 724              	.LVL78:
 419:Core/Src/main.c ****   s = (s >> shift) << shift;
 725              		.loc 1 419 3 is_stmt 1 view .LVU191
 419:Core/Src/main.c ****   s = (s >> shift) << shift;
 726              		.loc 1 419 15 is_stmt 0 view .LVU192
 727 0010 FFF7FEFF 		bl	ClipS16
 728              	.LVL79:
 420:Core/Src/main.c ****   return s;
 729              		.loc 1 420 3 is_stmt 1 view .LVU193
 420:Core/Src/main.c ****   return s;
 730              		.loc 1 420 10 is_stmt 0 view .LVU194
 731 0014 2041     		asrs	r0, r0, r4
 732              	.LVL80:
ARM GAS  C:\Users\cesco\AppData\Local\Temp\ccHBw06Y.s 			page 28


 420:Core/Src/main.c ****   return s;
 733              		.loc 1 420 5 view .LVU195
 734 0016 A040     		lsls	r0, r0, r4
 735              	.LVL81:
 421:Core/Src/main.c **** }
 736              		.loc 1 421 3 is_stmt 1 view .LVU196
 422:Core/Src/main.c **** 
 737              		.loc 1 422 1 is_stmt 0 view .LVU197
 738 0018 10BD     		pop	{r4, pc}
 739              	.LVL82:
 740              	.L62:
 741              	.LCFI3:
 742              		.cfi_def_cfa_offset 0
 743              		.cfi_restore 4
 744              		.cfi_restore 14
 422:Core/Src/main.c **** 
 745              		.loc 1 422 1 view .LVU198
 746 001a 7047     		bx	lr
 747              		.cfi_endproc
 748              	.LFE137:
 750              		.section	.text.ApplyOnePoleFilter,"ax",%progbits
 751              		.align	1
 752              		.syntax unified
 753              		.thumb
 754              		.thumb_func
 756              	ApplyOnePoleFilter:
 757              	.LVL83:
 758              	.LFB140:
 445:Core/Src/main.c ****   if (type == 0U) return sample;
 759              		.loc 1 445 1 is_stmt 1 view -0
 760              		.cfi_startproc
 761              		@ args = 4, pretend = 0, frame = 0
 762              		@ frame_needed = 0, uses_anonymous_args = 0
 445:Core/Src/main.c ****   if (type == 0U) return sample;
 763              		.loc 1 445 1 is_stmt 0 view .LVU200
 764 0000 10B5     		push	{r4, lr}
 765              	.LCFI4:
 766              		.cfi_def_cfa_offset 8
 767              		.cfi_offset 4, -8
 768              		.cfi_offset 14, -4
 769 0002 029C     		ldr	r4, [sp, #8]
 446:Core/Src/main.c ****   int32_t alpha = 8 + ((int32_t)cutQ8 * 120);
 770              		.loc 1 446 3 is_stmt 1 view .LVU201
 446:Core/Src/main.c ****   int32_t alpha = 8 + ((int32_t)cutQ8 * 120);
 771              		.loc 1 446 6 is_stmt 0 view .LVU202
 772 0004 B9B1     		cbz	r1, .L65
 773 0006 8E46     		mov	lr, r1
 447:Core/Src/main.c ****   int32_t lp = *state + (((sample - *state) * alpha) >> 15);
 774              		.loc 1 447 3 is_stmt 1 view .LVU203
 447:Core/Src/main.c ****   int32_t lp = *state + (((sample - *state) * alpha) >> 15);
 775              		.loc 1 447 39 is_stmt 0 view .LVU204
 776 0008 C2EB0212 		rsb	r2, r2, r2, lsl #4
 777              	.LVL84:
 447:Core/Src/main.c ****   int32_t lp = *state + (((sample - *state) * alpha) >> 15);
 778              		.loc 1 447 39 view .LVU205
 779 000c D200     		lsls	r2, r2, #3
 447:Core/Src/main.c ****   int32_t lp = *state + (((sample - *state) * alpha) >> 15);
ARM GAS  C:\Users\cesco\AppData\Local\Temp\ccHBw06Y.s 			page 29


 780              		.loc 1 447 11 view .LVU206
 781 000e 0832     		adds	r2, r2, #8
 782              	.LVL85:
 448:Core/Src/main.c ****   *state = lp;
 783              		.loc 1 448 3 is_stmt 1 view .LVU207
 448:Core/Src/main.c ****   *state = lp;
 784              		.loc 1 448 16 is_stmt 0 view .LVU208
 785 0010 2168     		ldr	r1, [r4]
 786              	.LVL86:
 448:Core/Src/main.c ****   *state = lp;
 787              		.loc 1 448 35 view .LVU209
 788 0012 A0EB010C 		sub	ip, r0, r1
 448:Core/Src/main.c ****   *state = lp;
 789              		.loc 1 448 45 view .LVU210
 790 0016 02FB0CF2 		mul	r2, r2, ip
 791              	.LVL87:
 448:Core/Src/main.c ****   *state = lp;
 792              		.loc 1 448 11 view .LVU211
 793 001a 01EBE232 		add	r2, r1, r2, asr #15
 794              	.LVL88:
 449:Core/Src/main.c ****   int32_t out = (type == 2U) ? (sample - lp) : lp;
 795              		.loc 1 449 3 is_stmt 1 view .LVU212
 449:Core/Src/main.c ****   int32_t out = (type == 2U) ? (sample - lp) : lp;
 796              		.loc 1 449 10 is_stmt 0 view .LVU213
 797 001e 2260     		str	r2, [r4]
 450:Core/Src/main.c ****   int32_t makeUp = 256 + ((int32_t)resQ8 >> 2);
 798              		.loc 1 450 3 is_stmt 1 view .LVU214
 450:Core/Src/main.c ****   int32_t makeUp = 256 + ((int32_t)resQ8 >> 2);
 799              		.loc 1 450 46 is_stmt 0 view .LVU215
 800 0020 BEF1020F 		cmp	lr, #2
 801 0024 08D0     		beq	.L70
 802              	.LVL89:
 803              	.L67:
 451:Core/Src/main.c ****   out = (out * makeUp) >> 8;
 804              		.loc 1 451 3 is_stmt 1 view .LVU216
 451:Core/Src/main.c ****   out = (out * makeUp) >> 8;
 805              		.loc 1 451 42 is_stmt 0 view .LVU217
 806 0026 9B08     		lsrs	r3, r3, #2
 807              	.LVL90:
 451:Core/Src/main.c ****   out = (out * makeUp) >> 8;
 808              		.loc 1 451 11 view .LVU218
 809 0028 03F58073 		add	r3, r3, #256
 810              	.LVL91:
 452:Core/Src/main.c ****   return ClipS16(out);
 811              		.loc 1 452 3 is_stmt 1 view .LVU219
 452:Core/Src/main.c ****   return ClipS16(out);
 812              		.loc 1 452 14 is_stmt 0 view .LVU220
 813 002c 03FB02F0 		mul	r0, r3, r2
 814              	.LVL92:
 453:Core/Src/main.c **** }
 815              		.loc 1 453 3 is_stmt 1 view .LVU221
 453:Core/Src/main.c **** }
 816              		.loc 1 453 10 is_stmt 0 view .LVU222
 817 0030 0012     		asrs	r0, r0, #8
 818              	.LVL93:
 453:Core/Src/main.c **** }
 819              		.loc 1 453 10 view .LVU223
ARM GAS  C:\Users\cesco\AppData\Local\Temp\ccHBw06Y.s 			page 30


 820 0032 FFF7FEFF 		bl	ClipS16
 821              	.LVL94:
 822              	.L65:
 454:Core/Src/main.c **** 
 823              		.loc 1 454 1 view .LVU224
 824 0036 10BD     		pop	{r4, pc}
 825              	.LVL95:
 826              	.L70:
 450:Core/Src/main.c ****   int32_t makeUp = 256 + ((int32_t)resQ8 >> 2);
 827              		.loc 1 450 46 discriminator 1 view .LVU225
 828 0038 821A     		subs	r2, r0, r2
 829              	.LVL96:
 450:Core/Src/main.c ****   int32_t makeUp = 256 + ((int32_t)resQ8 >> 2);
 830              		.loc 1 450 46 discriminator 1 view .LVU226
 831 003a F4E7     		b	.L67
 832              		.cfi_endproc
 833              	.LFE140:
 835              		.section	.text.LFN_GetChar,"ax",%progbits
 836              		.align	1
 837              		.syntax unified
 838              		.thumb
 839              		.thumb_func
 841              	LFN_GetChar:
 842              	.LVL97:
 843              	.LFB158:
 799:Core/Src/main.c **** 
 800:Core/Src/main.c **** /* Extrae el byte ASCII de la posición i (0-12) de una entrada LFN FAT32 */
 801:Core/Src/main.c **** static char LFN_GetChar(const uint8_t *entry, int i)
 802:Core/Src/main.c **** {
 844              		.loc 1 802 1 is_stmt 1 view -0
 845              		.cfi_startproc
 846              		@ args = 0, pretend = 0, frame = 0
 847              		@ frame_needed = 0, uses_anonymous_args = 0
 848              		@ link register save eliminated.
 803:Core/Src/main.c ****   static const uint8_t off[13] = {1,3,5,7,9,14,16,18,20,22,24,28,30};
 849              		.loc 1 803 3 view .LVU228
 804:Core/Src/main.c ****   return (char)entry[off[i]];
 850              		.loc 1 804 3 view .LVU229
 851              		.loc 1 804 25 is_stmt 0 view .LVU230
 852 0000 014B     		ldr	r3, .L72
 853 0002 5B5C     		ldrb	r3, [r3, r1]	@ zero_extendqisi2
 805:Core/Src/main.c **** }
 854              		.loc 1 805 1 view .LVU231
 855 0004 C05C     		ldrb	r0, [r0, r3]	@ zero_extendqisi2
 856              	.LVL98:
 857              		.loc 1 805 1 view .LVU232
 858 0006 7047     		bx	lr
 859              	.L73:
 860              		.align	2
 861              	.L72:
 862 0008 00000000 		.word	off.0
 863              		.cfi_endproc
 864              	.LFE158:
 866              		.section	.text.GenerateFallbackSample,"ax",%progbits
 867              		.align	1
 868              		.syntax unified
 869              		.thumb
ARM GAS  C:\Users\cesco\AppData\Local\Temp\ccHBw06Y.s 			page 31


 870              		.thumb_func
 872              	GenerateFallbackSample:
 873              	.LVL99:
 874              	.LFB162:
 806:Core/Src/main.c **** 
 807:Core/Src/main.c **** /* Abre un WAV en dir_cluster por su nombre LFN (comparación case-insensitive) */
 808:Core/Src/main.c **** static int FAT32_OpenWavByName(const Fat32Info *fs, uint32_t dir_cluster,
 809:Core/Src/main.c ****                                const char *target, FileCtx *file)
 810:Core/Src/main.c **** {
 811:Core/Src/main.c ****   uint8_t sec[512];
 812:Core/Src/main.c ****   char lfn[256];
 813:Core/Src/main.c ****   int lfn_len = 0;
 814:Core/Src/main.c ****   uint32_t cluster = dir_cluster;
 815:Core/Src/main.c **** 
 816:Core/Src/main.c ****   while (cluster >= 2U && cluster < 0x0FFFFFF8U)
 817:Core/Src/main.c ****   {
 818:Core/Src/main.c ****     for (uint32_t s = 0; s < fs->sectors_per_cluster; s++)
 819:Core/Src/main.c ****     {
 820:Core/Src/main.c ****       uint32_t lba = FAT32_ClusterToLba(fs, cluster) + s;
 821:Core/Src/main.c ****       if (SD_ReadSectors(lba, sec, 1) != 0) return -1;
 822:Core/Src/main.c **** 
 823:Core/Src/main.c ****       for (int off = 0; off < 512; off += 32)
 824:Core/Src/main.c ****       {
 825:Core/Src/main.c ****         uint8_t *e = &sec[off];
 826:Core/Src/main.c ****         if (e[0] == 0x00) return -2; /* fin de directorio */
 827:Core/Src/main.c ****         if (e[0] == 0xE5) { lfn_len = 0; continue; /* borrado */ }
 828:Core/Src/main.c **** 
 829:Core/Src/main.c ****         if (e[11] == 0x0F) /* entrada LFN */
 830:Core/Src/main.c ****         {
 831:Core/Src/main.c ****           uint8_t seq = e[0] & 0x1FU;
 832:Core/Src/main.c ****           int base = (int)(seq - 1U) * 13;
 833:Core/Src/main.c ****           for (int i = 0; i < 13; i++)
 834:Core/Src/main.c ****           {
 835:Core/Src/main.c ****             char c = LFN_GetChar(e, i);
 836:Core/Src/main.c ****             if ((base + i) < 255) lfn[base + i] = c;
 837:Core/Src/main.c ****           }
 838:Core/Src/main.c ****           if (e[0] & 0x40U) /* último fragmento LFN: calc longitud */
 839:Core/Src/main.c ****           {
 840:Core/Src/main.c ****             int n = 0;
 841:Core/Src/main.c ****             for (int i = 0; i < 13; i++) {
 842:Core/Src/main.c ****               char c = LFN_GetChar(e, i);
 843:Core/Src/main.c ****               if (c == '\0' || (uint8_t)c == 0xFFU) break;
 844:Core/Src/main.c ****               n++;
 845:Core/Src/main.c ****             }
 846:Core/Src/main.c ****             lfn_len = base + n;
 847:Core/Src/main.c ****             if (lfn_len < 255) lfn[lfn_len] = '\0';
 848:Core/Src/main.c ****           }
 849:Core/Src/main.c ****           continue;
 850:Core/Src/main.c ****         }
 851:Core/Src/main.c **** 
 852:Core/Src/main.c ****         /* Entrada normal */
 853:Core/Src/main.c ****         uint8_t attr = e[11];
 854:Core/Src/main.c ****         if (attr & 0x08U) { lfn_len = 0; continue; }
 855:Core/Src/main.c ****         if (attr & 0x10U) { lfn_len = 0; continue; }
 856:Core/Src/main.c ****         if (!IsWavEntry(e)) { lfn_len = 0; continue; }
 857:Core/Src/main.c **** 
 858:Core/Src/main.c ****         /* Comparar nombre LFN (case-insensitive) */
ARM GAS  C:\Users\cesco\AppData\Local\Temp\ccHBw06Y.s 			page 32


 859:Core/Src/main.c ****         int match = 0;
 860:Core/Src/main.c ****         if (lfn_len > 0)
 861:Core/Src/main.c ****         {
 862:Core/Src/main.c ****           int tlen = 0;
 863:Core/Src/main.c ****           while (target[tlen]) tlen++;
 864:Core/Src/main.c ****           if (tlen == lfn_len)
 865:Core/Src/main.c ****           {
 866:Core/Src/main.c ****             match = 1;
 867:Core/Src/main.c ****             for (int i = 0; i < tlen; i++) {
 868:Core/Src/main.c ****               char a = lfn[i], b = target[i];
 869:Core/Src/main.c ****               if (a >= 'a' && a <= 'z') a = (char)(a - 32);
 870:Core/Src/main.c ****               if (b >= 'a' && b <= 'z') b = (char)(b - 32);
 871:Core/Src/main.c ****               if (a != b) { match = 0; break; }
 872:Core/Src/main.c ****             }
 873:Core/Src/main.c ****           }
 874:Core/Src/main.c ****         }
 875:Core/Src/main.c ****         lfn_len = 0;
 876:Core/Src/main.c **** 
 877:Core/Src/main.c ****         if (match)
 878:Core/Src/main.c ****         {
 879:Core/Src/main.c ****           memset(file, 0, sizeof(*file));
 880:Core/Src/main.c ****           file->fs = *fs;
 881:Core/Src/main.c ****           file->first_cluster = EntryCluster(e);
 882:Core/Src/main.c ****           file->current_cluster = file->first_cluster;
 883:Core/Src/main.c ****           file->file_size = le32(&e[28]);
 884:Core/Src/main.c ****           return 0;
 885:Core/Src/main.c ****         }
 886:Core/Src/main.c ****       }
 887:Core/Src/main.c ****     }
 888:Core/Src/main.c ****     uint32_t next;
 889:Core/Src/main.c ****     if (FAT32_NextCluster(fs, cluster, &next) != 0) return -3;
 890:Core/Src/main.c ****     cluster = next;
 891:Core/Src/main.c ****   }
 892:Core/Src/main.c ****   return -4;
 893:Core/Src/main.c **** }
 894:Core/Src/main.c **** 
 895:Core/Src/main.c **** /* Carga un WAV por nombre de fichero LFN desde una carpeta en raíz */
 896:Core/Src/main.c **** static int LoadInstrumentFromFile(const char *dirName, const char *fileName,
 897:Core/Src/main.c ****                                   InstrumentSample *out)
 898:Core/Src/main.c **** {
 899:Core/Src/main.c ****   Fat32Info fs;
 900:Core/Src/main.c ****   if (FAT32_Init(&fs) != 0) return -1;
 901:Core/Src/main.c **** 
 902:Core/Src/main.c ****   uint32_t dir_cluster = 0;
 903:Core/Src/main.c ****   if (FAT32_FindRootDirCluster(&fs, dirName, &dir_cluster) != 0) return -2;
 904:Core/Src/main.c **** 
 905:Core/Src/main.c ****   FileCtx file;
 906:Core/Src/main.c ****   if (FAT32_OpenWavByName(&fs, dir_cluster, fileName, &file) != 0) return -3;
 907:Core/Src/main.c **** 
 908:Core/Src/main.c ****   WavInfo wav;
 909:Core/Src/main.c ****   if (WAV_ReadHeader(&file, &wav) != 0) return -4;
 910:Core/Src/main.c **** 
 911:Core/Src/main.c ****   uint32_t frames = 0;
 912:Core/Src/main.c ****   while (frames < MAX_SAMPLE_FRAMES)
 913:Core/Src/main.c ****   {
 914:Core/Src/main.c ****     uint32_t remain = MAX_SAMPLE_FRAMES - frames;
 915:Core/Src/main.c ****     uint32_t want = (wav.channels == 2U) ? (remain * 4U) : (remain * 2U);
ARM GAS  C:\Users\cesco\AppData\Local\Temp\ccHBw06Y.s 			page 33


 916:Core/Src/main.c ****     if (want > SD_READ_BYTES) want = SD_READ_BYTES;
 917:Core/Src/main.c ****     uint32_t got = 0;
 918:Core/Src/main.c ****     if (File_Read(&file, sdReadBuf, want, &got) != 0 || got == 0) break;
 919:Core/Src/main.c ****     if (wav.channels == 2U)
 920:Core/Src/main.c ****     {
 921:Core/Src/main.c ****       uint32_t sframes = got / 4U;
 922:Core/Src/main.c ****       int16_t *src = (int16_t*)sdReadBuf;
 923:Core/Src/main.c ****       for (uint32_t i = 0; i < sframes && frames < MAX_SAMPLE_FRAMES; i++)
 924:Core/Src/main.c ****       {
 925:Core/Src/main.c ****         int32_t m = ((int32_t)src[i*2] + (int32_t)src[i*2+1]) / 2;
 926:Core/Src/main.c ****         out->data[frames++] = ClipS16(m);
 927:Core/Src/main.c ****       }
 928:Core/Src/main.c ****     }
 929:Core/Src/main.c ****     else
 930:Core/Src/main.c ****     {
 931:Core/Src/main.c ****       uint32_t mframes = got / 2U;
 932:Core/Src/main.c ****       int16_t *src = (int16_t*)sdReadBuf;
 933:Core/Src/main.c ****       for (uint32_t i = 0; i < mframes && frames < MAX_SAMPLE_FRAMES; i++)
 934:Core/Src/main.c ****         out->data[frames++] = src[i];
 935:Core/Src/main.c ****     }
 936:Core/Src/main.c ****   }
 937:Core/Src/main.c ****   out->length = frames;
 938:Core/Src/main.c ****   out->loaded = (frames > 0U) ? 1U : 0U;
 939:Core/Src/main.c ****   if (out->loaded)
 940:Core/Src/main.c ****   {
 941:Core/Src/main.c ****     for (uint32_t i = 0; i < NUM_INSTRUMENTS; i++)
 942:Core/Src/main.c ****     {
 943:Core/Src/main.c ****       if (out == &g_samples[i]) { g_samplesLoadedMask |= (1U << i); break; }
 944:Core/Src/main.c ****     }
 945:Core/Src/main.c ****   }
 946:Core/Src/main.c ****   return out->loaded ? 0 : -5;
 947:Core/Src/main.c **** }
 948:Core/Src/main.c **** 
 949:Core/Src/main.c **** static int LoadInstrumentFromFolder(const char *folderName, InstrumentSample *out)
 950:Core/Src/main.c **** {
 951:Core/Src/main.c ****   Fat32Info fs;
 952:Core/Src/main.c ****   if (FAT32_Init(&fs) != 0) return -1;
 953:Core/Src/main.c **** 
 954:Core/Src/main.c ****   uint32_t dir_cluster = 0;
 955:Core/Src/main.c ****   if (FAT32_FindRootDirCluster(&fs, folderName, &dir_cluster) != 0) return -2;
 956:Core/Src/main.c **** 
 957:Core/Src/main.c ****   FileCtx file;
 958:Core/Src/main.c ****   if (FAT32_OpenWavInDirByIndex(&fs, dir_cluster, 0, &file) != 0) return -3;
 959:Core/Src/main.c **** 
 960:Core/Src/main.c ****   WavInfo wav;
 961:Core/Src/main.c ****   if (WAV_ReadHeader(&file, &wav) != 0) return -4;
 962:Core/Src/main.c **** 
 963:Core/Src/main.c ****   uint32_t frames = 0;
 964:Core/Src/main.c ****   while (frames < MAX_SAMPLE_FRAMES)
 965:Core/Src/main.c ****   {
 966:Core/Src/main.c ****     uint32_t remain_frames = MAX_SAMPLE_FRAMES - frames;
 967:Core/Src/main.c ****     uint32_t want_bytes = (wav.channels == 2) ? (remain_frames * 4U) : (remain_frames * 2U);
 968:Core/Src/main.c ****     if (want_bytes > SD_READ_BYTES) want_bytes = SD_READ_BYTES;
 969:Core/Src/main.c **** 
 970:Core/Src/main.c ****     uint32_t got = 0;
 971:Core/Src/main.c ****     if (File_Read(&file, sdReadBuf, want_bytes, &got) != 0 || got == 0) break;
 972:Core/Src/main.c **** 
ARM GAS  C:\Users\cesco\AppData\Local\Temp\ccHBw06Y.s 			page 34


 973:Core/Src/main.c ****     if (wav.channels == 2)
 974:Core/Src/main.c ****     {
 975:Core/Src/main.c ****       uint32_t stereo_frames = got / 4U;
 976:Core/Src/main.c ****       int16_t *src = (int16_t*)sdReadBuf;
 977:Core/Src/main.c ****       for (uint32_t i = 0; i < stereo_frames && frames < MAX_SAMPLE_FRAMES; i++)
 978:Core/Src/main.c ****       {
 979:Core/Src/main.c ****         int32_t m = ((int32_t)src[i * 2] + (int32_t)src[i * 2 + 1]) / 2;
 980:Core/Src/main.c ****         out->data[frames++] = ClipS16(m);
 981:Core/Src/main.c ****       }
 982:Core/Src/main.c ****     }
 983:Core/Src/main.c ****     else
 984:Core/Src/main.c ****     {
 985:Core/Src/main.c ****       uint32_t mono_frames = got / 2U;
 986:Core/Src/main.c ****       int16_t *src = (int16_t*)sdReadBuf;
 987:Core/Src/main.c ****       for (uint32_t i = 0; i < mono_frames && frames < MAX_SAMPLE_FRAMES; i++)
 988:Core/Src/main.c ****         out->data[frames++] = src[i];
 989:Core/Src/main.c ****     }
 990:Core/Src/main.c ****   }
 991:Core/Src/main.c **** 
 992:Core/Src/main.c ****   out->length = frames;
 993:Core/Src/main.c ****   out->loaded = (frames > 0) ? 1U : 0U;
 994:Core/Src/main.c ****   if (out->loaded)
 995:Core/Src/main.c ****   {
 996:Core/Src/main.c ****     for (uint32_t i = 0; i < NUM_INSTRUMENTS; i++)
 997:Core/Src/main.c ****     {
 998:Core/Src/main.c ****       if (out == &g_samples[i])
 999:Core/Src/main.c ****       {
1000:Core/Src/main.c ****         g_samplesLoadedMask |= (1U << i);
1001:Core/Src/main.c ****         break;
1002:Core/Src/main.c ****       }
1003:Core/Src/main.c ****     }
1004:Core/Src/main.c ****   }
1005:Core/Src/main.c ****   return out->loaded ? 0 : -5;
1006:Core/Src/main.c **** }
1007:Core/Src/main.c **** 
1008:Core/Src/main.c **** static void GenerateFallbackSample(uint8_t inst, InstrumentSample *out)
1009:Core/Src/main.c **** {
 875              		.loc 1 1009 1 is_stmt 1 view -0
 876              		.cfi_startproc
 877              		@ args = 0, pretend = 0, frame = 0
 878              		@ frame_needed = 0, uses_anonymous_args = 0
 879              		.loc 1 1009 1 is_stmt 0 view .LVU234
 880 0000 2DE9F041 		push	{r4, r5, r6, r7, r8, lr}
 881              	.LCFI5:
 882              		.cfi_def_cfa_offset 24
 883              		.cfi_offset 4, -24
 884              		.cfi_offset 5, -20
 885              		.cfi_offset 6, -16
 886              		.cfi_offset 7, -12
 887              		.cfi_offset 8, -8
 888              		.cfi_offset 14, -4
 889 0004 0646     		mov	r6, r0
 890 0006 0F46     		mov	r7, r1
1010:Core/Src/main.c ****   uint32_t n = 1200U;
 891              		.loc 1 1010 3 is_stmt 1 view .LVU235
 892              	.LVL100:
1011:Core/Src/main.c ****   if (n > MAX_SAMPLE_FRAMES) n = MAX_SAMPLE_FRAMES;
ARM GAS  C:\Users\cesco\AppData\Local\Temp\ccHBw06Y.s 			page 35


 893              		.loc 1 1011 3 view .LVU236
1012:Core/Src/main.c ****   out->length = n;
 894              		.loc 1 1012 3 view .LVU237
 895              		.loc 1 1012 15 is_stmt 0 view .LVU238
 896 0008 01F58053 		add	r3, r1, #4096
 897 000c 4FF49662 		mov	r2, #1200
 898 0010 C3F87027 		str	r2, [r3, #1904]
1013:Core/Src/main.c ****   out->loaded = 1U;
 899              		.loc 1 1013 3 is_stmt 1 view .LVU239
 900              		.loc 1 1013 15 is_stmt 0 view .LVU240
 901 0014 0122     		movs	r2, #1
 902 0016 83F87427 		strb	r2, [r3, #1908]
1014:Core/Src/main.c **** 
1015:Core/Src/main.c ****   for (uint32_t i = 0; i < n; i++)
 903              		.loc 1 1015 3 is_stmt 1 view .LVU241
 904              	.LBB14:
 905              		.loc 1 1015 8 view .LVU242
 906              	.LVL101:
 907              		.loc 1 1015 17 is_stmt 0 view .LVU243
 908 001a 0025     		movs	r5, #0
 909              		.loc 1 1015 3 view .LVU244
 910 001c 20E0     		b	.L75
 911              	.LVL102:
 912              	.L81:
 913              	.LBB15:
 914              	.LBB16:
1016:Core/Src/main.c ****   {
1017:Core/Src/main.c ****     int32_t env = (int32_t)((n - i) * 32767U / n);
1018:Core/Src/main.c ****     int32_t s = 0;
1019:Core/Src/main.c ****     switch (inst)
1020:Core/Src/main.c ****     {
1021:Core/Src/main.c ****       case 0: // kick
1022:Core/Src/main.c ****       {
1023:Core/Src/main.c ****         uint32_t period = 18U + ((i * 80U) / n);
 915              		.loc 1 1023 9 is_stmt 1 view .LVU245
 916              		.loc 1 1023 37 is_stmt 0 view .LVU246
 917 001e 05EB8503 		add	r3, r5, r5, lsl #2
 918 0022 1B01     		lsls	r3, r3, #4
 919              		.loc 1 1023 44 view .LVU247
 920 0024 3D4A     		ldr	r2, .L93
 921 0026 A2FB0323 		umull	r2, r3, r2, r3
 922 002a DB09     		lsrs	r3, r3, #7
 923              		.loc 1 1023 18 view .LVU248
 924 002c 1233     		adds	r3, r3, #18
 925              	.LVL103:
1024:Core/Src/main.c ****         uint32_t ph = i % period;
 926              		.loc 1 1024 9 is_stmt 1 view .LVU249
 927              		.loc 1 1024 18 is_stmt 0 view .LVU250
 928 002e B5FBF3F2 		udiv	r2, r5, r3
 929 0032 03FB1252 		mls	r2, r3, r2, r5
 930              	.LVL104:
1025:Core/Src/main.c ****         s = (ph < (period / 2U)) ? 22000 : -22000;
 931              		.loc 1 1025 9 is_stmt 1 view .LVU251
 932              		.loc 1 1025 42 is_stmt 0 view .LVU252
 933 0036 B2EB530F 		cmp	r2, r3, lsr #1
 934 003a 63D2     		bcs	.L86
 935              		.loc 1 1025 42 discriminator 1 view .LVU253
ARM GAS  C:\Users\cesco\AppData\Local\Temp\ccHBw06Y.s 			page 36


 936 003c 45F2F050 		movw	r0, #22000
 937 0040 06E0     		b	.L82
 938              	.LVL105:
 939              	.L80:
 940              		.loc 1 1025 42 discriminator 1 view .LVU254
 941              	.LBE16:
 942              	.LBB17:
1026:Core/Src/main.c ****         break;
1027:Core/Src/main.c ****       }
1028:Core/Src/main.c ****       case 1: // snare
1029:Core/Src/main.c ****       {
1030:Core/Src/main.c ****         int32_t rnd = (int32_t)((FastRandU32() >> 16) & 0x7FFF) - 16384;
 943              		.loc 1 1030 9 is_stmt 1 view .LVU255
 944              		.loc 1 1030 34 is_stmt 0 view .LVU256
 945 0042 FFF7FEFF 		bl	FastRandU32
 946              	.LVL106:
 947              		.loc 1 1030 23 discriminator 1 view .LVU257
 948 0046 C0F30E43 		ubfx	r3, r0, #16, #15
 949              		.loc 1 1030 17 discriminator 1 view .LVU258
 950 004a A3F58043 		sub	r3, r3, #16384
 951              	.LVL107:
1031:Core/Src/main.c ****         s = rnd * 2;
 952              		.loc 1 1031 9 is_stmt 1 view .LVU259
 953              		.loc 1 1031 11 is_stmt 0 view .LVU260
 954 004e 5800     		lsls	r0, r3, #1
 955              	.LVL108:
1032:Core/Src/main.c ****         break;
 956              		.loc 1 1032 9 is_stmt 1 view .LVU261
 957              	.L82:
 958              		.loc 1 1032 9 is_stmt 0 view .LVU262
 959              	.LBE17:
1033:Core/Src/main.c ****       }
1034:Core/Src/main.c ****       case 2: // closed hat
1035:Core/Src/main.c ****       {
1036:Core/Src/main.c ****         int32_t rnd = (int32_t)((FastRandU32() >> 16) & 0x7FFF) - 16384;
1037:Core/Src/main.c ****         s = rnd * 3;
1038:Core/Src/main.c ****         env = (int32_t)((n - i) * 32767U / (n / 2U));
1039:Core/Src/main.c ****         if (env < 0) env = 0;
1040:Core/Src/main.c ****         break;
1041:Core/Src/main.c ****       }
1042:Core/Src/main.c ****       case 3: // open hat
1043:Core/Src/main.c ****       {
1044:Core/Src/main.c ****         int32_t rnd = (int32_t)((FastRandU32() >> 16) & 0x7FFF) - 16384;
1045:Core/Src/main.c ****         s = rnd * 2;
1046:Core/Src/main.c ****         break;
1047:Core/Src/main.c ****       }
1048:Core/Src/main.c ****       default: // clap
1049:Core/Src/main.c ****       {
1050:Core/Src/main.c ****         int32_t pulse = ((i % 120U) < 25U || (i > 200U && (i % 140U) < 30U)) ? 18000 : 0;
1051:Core/Src/main.c ****         int32_t rnd = (int32_t)((FastRandU32() >> 16) & 0x7FFF) - 16384;
1052:Core/Src/main.c ****         s = pulse + rnd;
1053:Core/Src/main.c ****         break;
1054:Core/Src/main.c ****       }
1055:Core/Src/main.c ****     }
1056:Core/Src/main.c ****     s = (s * env) >> 15;
 960              		.loc 1 1056 5 is_stmt 1 view .LVU263
 961              		.loc 1 1056 12 is_stmt 0 view .LVU264
ARM GAS  C:\Users\cesco\AppData\Local\Temp\ccHBw06Y.s 			page 37


 962 0050 04FB00F0 		mul	r0, r4, r0
 963              	.LVL109:
1057:Core/Src/main.c ****     out->data[i] = ClipS16(s);
 964              		.loc 1 1057 5 is_stmt 1 view .LVU265
 965              		.loc 1 1057 20 is_stmt 0 view .LVU266
 966 0054 C013     		asrs	r0, r0, #15
 967              	.LVL110:
 968              		.loc 1 1057 20 view .LVU267
 969 0056 FFF7FEFF 		bl	ClipS16
 970              	.LVL111:
 971              		.loc 1 1057 18 discriminator 1 view .LVU268
 972 005a 27F81500 		strh	r0, [r7, r5, lsl #1]	@ movhi
 973              	.LBE15:
1015:Core/Src/main.c ****   {
 974              		.loc 1 1015 32 is_stmt 1 discriminator 2 view .LVU269
 975 005e 0135     		adds	r5, r5, #1
 976              	.LVL112:
 977              	.L75:
1015:Core/Src/main.c ****   {
 978              		.loc 1 1015 26 discriminator 1 view .LVU270
 979 0060 B5F5966F 		cmp	r5, #1200
 980 0064 50D2     		bcs	.L92
 981              	.LBB22:
1017:Core/Src/main.c ****     int32_t s = 0;
 982              		.loc 1 1017 5 view .LVU271
1017:Core/Src/main.c ****     int32_t s = 0;
 983              		.loc 1 1017 32 is_stmt 0 view .LVU272
 984 0066 C5F59668 		rsb	r8, r5, #1200
1017:Core/Src/main.c ****     int32_t s = 0;
 985              		.loc 1 1017 37 view .LVU273
 986 006a C8EBC838 		rsb	r8, r8, r8, lsl #15
1017:Core/Src/main.c ****     int32_t s = 0;
 987              		.loc 1 1017 46 view .LVU274
 988 006e 2B4C     		ldr	r4, .L93
 989 0070 A4FB0834 		umull	r3, r4, r4, r8
 990 0074 E409     		lsrs	r4, r4, #7
 991              	.LVL113:
1018:Core/Src/main.c ****     switch (inst)
 992              		.loc 1 1018 5 is_stmt 1 view .LVU275
1019:Core/Src/main.c ****     {
 993              		.loc 1 1019 5 view .LVU276
 994 0076 032E     		cmp	r6, #3
 995 0078 20D8     		bhi	.L76
 996 007a 01A3     		adr	r3, .L78
 997 007c 53F826F0 		ldr	pc, [r3, r6, lsl #2]
 998              		.p2align 2
 999              	.L78:
 1000 0080 1F000000 		.word	.L81+1
 1001 0084 43000000 		.word	.L80+1
 1002 0088 91000000 		.word	.L79+1
 1003 008c AD000000 		.word	.L77+1
 1004              		.p2align 1
 1005              	.L79:
 1006              	.LBB18:
1036:Core/Src/main.c ****         s = rnd * 3;
 1007              		.loc 1 1036 9 view .LVU277
1036:Core/Src/main.c ****         s = rnd * 3;
ARM GAS  C:\Users\cesco\AppData\Local\Temp\ccHBw06Y.s 			page 38


 1008              		.loc 1 1036 34 is_stmt 0 view .LVU278
 1009 0090 FFF7FEFF 		bl	FastRandU32
 1010              	.LVL114:
1036:Core/Src/main.c ****         s = rnd * 3;
 1011              		.loc 1 1036 23 discriminator 1 view .LVU279
 1012 0094 C0F30E43 		ubfx	r3, r0, #16, #15
1036:Core/Src/main.c ****         s = rnd * 3;
 1013              		.loc 1 1036 17 discriminator 1 view .LVU280
 1014 0098 A3F58043 		sub	r3, r3, #16384
 1015              	.LVL115:
1037:Core/Src/main.c ****         env = (int32_t)((n - i) * 32767U / (n / 2U));
 1016              		.loc 1 1037 9 is_stmt 1 view .LVU281
1037:Core/Src/main.c ****         env = (int32_t)((n - i) * 32767U / (n / 2U));
 1017              		.loc 1 1037 11 is_stmt 0 view .LVU282
 1018 009c 03EB4300 		add	r0, r3, r3, lsl #1
 1019              	.LVL116:
1038:Core/Src/main.c ****         if (env < 0) env = 0;
 1020              		.loc 1 1038 9 is_stmt 1 view .LVU283
1038:Core/Src/main.c ****         if (env < 0) env = 0;
 1021              		.loc 1 1038 42 is_stmt 0 view .LVU284
 1022 00a0 1E4A     		ldr	r2, .L93
 1023 00a2 A2FB0828 		umull	r2, r8, r2, r8
 1024 00a6 4FEA9814 		lsr	r4, r8, #6
 1025              	.LVL117:
1039:Core/Src/main.c ****         break;
 1026              		.loc 1 1039 9 is_stmt 1 view .LVU285
 1027 00aa D1E7     		b	.L82
 1028              	.LVL118:
 1029              	.L77:
1039:Core/Src/main.c ****         break;
 1030              		.loc 1 1039 9 is_stmt 0 view .LVU286
 1031              	.LBE18:
 1032              	.LBB19:
1044:Core/Src/main.c ****         s = rnd * 2;
 1033              		.loc 1 1044 9 is_stmt 1 view .LVU287
1044:Core/Src/main.c ****         s = rnd * 2;
 1034              		.loc 1 1044 34 is_stmt 0 view .LVU288
 1035 00ac FFF7FEFF 		bl	FastRandU32
 1036              	.LVL119:
1044:Core/Src/main.c ****         s = rnd * 2;
 1037              		.loc 1 1044 23 discriminator 1 view .LVU289
 1038 00b0 C0F30E43 		ubfx	r3, r0, #16, #15
1044:Core/Src/main.c ****         s = rnd * 2;
 1039              		.loc 1 1044 17 discriminator 1 view .LVU290
 1040 00b4 A3F58043 		sub	r3, r3, #16384
 1041              	.LVL120:
1045:Core/Src/main.c ****         break;
 1042              		.loc 1 1045 9 is_stmt 1 view .LVU291
1045:Core/Src/main.c ****         break;
 1043              		.loc 1 1045 11 is_stmt 0 view .LVU292
 1044 00b8 5800     		lsls	r0, r3, #1
 1045              	.LVL121:
1046:Core/Src/main.c ****       }
 1046              		.loc 1 1046 9 is_stmt 1 view .LVU293
 1047 00ba C9E7     		b	.L82
 1048              	.LVL122:
 1049              	.L76:
ARM GAS  C:\Users\cesco\AppData\Local\Temp\ccHBw06Y.s 			page 39


1046:Core/Src/main.c ****       }
 1050              		.loc 1 1046 9 is_stmt 0 view .LVU294
 1051              	.LBE19:
 1052              	.LBB20:
1050:Core/Src/main.c ****         int32_t rnd = (int32_t)((FastRandU32() >> 16) & 0x7FFF) - 16384;
 1053              		.loc 1 1050 9 is_stmt 1 view .LVU295
1050:Core/Src/main.c ****         int32_t rnd = (int32_t)((FastRandU32() >> 16) & 0x7FFF) - 16384;
 1054              		.loc 1 1050 29 is_stmt 0 view .LVU296
 1055 00bc 7822     		movs	r2, #120
 1056 00be B5FBF2F3 		udiv	r3, r5, r2
 1057 00c2 02FB1353 		mls	r3, r2, r3, r5
1050:Core/Src/main.c ****         int32_t rnd = (int32_t)((FastRandU32() >> 16) & 0x7FFF) - 16384;
 1058              		.loc 1 1050 86 view .LVU297
 1059 00c6 182B     		cmp	r3, #24
 1060 00c8 13D9     		bls	.L88
1050:Core/Src/main.c ****         int32_t rnd = (int32_t)((FastRandU32() >> 16) & 0x7FFF) - 16384;
 1061              		.loc 1 1050 43 discriminator 2 view .LVU298
 1062 00ca C82D     		cmp	r5, #200
 1063 00cc 14D9     		bls	.L89
1050:Core/Src/main.c ****         int32_t rnd = (int32_t)((FastRandU32() >> 16) & 0x7FFF) - 16384;
 1064              		.loc 1 1050 62 discriminator 3 view .LVU299
 1065 00ce 8C22     		movs	r2, #140
 1066 00d0 B5FBF2F3 		udiv	r3, r5, r2
 1067 00d4 02FB1353 		mls	r3, r2, r3, r5
1050:Core/Src/main.c ****         int32_t rnd = (int32_t)((FastRandU32() >> 16) & 0x7FFF) - 16384;
 1068              		.loc 1 1050 56 discriminator 3 view .LVU300
 1069 00d8 1D2B     		cmp	r3, #29
 1070 00da 10D9     		bls	.L90
1050:Core/Src/main.c ****         int32_t rnd = (int32_t)((FastRandU32() >> 16) & 0x7FFF) - 16384;
 1071              		.loc 1 1050 86 discriminator 6 view .LVU301
 1072 00dc 4FF00008 		mov	r8, #0
 1073              	.L83:
 1074              	.LVL123:
1051:Core/Src/main.c ****         s = pulse + rnd;
 1075              		.loc 1 1051 9 is_stmt 1 view .LVU302
1051:Core/Src/main.c ****         s = pulse + rnd;
 1076              		.loc 1 1051 34 is_stmt 0 view .LVU303
 1077 00e0 FFF7FEFF 		bl	FastRandU32
 1078              	.LVL124:
1051:Core/Src/main.c ****         s = pulse + rnd;
 1079              		.loc 1 1051 23 discriminator 1 view .LVU304
 1080 00e4 C0F30E43 		ubfx	r3, r0, #16, #15
1051:Core/Src/main.c ****         s = pulse + rnd;
 1081              		.loc 1 1051 17 discriminator 1 view .LVU305
 1082 00e8 A3F58043 		sub	r3, r3, #16384
 1083              	.LVL125:
1052:Core/Src/main.c ****         break;
 1084              		.loc 1 1052 9 is_stmt 1 view .LVU306
1052:Core/Src/main.c ****         break;
 1085              		.loc 1 1052 11 is_stmt 0 view .LVU307
 1086 00ec 08EB0300 		add	r0, r8, r3
 1087              	.LVL126:
1053:Core/Src/main.c ****       }
 1088              		.loc 1 1053 9 is_stmt 1 view .LVU308
 1089 00f0 AEE7     		b	.L82
 1090              	.LVL127:
 1091              	.L88:
ARM GAS  C:\Users\cesco\AppData\Local\Temp\ccHBw06Y.s 			page 40


1050:Core/Src/main.c ****         int32_t rnd = (int32_t)((FastRandU32() >> 16) & 0x7FFF) - 16384;
 1092              		.loc 1 1050 86 is_stmt 0 discriminator 5 view .LVU309
 1093 00f2 44F25068 		movw	r8, #18000
 1094 00f6 F3E7     		b	.L83
 1095              	.L89:
1050:Core/Src/main.c ****         int32_t rnd = (int32_t)((FastRandU32() >> 16) & 0x7FFF) - 16384;
 1096              		.loc 1 1050 86 discriminator 6 view .LVU310
 1097 00f8 4FF00008 		mov	r8, #0
 1098 00fc F0E7     		b	.L83
 1099              	.L90:
1050:Core/Src/main.c ****         int32_t rnd = (int32_t)((FastRandU32() >> 16) & 0x7FFF) - 16384;
 1100              		.loc 1 1050 86 discriminator 5 view .LVU311
 1101 00fe 44F25068 		movw	r8, #18000
 1102 0102 EDE7     		b	.L83
 1103              	.LVL128:
 1104              	.L86:
1050:Core/Src/main.c ****         int32_t rnd = (int32_t)((FastRandU32() >> 16) & 0x7FFF) - 16384;
 1105              		.loc 1 1050 86 discriminator 5 view .LVU312
 1106              	.LBE20:
 1107              	.LBB21:
1025:Core/Src/main.c ****         break;
 1108              		.loc 1 1025 42 discriminator 2 view .LVU313
 1109 0104 0648     		ldr	r0, .L93+4
 1110 0106 A3E7     		b	.L82
 1111              	.LVL129:
 1112              	.L92:
1025:Core/Src/main.c ****         break;
 1113              		.loc 1 1025 42 discriminator 2 view .LVU314
 1114              	.LBE21:
 1115              	.LBE22:
 1116              	.LBE14:
1058:Core/Src/main.c ****   }
1059:Core/Src/main.c **** 
1060:Core/Src/main.c ****   if (inst < NUM_INSTRUMENTS) g_samplesLoadedMask |= (1U << inst);
 1117              		.loc 1 1060 3 is_stmt 1 view .LVU315
 1118              		.loc 1 1060 6 is_stmt 0 view .LVU316
 1119 0108 0F2E     		cmp	r6, #15
 1120 010a 05D8     		bhi	.L74
 1121              		.loc 1 1060 31 is_stmt 1 discriminator 1 view .LVU317
 1122              		.loc 1 1060 58 is_stmt 0 discriminator 1 view .LVU318
 1123 010c 0123     		movs	r3, #1
 1124 010e B340     		lsls	r3, r3, r6
 1125              		.loc 1 1060 51 discriminator 1 view .LVU319
 1126 0110 044A     		ldr	r2, .L93+8
 1127 0112 1168     		ldr	r1, [r2]
 1128 0114 0B43     		orrs	r3, r3, r1
 1129 0116 1360     		str	r3, [r2]
 1130              	.L74:
1061:Core/Src/main.c **** }
 1131              		.loc 1 1061 1 view .LVU320
 1132 0118 BDE8F081 		pop	{r4, r5, r6, r7, r8, pc}
 1133              	.LVL130:
 1134              	.L94:
 1135              		.loc 1 1061 1 view .LVU321
 1136              		.align	2
 1137              	.L93:
 1138 011c B5814E1B 		.word	458129845
ARM GAS  C:\Users\cesco\AppData\Local\Temp\ccHBw06Y.s 			page 41


 1139 0120 10AAFFFF 		.word	-22000
 1140 0124 00000000 		.word	g_samplesLoadedMask
 1141              		.cfi_endproc
 1142              	.LFE162:
 1144              		.section	.text.TriggerVoice,"ax",%progbits
 1145              		.align	1
 1146              		.syntax unified
 1147              		.thumb
 1148              		.thumb_func
 1150              	TriggerVoice:
 1151              	.LVL131:
 1152              	.LFB163:
1062:Core/Src/main.c **** 
1063:Core/Src/main.c **** static void TriggerVoice(uint8_t inst, int16_t gain_q15, int8_t pan)
1064:Core/Src/main.c **** {
 1153              		.loc 1 1064 1 is_stmt 1 view -0
 1154              		.cfi_startproc
 1155              		@ args = 0, pretend = 0, frame = 0
 1156              		@ frame_needed = 0, uses_anonymous_args = 0
1065:Core/Src/main.c ****   if (inst >= NUM_INSTRUMENTS || !g_samples[inst].loaded) return;
 1157              		.loc 1 1065 3 view .LVU323
 1158              		.loc 1 1065 6 is_stmt 0 view .LVU324
 1159 0000 0F28     		cmp	r0, #15
 1160 0002 39D8     		bhi	.L104
1064:Core/Src/main.c ****   if (inst >= NUM_INSTRUMENTS || !g_samples[inst].loaded) return;
 1161              		.loc 1 1064 1 view .LVU325
 1162 0004 30B5     		push	{r4, r5, lr}
 1163              	.LCFI6:
 1164              		.cfi_def_cfa_offset 12
 1165              		.cfi_offset 4, -12
 1166              		.cfi_offset 5, -8
 1167              		.cfi_offset 14, -4
 1168              		.loc 1 1065 50 discriminator 2 view .LVU326
 1169 0006 1D4B     		ldr	r3, .L109
 1170 0008 41F27874 		movw	r4, #6008
 1171 000c 04FB0033 		mla	r3, r4, r0, r3
 1172 0010 41F27474 		movw	r4, #6004
 1173 0014 1B5D     		ldrb	r3, [r3, r4]	@ zero_extendqisi2
 1174              		.loc 1 1065 31 discriminator 2 view .LVU327
 1175 0016 63B3     		cbz	r3, .L95
 1176              	.LBB23:
1066:Core/Src/main.c **** 
1067:Core/Src/main.c ****   int slot = -1;
1068:Core/Src/main.c ****   for (int i = 0; i < (int)MAX_VOICES; i++)
 1177              		.loc 1 1068 12 view .LVU328
 1178 0018 0023     		movs	r3, #0
 1179              	.L97:
 1180              	.LVL132:
 1181              		.loc 1 1068 21 is_stmt 1 discriminator 1 view .LVU329
 1182 001a 092B     		cmp	r3, #9
 1183 001c 07DC     		bgt	.L107
1069:Core/Src/main.c ****   {
1070:Core/Src/main.c ****     if (!g_voices[i].active) { slot = i; break; }
 1184              		.loc 1 1070 5 view .LVU330
 1185              		.loc 1 1070 21 is_stmt 0 view .LVU331
 1186 001e 4FEA031C 		lsl	ip, r3, #4
 1187 0022 174C     		ldr	r4, .L109+4
ARM GAS  C:\Users\cesco\AppData\Local\Temp\ccHBw06Y.s 			page 42


 1188 0024 14F80C40 		ldrb	r4, [r4, ip]	@ zero_extendqisi2
 1189              		.loc 1 1070 8 view .LVU332
 1190 0028 1CB1     		cbz	r4, .L98
1068:Core/Src/main.c ****   {
 1191              		.loc 1 1068 41 is_stmt 1 discriminator 2 view .LVU333
 1192 002a 0133     		adds	r3, r3, #1
 1193              	.LVL133:
1068:Core/Src/main.c ****   {
 1194              		.loc 1 1068 41 is_stmt 0 discriminator 2 view .LVU334
 1195 002c F5E7     		b	.L97
 1196              	.LVL134:
 1197              	.L107:
1068:Core/Src/main.c ****   {
 1198              		.loc 1 1068 41 discriminator 2 view .LVU335
 1199              	.LBE23:
1067:Core/Src/main.c ****   for (int i = 0; i < (int)MAX_VOICES; i++)
 1200              		.loc 1 1067 7 view .LVU336
 1201 002e 4FF0FF33 		mov	r3, #-1
 1202              	.LVL135:
 1203              	.L98:
1071:Core/Src/main.c ****   }
1072:Core/Src/main.c ****   if (slot < 0) slot = 0;
 1204              		.loc 1 1072 3 is_stmt 1 view .LVU337
 1205              		.loc 1 1072 6 is_stmt 0 view .LVU338
 1206 0032 002B     		cmp	r3, #0
 1207 0034 1EDB     		blt	.L108
 1208              	.LVL136:
 1209              	.L100:
1073:Core/Src/main.c **** 
1074:Core/Src/main.c ****   g_voices[slot].active = 1;
 1210              		.loc 1 1074 3 is_stmt 1 view .LVU339
 1211              		.loc 1 1074 25 is_stmt 0 view .LVU340
 1212 0036 124D     		ldr	r5, .L109+4
 1213 0038 4FEA031C 		lsl	ip, r3, #4
 1214 003c 05EB0314 		add	r4, r5, r3, lsl #4
 1215 0040 4FF0010E 		mov	lr, #1
 1216 0044 05F80CE0 		strb	lr, [r5, ip]
1075:Core/Src/main.c ****   g_voices[slot].inst = inst;
 1217              		.loc 1 1075 3 is_stmt 1 view .LVU341
 1218              		.loc 1 1075 23 is_stmt 0 view .LVU342
 1219 0048 6070     		strb	r0, [r4, #1]
1076:Core/Src/main.c ****   g_voices[slot].pos = 0;
 1220              		.loc 1 1076 3 is_stmt 1 view .LVU343
 1221              		.loc 1 1076 22 is_stmt 0 view .LVU344
 1222 004a 0025     		movs	r5, #0
 1223 004c 6560     		str	r5, [r4, #4]
1077:Core/Src/main.c ****   g_voices[slot].frac_q12 = 0;
 1224              		.loc 1 1077 3 is_stmt 1 view .LVU345
 1225              		.loc 1 1077 27 is_stmt 0 view .LVU346
 1226 004e 2581     		strh	r5, [r4, #8]	@ movhi
1078:Core/Src/main.c ****   g_voices[slot].step_q12 = g_instPitchQ12[inst];
 1227              		.loc 1 1078 3 is_stmt 1 view .LVU347
 1228              		.loc 1 1078 43 is_stmt 0 view .LVU348
 1229 0050 0C4D     		ldr	r5, .L109+8
 1230 0052 35F81000 		ldrh	r0, [r5, r0, lsl #1]
 1231              	.LVL137:
 1232              		.loc 1 1078 43 view .LVU349
ARM GAS  C:\Users\cesco\AppData\Local\Temp\ccHBw06Y.s 			page 43


 1233 0056 80B2     		uxth	r0, r0
 1234              		.loc 1 1078 27 view .LVU350
 1235 0058 6081     		strh	r0, [r4, #10]	@ movhi
1079:Core/Src/main.c ****   if (g_voices[slot].step_q12 < 512U) g_voices[slot].step_q12 = 512U;
 1236              		.loc 1 1079 3 is_stmt 1 view .LVU351
 1237              		.loc 1 1079 6 is_stmt 0 view .LVU352
 1238 005a B0F5007F 		cmp	r0, #512
 1239 005e 03D2     		bcs	.L101
 1240              		.loc 1 1079 39 is_stmt 1 discriminator 1 view .LVU353
 1241              		.loc 1 1079 63 is_stmt 0 discriminator 1 view .LVU354
 1242 0060 2046     		mov	r0, r4
 1243 0062 4FF40074 		mov	r4, #512
 1244              	.LVL138:
 1245              		.loc 1 1079 63 discriminator 1 view .LVU355
 1246 0066 4481     		strh	r4, [r0, #10]	@ movhi
 1247              	.LVL139:
 1248              	.L101:
1080:Core/Src/main.c ****   g_voices[slot].gain_q15 = gain_q15;
 1249              		.loc 1 1080 3 is_stmt 1 view .LVU356
 1250              		.loc 1 1080 27 is_stmt 0 view .LVU357
 1251 0068 0548     		ldr	r0, .L109+4
 1252              	.LVL140:
 1253              		.loc 1 1080 27 view .LVU358
 1254 006a 00EB0313 		add	r3, r0, r3, lsl #4
 1255              	.LVL141:
 1256              		.loc 1 1080 27 view .LVU359
 1257 006e 9981     		strh	r1, [r3, #12]	@ movhi
1081:Core/Src/main.c ****   g_voices[slot].pan = pan;
 1258              		.loc 1 1081 3 is_stmt 1 view .LVU360
 1259              		.loc 1 1081 22 is_stmt 0 view .LVU361
 1260 0070 9A73     		strb	r2, [r3, #14]
 1261              	.LVL142:
 1262              	.L95:
1082:Core/Src/main.c **** }
 1263              		.loc 1 1082 1 view .LVU362
 1264 0072 30BD     		pop	{r4, r5, pc}
 1265              	.LVL143:
 1266              	.L108:
1072:Core/Src/main.c **** 
 1267              		.loc 1 1072 22 discriminator 1 view .LVU363
 1268 0074 0023     		movs	r3, #0
 1269              	.LVL144:
1072:Core/Src/main.c **** 
 1270              		.loc 1 1072 22 discriminator 1 view .LVU364
 1271 0076 DEE7     		b	.L100
 1272              	.LVL145:
 1273              	.L104:
 1274              	.LCFI7:
 1275              		.cfi_def_cfa_offset 0
 1276              		.cfi_restore 4
 1277              		.cfi_restore 5
 1278              		.cfi_restore 14
1072:Core/Src/main.c **** 
 1279              		.loc 1 1072 22 discriminator 1 view .LVU365
 1280 0078 7047     		bx	lr
 1281              	.L110:
 1282 007a 00BF     		.align	2
ARM GAS  C:\Users\cesco\AppData\Local\Temp\ccHBw06Y.s 			page 44


 1283              	.L109:
 1284 007c 00000000 		.word	g_samples
 1285 0080 00000000 		.word	g_voices
 1286 0084 00000000 		.word	g_instPitchQ12
 1287              		.cfi_endproc
 1288              	.LFE163:
 1290              		.section	.text.ProcessSpiTriggers,"ax",%progbits
 1291              		.align	1
 1292              		.syntax unified
 1293              		.thumb
 1294              		.thumb_func
 1296              	ProcessSpiTriggers:
 1297              	.LFB164:
1083:Core/Src/main.c **** 
1084:Core/Src/main.c **** static void ProcessSpiTriggers(void)
1085:Core/Src/main.c **** {
 1298              		.loc 1 1085 1 is_stmt 1 view -0
 1299              		.cfi_startproc
 1300              		@ args = 0, pretend = 0, frame = 0
 1301              		@ frame_needed = 0, uses_anonymous_args = 0
 1302 0000 08B5     		push	{r3, lr}
 1303              	.LCFI8:
 1304              		.cfi_def_cfa_offset 8
 1305              		.cfi_offset 3, -8
 1306              		.cfi_offset 14, -4
 1307 0002 06E0     		b	.L115
 1308              	.L121:
 1309              	.LBB24:
1086:Core/Src/main.c ****   while (1)
1087:Core/Src/main.c ****   {
1088:Core/Src/main.c ****     uint8_t pad;
1089:Core/Src/main.c ****     uint8_t vel;
1090:Core/Src/main.c **** 
1091:Core/Src/main.c ****     __disable_irq();
1092:Core/Src/main.c ****     if (g_spiTrigTail == g_spiTrigHead)
1093:Core/Src/main.c ****     {
1094:Core/Src/main.c ****       __enable_irq();
 1310              		.loc 1 1094 7 view .LVU367
 1311              	.LBB25:
 1312              	.LBI25:
 1313              		.file 2 "Drivers/CMSIS/Include/cmsis_gcc.h"
   1:Drivers/CMSIS/Include/cmsis_gcc.h **** /**************************************************************************//**
   2:Drivers/CMSIS/Include/cmsis_gcc.h ****  * @file     cmsis_gcc.h
   3:Drivers/CMSIS/Include/cmsis_gcc.h ****  * @brief    CMSIS compiler GCC header file
   4:Drivers/CMSIS/Include/cmsis_gcc.h ****  * @version  V5.4.1
   5:Drivers/CMSIS/Include/cmsis_gcc.h ****  * @date     27. May 2021
   6:Drivers/CMSIS/Include/cmsis_gcc.h ****  ******************************************************************************/
   7:Drivers/CMSIS/Include/cmsis_gcc.h **** /*
   8:Drivers/CMSIS/Include/cmsis_gcc.h ****  * Copyright (c) 2009-2021 Arm Limited. All rights reserved.
   9:Drivers/CMSIS/Include/cmsis_gcc.h ****  *
  10:Drivers/CMSIS/Include/cmsis_gcc.h ****  * SPDX-License-Identifier: Apache-2.0
  11:Drivers/CMSIS/Include/cmsis_gcc.h ****  *
  12:Drivers/CMSIS/Include/cmsis_gcc.h ****  * Licensed under the Apache License, Version 2.0 (the License); you may
  13:Drivers/CMSIS/Include/cmsis_gcc.h ****  * not use this file except in compliance with the License.
  14:Drivers/CMSIS/Include/cmsis_gcc.h ****  * You may obtain a copy of the License at
  15:Drivers/CMSIS/Include/cmsis_gcc.h ****  *
  16:Drivers/CMSIS/Include/cmsis_gcc.h ****  * www.apache.org/licenses/LICENSE-2.0
ARM GAS  C:\Users\cesco\AppData\Local\Temp\ccHBw06Y.s 			page 45


  17:Drivers/CMSIS/Include/cmsis_gcc.h ****  *
  18:Drivers/CMSIS/Include/cmsis_gcc.h ****  * Unless required by applicable law or agreed to in writing, software
  19:Drivers/CMSIS/Include/cmsis_gcc.h ****  * distributed under the License is distributed on an AS IS BASIS, WITHOUT
  20:Drivers/CMSIS/Include/cmsis_gcc.h ****  * WARRANTIES OR CONDITIONS OF ANY KIND, either express or implied.
  21:Drivers/CMSIS/Include/cmsis_gcc.h ****  * See the License for the specific language governing permissions and
  22:Drivers/CMSIS/Include/cmsis_gcc.h ****  * limitations under the License.
  23:Drivers/CMSIS/Include/cmsis_gcc.h ****  */
  24:Drivers/CMSIS/Include/cmsis_gcc.h **** 
  25:Drivers/CMSIS/Include/cmsis_gcc.h **** #ifndef __CMSIS_GCC_H
  26:Drivers/CMSIS/Include/cmsis_gcc.h **** #define __CMSIS_GCC_H
  27:Drivers/CMSIS/Include/cmsis_gcc.h **** 
  28:Drivers/CMSIS/Include/cmsis_gcc.h **** /* ignore some GCC warnings */
  29:Drivers/CMSIS/Include/cmsis_gcc.h **** #pragma GCC diagnostic push
  30:Drivers/CMSIS/Include/cmsis_gcc.h **** #pragma GCC diagnostic ignored "-Wsign-conversion"
  31:Drivers/CMSIS/Include/cmsis_gcc.h **** #pragma GCC diagnostic ignored "-Wconversion"
  32:Drivers/CMSIS/Include/cmsis_gcc.h **** #pragma GCC diagnostic ignored "-Wunused-parameter"
  33:Drivers/CMSIS/Include/cmsis_gcc.h **** 
  34:Drivers/CMSIS/Include/cmsis_gcc.h **** /* Fallback for __has_builtin */
  35:Drivers/CMSIS/Include/cmsis_gcc.h **** #ifndef __has_builtin
  36:Drivers/CMSIS/Include/cmsis_gcc.h ****   #define __has_builtin(x) (0)
  37:Drivers/CMSIS/Include/cmsis_gcc.h **** #endif
  38:Drivers/CMSIS/Include/cmsis_gcc.h **** 
  39:Drivers/CMSIS/Include/cmsis_gcc.h **** /* CMSIS compiler specific defines */
  40:Drivers/CMSIS/Include/cmsis_gcc.h **** #ifndef   __ASM
  41:Drivers/CMSIS/Include/cmsis_gcc.h ****   #define __ASM                                  __asm
  42:Drivers/CMSIS/Include/cmsis_gcc.h **** #endif
  43:Drivers/CMSIS/Include/cmsis_gcc.h **** #ifndef   __INLINE
  44:Drivers/CMSIS/Include/cmsis_gcc.h ****   #define __INLINE                               inline
  45:Drivers/CMSIS/Include/cmsis_gcc.h **** #endif
  46:Drivers/CMSIS/Include/cmsis_gcc.h **** #ifndef   __STATIC_INLINE
  47:Drivers/CMSIS/Include/cmsis_gcc.h ****   #define __STATIC_INLINE                        static inline
  48:Drivers/CMSIS/Include/cmsis_gcc.h **** #endif
  49:Drivers/CMSIS/Include/cmsis_gcc.h **** #ifndef   __STATIC_FORCEINLINE
  50:Drivers/CMSIS/Include/cmsis_gcc.h ****   #define __STATIC_FORCEINLINE                   __attribute__((always_inline)) static inline
  51:Drivers/CMSIS/Include/cmsis_gcc.h **** #endif
  52:Drivers/CMSIS/Include/cmsis_gcc.h **** #ifndef   __NO_RETURN
  53:Drivers/CMSIS/Include/cmsis_gcc.h ****   #define __NO_RETURN                            __attribute__((__noreturn__))
  54:Drivers/CMSIS/Include/cmsis_gcc.h **** #endif
  55:Drivers/CMSIS/Include/cmsis_gcc.h **** #ifndef   __USED
  56:Drivers/CMSIS/Include/cmsis_gcc.h ****   #define __USED                                 __attribute__((used))
  57:Drivers/CMSIS/Include/cmsis_gcc.h **** #endif
  58:Drivers/CMSIS/Include/cmsis_gcc.h **** #ifndef   __WEAK
  59:Drivers/CMSIS/Include/cmsis_gcc.h ****   #define __WEAK                                 __attribute__((weak))
  60:Drivers/CMSIS/Include/cmsis_gcc.h **** #endif
  61:Drivers/CMSIS/Include/cmsis_gcc.h **** #ifndef   __PACKED
  62:Drivers/CMSIS/Include/cmsis_gcc.h ****   #define __PACKED                               __attribute__((packed, aligned(1)))
  63:Drivers/CMSIS/Include/cmsis_gcc.h **** #endif
  64:Drivers/CMSIS/Include/cmsis_gcc.h **** #ifndef   __PACKED_STRUCT
  65:Drivers/CMSIS/Include/cmsis_gcc.h ****   #define __PACKED_STRUCT                        struct __attribute__((packed, aligned(1)))
  66:Drivers/CMSIS/Include/cmsis_gcc.h **** #endif
  67:Drivers/CMSIS/Include/cmsis_gcc.h **** #ifndef   __PACKED_UNION
  68:Drivers/CMSIS/Include/cmsis_gcc.h ****   #define __PACKED_UNION                         union __attribute__((packed, aligned(1)))
  69:Drivers/CMSIS/Include/cmsis_gcc.h **** #endif
  70:Drivers/CMSIS/Include/cmsis_gcc.h **** #ifndef   __UNALIGNED_UINT32        /* deprecated */
  71:Drivers/CMSIS/Include/cmsis_gcc.h ****   #pragma GCC diagnostic push
  72:Drivers/CMSIS/Include/cmsis_gcc.h ****   #pragma GCC diagnostic ignored "-Wpacked"
  73:Drivers/CMSIS/Include/cmsis_gcc.h ****   #pragma GCC diagnostic ignored "-Wattributes"
ARM GAS  C:\Users\cesco\AppData\Local\Temp\ccHBw06Y.s 			page 46


  74:Drivers/CMSIS/Include/cmsis_gcc.h ****   struct __attribute__((packed)) T_UINT32 { uint32_t v; };
  75:Drivers/CMSIS/Include/cmsis_gcc.h ****   #pragma GCC diagnostic pop
  76:Drivers/CMSIS/Include/cmsis_gcc.h ****   #define __UNALIGNED_UINT32(x)                  (((struct T_UINT32 *)(x))->v)
  77:Drivers/CMSIS/Include/cmsis_gcc.h **** #endif
  78:Drivers/CMSIS/Include/cmsis_gcc.h **** #ifndef   __UNALIGNED_UINT16_WRITE
  79:Drivers/CMSIS/Include/cmsis_gcc.h ****   #pragma GCC diagnostic push
  80:Drivers/CMSIS/Include/cmsis_gcc.h ****   #pragma GCC diagnostic ignored "-Wpacked"
  81:Drivers/CMSIS/Include/cmsis_gcc.h ****   #pragma GCC diagnostic ignored "-Wattributes"
  82:Drivers/CMSIS/Include/cmsis_gcc.h ****   __PACKED_STRUCT T_UINT16_WRITE { uint16_t v; };
  83:Drivers/CMSIS/Include/cmsis_gcc.h ****   #pragma GCC diagnostic pop
  84:Drivers/CMSIS/Include/cmsis_gcc.h ****   #define __UNALIGNED_UINT16_WRITE(addr, val)    (void)((((struct T_UINT16_WRITE *)(void *)(addr))-
  85:Drivers/CMSIS/Include/cmsis_gcc.h **** #endif
  86:Drivers/CMSIS/Include/cmsis_gcc.h **** #ifndef   __UNALIGNED_UINT16_READ
  87:Drivers/CMSIS/Include/cmsis_gcc.h ****   #pragma GCC diagnostic push
  88:Drivers/CMSIS/Include/cmsis_gcc.h ****   #pragma GCC diagnostic ignored "-Wpacked"
  89:Drivers/CMSIS/Include/cmsis_gcc.h ****   #pragma GCC diagnostic ignored "-Wattributes"
  90:Drivers/CMSIS/Include/cmsis_gcc.h ****   __PACKED_STRUCT T_UINT16_READ { uint16_t v; };
  91:Drivers/CMSIS/Include/cmsis_gcc.h ****   #pragma GCC diagnostic pop
  92:Drivers/CMSIS/Include/cmsis_gcc.h ****   #define __UNALIGNED_UINT16_READ(addr)          (((const struct T_UINT16_READ *)(const void *)(add
  93:Drivers/CMSIS/Include/cmsis_gcc.h **** #endif
  94:Drivers/CMSIS/Include/cmsis_gcc.h **** #ifndef   __UNALIGNED_UINT32_WRITE
  95:Drivers/CMSIS/Include/cmsis_gcc.h ****   #pragma GCC diagnostic push
  96:Drivers/CMSIS/Include/cmsis_gcc.h ****   #pragma GCC diagnostic ignored "-Wpacked"
  97:Drivers/CMSIS/Include/cmsis_gcc.h ****   #pragma GCC diagnostic ignored "-Wattributes"
  98:Drivers/CMSIS/Include/cmsis_gcc.h ****   __PACKED_STRUCT T_UINT32_WRITE { uint32_t v; };
  99:Drivers/CMSIS/Include/cmsis_gcc.h ****   #pragma GCC diagnostic pop
 100:Drivers/CMSIS/Include/cmsis_gcc.h ****   #define __UNALIGNED_UINT32_WRITE(addr, val)    (void)((((struct T_UINT32_WRITE *)(void *)(addr))-
 101:Drivers/CMSIS/Include/cmsis_gcc.h **** #endif
 102:Drivers/CMSIS/Include/cmsis_gcc.h **** #ifndef   __UNALIGNED_UINT32_READ
 103:Drivers/CMSIS/Include/cmsis_gcc.h ****   #pragma GCC diagnostic push
 104:Drivers/CMSIS/Include/cmsis_gcc.h ****   #pragma GCC diagnostic ignored "-Wpacked"
 105:Drivers/CMSIS/Include/cmsis_gcc.h ****   #pragma GCC diagnostic ignored "-Wattributes"
 106:Drivers/CMSIS/Include/cmsis_gcc.h ****   __PACKED_STRUCT T_UINT32_READ { uint32_t v; };
 107:Drivers/CMSIS/Include/cmsis_gcc.h ****   #pragma GCC diagnostic pop
 108:Drivers/CMSIS/Include/cmsis_gcc.h ****   #define __UNALIGNED_UINT32_READ(addr)          (((const struct T_UINT32_READ *)(const void *)(add
 109:Drivers/CMSIS/Include/cmsis_gcc.h **** #endif
 110:Drivers/CMSIS/Include/cmsis_gcc.h **** #ifndef   __ALIGNED
 111:Drivers/CMSIS/Include/cmsis_gcc.h ****   #define __ALIGNED(x)                           __attribute__((aligned(x)))
 112:Drivers/CMSIS/Include/cmsis_gcc.h **** #endif
 113:Drivers/CMSIS/Include/cmsis_gcc.h **** #ifndef   __RESTRICT
 114:Drivers/CMSIS/Include/cmsis_gcc.h ****   #define __RESTRICT                             __restrict
 115:Drivers/CMSIS/Include/cmsis_gcc.h **** #endif
 116:Drivers/CMSIS/Include/cmsis_gcc.h **** #ifndef   __COMPILER_BARRIER
 117:Drivers/CMSIS/Include/cmsis_gcc.h ****   #define __COMPILER_BARRIER()                   __ASM volatile("":::"memory")
 118:Drivers/CMSIS/Include/cmsis_gcc.h **** #endif
 119:Drivers/CMSIS/Include/cmsis_gcc.h **** 
 120:Drivers/CMSIS/Include/cmsis_gcc.h **** /* #########################  Startup and Lowlevel Init  ######################## */
 121:Drivers/CMSIS/Include/cmsis_gcc.h **** 
 122:Drivers/CMSIS/Include/cmsis_gcc.h **** #ifndef __PROGRAM_START
 123:Drivers/CMSIS/Include/cmsis_gcc.h **** 
 124:Drivers/CMSIS/Include/cmsis_gcc.h **** /**
 125:Drivers/CMSIS/Include/cmsis_gcc.h ****   \brief   Initializes data and bss sections
 126:Drivers/CMSIS/Include/cmsis_gcc.h ****   \details This default implementations initialized all data and additional bss
 127:Drivers/CMSIS/Include/cmsis_gcc.h ****            sections relying on .copy.table and .zero.table specified properly
 128:Drivers/CMSIS/Include/cmsis_gcc.h ****            in the used linker script.
 129:Drivers/CMSIS/Include/cmsis_gcc.h **** 
 130:Drivers/CMSIS/Include/cmsis_gcc.h ****  */
ARM GAS  C:\Users\cesco\AppData\Local\Temp\ccHBw06Y.s 			page 47


 131:Drivers/CMSIS/Include/cmsis_gcc.h **** __STATIC_FORCEINLINE __NO_RETURN void __cmsis_start(void)
 132:Drivers/CMSIS/Include/cmsis_gcc.h **** {
 133:Drivers/CMSIS/Include/cmsis_gcc.h ****   extern void _start(void) __NO_RETURN;
 134:Drivers/CMSIS/Include/cmsis_gcc.h **** 
 135:Drivers/CMSIS/Include/cmsis_gcc.h ****   typedef struct {
 136:Drivers/CMSIS/Include/cmsis_gcc.h ****     uint32_t const* src;
 137:Drivers/CMSIS/Include/cmsis_gcc.h ****     uint32_t* dest;
 138:Drivers/CMSIS/Include/cmsis_gcc.h ****     uint32_t  wlen;
 139:Drivers/CMSIS/Include/cmsis_gcc.h ****   } __copy_table_t;
 140:Drivers/CMSIS/Include/cmsis_gcc.h **** 
 141:Drivers/CMSIS/Include/cmsis_gcc.h ****   typedef struct {
 142:Drivers/CMSIS/Include/cmsis_gcc.h ****     uint32_t* dest;
 143:Drivers/CMSIS/Include/cmsis_gcc.h ****     uint32_t  wlen;
 144:Drivers/CMSIS/Include/cmsis_gcc.h ****   } __zero_table_t;
 145:Drivers/CMSIS/Include/cmsis_gcc.h **** 
 146:Drivers/CMSIS/Include/cmsis_gcc.h ****   extern const __copy_table_t __copy_table_start__;
 147:Drivers/CMSIS/Include/cmsis_gcc.h ****   extern const __copy_table_t __copy_table_end__;
 148:Drivers/CMSIS/Include/cmsis_gcc.h ****   extern const __zero_table_t __zero_table_start__;
 149:Drivers/CMSIS/Include/cmsis_gcc.h ****   extern const __zero_table_t __zero_table_end__;
 150:Drivers/CMSIS/Include/cmsis_gcc.h **** 
 151:Drivers/CMSIS/Include/cmsis_gcc.h ****   for (__copy_table_t const* pTable = &__copy_table_start__; pTable < &__copy_table_end__; ++pTable
 152:Drivers/CMSIS/Include/cmsis_gcc.h ****     for(uint32_t i=0u; i<pTable->wlen; ++i) {
 153:Drivers/CMSIS/Include/cmsis_gcc.h ****       pTable->dest[i] = pTable->src[i];
 154:Drivers/CMSIS/Include/cmsis_gcc.h ****     }
 155:Drivers/CMSIS/Include/cmsis_gcc.h ****   }
 156:Drivers/CMSIS/Include/cmsis_gcc.h **** 
 157:Drivers/CMSIS/Include/cmsis_gcc.h ****   for (__zero_table_t const* pTable = &__zero_table_start__; pTable < &__zero_table_end__; ++pTable
 158:Drivers/CMSIS/Include/cmsis_gcc.h ****     for(uint32_t i=0u; i<pTable->wlen; ++i) {
 159:Drivers/CMSIS/Include/cmsis_gcc.h ****       pTable->dest[i] = 0u;
 160:Drivers/CMSIS/Include/cmsis_gcc.h ****     }
 161:Drivers/CMSIS/Include/cmsis_gcc.h ****   }
 162:Drivers/CMSIS/Include/cmsis_gcc.h **** 
 163:Drivers/CMSIS/Include/cmsis_gcc.h ****   _start();
 164:Drivers/CMSIS/Include/cmsis_gcc.h **** }
 165:Drivers/CMSIS/Include/cmsis_gcc.h **** 
 166:Drivers/CMSIS/Include/cmsis_gcc.h **** #define __PROGRAM_START           __cmsis_start
 167:Drivers/CMSIS/Include/cmsis_gcc.h **** #endif
 168:Drivers/CMSIS/Include/cmsis_gcc.h **** 
 169:Drivers/CMSIS/Include/cmsis_gcc.h **** #ifndef __INITIAL_SP
 170:Drivers/CMSIS/Include/cmsis_gcc.h **** #define __INITIAL_SP              __StackTop
 171:Drivers/CMSIS/Include/cmsis_gcc.h **** #endif
 172:Drivers/CMSIS/Include/cmsis_gcc.h **** 
 173:Drivers/CMSIS/Include/cmsis_gcc.h **** #ifndef __STACK_LIMIT
 174:Drivers/CMSIS/Include/cmsis_gcc.h **** #define __STACK_LIMIT             __StackLimit
 175:Drivers/CMSIS/Include/cmsis_gcc.h **** #endif
 176:Drivers/CMSIS/Include/cmsis_gcc.h **** 
 177:Drivers/CMSIS/Include/cmsis_gcc.h **** #ifndef __VECTOR_TABLE
 178:Drivers/CMSIS/Include/cmsis_gcc.h **** #define __VECTOR_TABLE            __Vectors
 179:Drivers/CMSIS/Include/cmsis_gcc.h **** #endif
 180:Drivers/CMSIS/Include/cmsis_gcc.h **** 
 181:Drivers/CMSIS/Include/cmsis_gcc.h **** #ifndef __VECTOR_TABLE_ATTRIBUTE
 182:Drivers/CMSIS/Include/cmsis_gcc.h **** #define __VECTOR_TABLE_ATTRIBUTE  __attribute__((used, section(".vectors")))
 183:Drivers/CMSIS/Include/cmsis_gcc.h **** #endif
 184:Drivers/CMSIS/Include/cmsis_gcc.h **** 
 185:Drivers/CMSIS/Include/cmsis_gcc.h **** #if defined (__ARM_FEATURE_CMSE) && (__ARM_FEATURE_CMSE == 3U)
 186:Drivers/CMSIS/Include/cmsis_gcc.h **** #ifndef __STACK_SEAL
 187:Drivers/CMSIS/Include/cmsis_gcc.h **** #define __STACK_SEAL              __StackSeal
ARM GAS  C:\Users\cesco\AppData\Local\Temp\ccHBw06Y.s 			page 48


 188:Drivers/CMSIS/Include/cmsis_gcc.h **** #endif
 189:Drivers/CMSIS/Include/cmsis_gcc.h **** 
 190:Drivers/CMSIS/Include/cmsis_gcc.h **** #ifndef __TZ_STACK_SEAL_SIZE
 191:Drivers/CMSIS/Include/cmsis_gcc.h **** #define __TZ_STACK_SEAL_SIZE      8U
 192:Drivers/CMSIS/Include/cmsis_gcc.h **** #endif
 193:Drivers/CMSIS/Include/cmsis_gcc.h **** 
 194:Drivers/CMSIS/Include/cmsis_gcc.h **** #ifndef __TZ_STACK_SEAL_VALUE
 195:Drivers/CMSIS/Include/cmsis_gcc.h **** #define __TZ_STACK_SEAL_VALUE     0xFEF5EDA5FEF5EDA5ULL
 196:Drivers/CMSIS/Include/cmsis_gcc.h **** #endif
 197:Drivers/CMSIS/Include/cmsis_gcc.h **** 
 198:Drivers/CMSIS/Include/cmsis_gcc.h **** 
 199:Drivers/CMSIS/Include/cmsis_gcc.h **** __STATIC_FORCEINLINE void __TZ_set_STACKSEAL_S (uint32_t* stackTop) {
 200:Drivers/CMSIS/Include/cmsis_gcc.h ****   *((uint64_t *)stackTop) = __TZ_STACK_SEAL_VALUE;
 201:Drivers/CMSIS/Include/cmsis_gcc.h **** }
 202:Drivers/CMSIS/Include/cmsis_gcc.h **** #endif
 203:Drivers/CMSIS/Include/cmsis_gcc.h **** 
 204:Drivers/CMSIS/Include/cmsis_gcc.h **** 
 205:Drivers/CMSIS/Include/cmsis_gcc.h **** /* ##########################  Core Instruction Access  ######################### */
 206:Drivers/CMSIS/Include/cmsis_gcc.h **** /** \defgroup CMSIS_Core_InstructionInterface CMSIS Core Instruction Interface
 207:Drivers/CMSIS/Include/cmsis_gcc.h ****   Access to dedicated instructions
 208:Drivers/CMSIS/Include/cmsis_gcc.h ****   @{
 209:Drivers/CMSIS/Include/cmsis_gcc.h **** */
 210:Drivers/CMSIS/Include/cmsis_gcc.h **** 
 211:Drivers/CMSIS/Include/cmsis_gcc.h **** /* Define macros for porting to both thumb1 and thumb2.
 212:Drivers/CMSIS/Include/cmsis_gcc.h ****  * For thumb1, use low register (r0-r7), specified by constraint "l"
 213:Drivers/CMSIS/Include/cmsis_gcc.h ****  * Otherwise, use general registers, specified by constraint "r" */
 214:Drivers/CMSIS/Include/cmsis_gcc.h **** #if defined (__thumb__) && !defined (__thumb2__)
 215:Drivers/CMSIS/Include/cmsis_gcc.h **** #define __CMSIS_GCC_OUT_REG(r) "=l" (r)
 216:Drivers/CMSIS/Include/cmsis_gcc.h **** #define __CMSIS_GCC_RW_REG(r) "+l" (r)
 217:Drivers/CMSIS/Include/cmsis_gcc.h **** #define __CMSIS_GCC_USE_REG(r) "l" (r)
 218:Drivers/CMSIS/Include/cmsis_gcc.h **** #else
 219:Drivers/CMSIS/Include/cmsis_gcc.h **** #define __CMSIS_GCC_OUT_REG(r) "=r" (r)
 220:Drivers/CMSIS/Include/cmsis_gcc.h **** #define __CMSIS_GCC_RW_REG(r) "+r" (r)
 221:Drivers/CMSIS/Include/cmsis_gcc.h **** #define __CMSIS_GCC_USE_REG(r) "r" (r)
 222:Drivers/CMSIS/Include/cmsis_gcc.h **** #endif
 223:Drivers/CMSIS/Include/cmsis_gcc.h **** 
 224:Drivers/CMSIS/Include/cmsis_gcc.h **** /**
 225:Drivers/CMSIS/Include/cmsis_gcc.h ****   \brief   No Operation
 226:Drivers/CMSIS/Include/cmsis_gcc.h ****   \details No Operation does nothing. This instruction can be used for code alignment purposes.
 227:Drivers/CMSIS/Include/cmsis_gcc.h ****  */
 228:Drivers/CMSIS/Include/cmsis_gcc.h **** #define __NOP()                             __ASM volatile ("nop")
 229:Drivers/CMSIS/Include/cmsis_gcc.h **** 
 230:Drivers/CMSIS/Include/cmsis_gcc.h **** /**
 231:Drivers/CMSIS/Include/cmsis_gcc.h ****   \brief   Wait For Interrupt
 232:Drivers/CMSIS/Include/cmsis_gcc.h ****   \details Wait For Interrupt is a hint instruction that suspends execution until one of a number o
 233:Drivers/CMSIS/Include/cmsis_gcc.h ****  */
 234:Drivers/CMSIS/Include/cmsis_gcc.h **** #define __WFI()                             __ASM volatile ("wfi":::"memory")
 235:Drivers/CMSIS/Include/cmsis_gcc.h **** 
 236:Drivers/CMSIS/Include/cmsis_gcc.h **** 
 237:Drivers/CMSIS/Include/cmsis_gcc.h **** /**
 238:Drivers/CMSIS/Include/cmsis_gcc.h ****   \brief   Wait For Event
 239:Drivers/CMSIS/Include/cmsis_gcc.h ****   \details Wait For Event is a hint instruction that permits the processor to enter
 240:Drivers/CMSIS/Include/cmsis_gcc.h ****            a low-power state until one of a number of events occurs.
 241:Drivers/CMSIS/Include/cmsis_gcc.h ****  */
 242:Drivers/CMSIS/Include/cmsis_gcc.h **** #define __WFE()                             __ASM volatile ("wfe":::"memory")
 243:Drivers/CMSIS/Include/cmsis_gcc.h **** 
 244:Drivers/CMSIS/Include/cmsis_gcc.h **** 
ARM GAS  C:\Users\cesco\AppData\Local\Temp\ccHBw06Y.s 			page 49


 245:Drivers/CMSIS/Include/cmsis_gcc.h **** /**
 246:Drivers/CMSIS/Include/cmsis_gcc.h ****   \brief   Send Event
 247:Drivers/CMSIS/Include/cmsis_gcc.h ****   \details Send Event is a hint instruction. It causes an event to be signaled to the CPU.
 248:Drivers/CMSIS/Include/cmsis_gcc.h ****  */
 249:Drivers/CMSIS/Include/cmsis_gcc.h **** #define __SEV()                             __ASM volatile ("sev")
 250:Drivers/CMSIS/Include/cmsis_gcc.h **** 
 251:Drivers/CMSIS/Include/cmsis_gcc.h **** 
 252:Drivers/CMSIS/Include/cmsis_gcc.h **** /**
 253:Drivers/CMSIS/Include/cmsis_gcc.h ****   \brief   Instruction Synchronization Barrier
 254:Drivers/CMSIS/Include/cmsis_gcc.h ****   \details Instruction Synchronization Barrier flushes the pipeline in the processor,
 255:Drivers/CMSIS/Include/cmsis_gcc.h ****            so that all instructions following the ISB are fetched from cache or memory,
 256:Drivers/CMSIS/Include/cmsis_gcc.h ****            after the instruction has been completed.
 257:Drivers/CMSIS/Include/cmsis_gcc.h ****  */
 258:Drivers/CMSIS/Include/cmsis_gcc.h **** __STATIC_FORCEINLINE void __ISB(void)
 259:Drivers/CMSIS/Include/cmsis_gcc.h **** {
 260:Drivers/CMSIS/Include/cmsis_gcc.h ****   __ASM volatile ("isb 0xF":::"memory");
 261:Drivers/CMSIS/Include/cmsis_gcc.h **** }
 262:Drivers/CMSIS/Include/cmsis_gcc.h **** 
 263:Drivers/CMSIS/Include/cmsis_gcc.h **** 
 264:Drivers/CMSIS/Include/cmsis_gcc.h **** /**
 265:Drivers/CMSIS/Include/cmsis_gcc.h ****   \brief   Data Synchronization Barrier
 266:Drivers/CMSIS/Include/cmsis_gcc.h ****   \details Acts as a special kind of Data Memory Barrier.
 267:Drivers/CMSIS/Include/cmsis_gcc.h ****            It completes when all explicit memory accesses before this instruction complete.
 268:Drivers/CMSIS/Include/cmsis_gcc.h ****  */
 269:Drivers/CMSIS/Include/cmsis_gcc.h **** __STATIC_FORCEINLINE void __DSB(void)
 270:Drivers/CMSIS/Include/cmsis_gcc.h **** {
 271:Drivers/CMSIS/Include/cmsis_gcc.h ****   __ASM volatile ("dsb 0xF":::"memory");
 272:Drivers/CMSIS/Include/cmsis_gcc.h **** }
 273:Drivers/CMSIS/Include/cmsis_gcc.h **** 
 274:Drivers/CMSIS/Include/cmsis_gcc.h **** 
 275:Drivers/CMSIS/Include/cmsis_gcc.h **** /**
 276:Drivers/CMSIS/Include/cmsis_gcc.h ****   \brief   Data Memory Barrier
 277:Drivers/CMSIS/Include/cmsis_gcc.h ****   \details Ensures the apparent order of the explicit memory operations before
 278:Drivers/CMSIS/Include/cmsis_gcc.h ****            and after the instruction, without ensuring their completion.
 279:Drivers/CMSIS/Include/cmsis_gcc.h ****  */
 280:Drivers/CMSIS/Include/cmsis_gcc.h **** __STATIC_FORCEINLINE void __DMB(void)
 281:Drivers/CMSIS/Include/cmsis_gcc.h **** {
 282:Drivers/CMSIS/Include/cmsis_gcc.h ****   __ASM volatile ("dmb 0xF":::"memory");
 283:Drivers/CMSIS/Include/cmsis_gcc.h **** }
 284:Drivers/CMSIS/Include/cmsis_gcc.h **** 
 285:Drivers/CMSIS/Include/cmsis_gcc.h **** 
 286:Drivers/CMSIS/Include/cmsis_gcc.h **** /**
 287:Drivers/CMSIS/Include/cmsis_gcc.h ****   \brief   Reverse byte order (32 bit)
 288:Drivers/CMSIS/Include/cmsis_gcc.h ****   \details Reverses the byte order in unsigned integer value. For example, 0x12345678 becomes 0x785
 289:Drivers/CMSIS/Include/cmsis_gcc.h ****   \param [in]    value  Value to reverse
 290:Drivers/CMSIS/Include/cmsis_gcc.h ****   \return               Reversed value
 291:Drivers/CMSIS/Include/cmsis_gcc.h ****  */
 292:Drivers/CMSIS/Include/cmsis_gcc.h **** __STATIC_FORCEINLINE uint32_t __REV(uint32_t value)
 293:Drivers/CMSIS/Include/cmsis_gcc.h **** {
 294:Drivers/CMSIS/Include/cmsis_gcc.h **** #if (__GNUC__ > 4) || (__GNUC__ == 4 && __GNUC_MINOR__ >= 5)
 295:Drivers/CMSIS/Include/cmsis_gcc.h ****   return __builtin_bswap32(value);
 296:Drivers/CMSIS/Include/cmsis_gcc.h **** #else
 297:Drivers/CMSIS/Include/cmsis_gcc.h ****   uint32_t result;
 298:Drivers/CMSIS/Include/cmsis_gcc.h **** 
 299:Drivers/CMSIS/Include/cmsis_gcc.h ****   __ASM ("rev %0, %1" : __CMSIS_GCC_OUT_REG (result) : __CMSIS_GCC_USE_REG (value) );
 300:Drivers/CMSIS/Include/cmsis_gcc.h ****   return result;
 301:Drivers/CMSIS/Include/cmsis_gcc.h **** #endif
ARM GAS  C:\Users\cesco\AppData\Local\Temp\ccHBw06Y.s 			page 50


 302:Drivers/CMSIS/Include/cmsis_gcc.h **** }
 303:Drivers/CMSIS/Include/cmsis_gcc.h **** 
 304:Drivers/CMSIS/Include/cmsis_gcc.h **** 
 305:Drivers/CMSIS/Include/cmsis_gcc.h **** /**
 306:Drivers/CMSIS/Include/cmsis_gcc.h ****   \brief   Reverse byte order (16 bit)
 307:Drivers/CMSIS/Include/cmsis_gcc.h ****   \details Reverses the byte order within each halfword of a word. For example, 0x12345678 becomes 
 308:Drivers/CMSIS/Include/cmsis_gcc.h ****   \param [in]    value  Value to reverse
 309:Drivers/CMSIS/Include/cmsis_gcc.h ****   \return               Reversed value
 310:Drivers/CMSIS/Include/cmsis_gcc.h ****  */
 311:Drivers/CMSIS/Include/cmsis_gcc.h **** __STATIC_FORCEINLINE uint32_t __REV16(uint32_t value)
 312:Drivers/CMSIS/Include/cmsis_gcc.h **** {
 313:Drivers/CMSIS/Include/cmsis_gcc.h ****   uint32_t result;
 314:Drivers/CMSIS/Include/cmsis_gcc.h **** 
 315:Drivers/CMSIS/Include/cmsis_gcc.h ****   __ASM ("rev16 %0, %1" : __CMSIS_GCC_OUT_REG (result) : __CMSIS_GCC_USE_REG (value) );
 316:Drivers/CMSIS/Include/cmsis_gcc.h ****   return result;
 317:Drivers/CMSIS/Include/cmsis_gcc.h **** }
 318:Drivers/CMSIS/Include/cmsis_gcc.h **** 
 319:Drivers/CMSIS/Include/cmsis_gcc.h **** 
 320:Drivers/CMSIS/Include/cmsis_gcc.h **** /**
 321:Drivers/CMSIS/Include/cmsis_gcc.h ****   \brief   Reverse byte order (16 bit)
 322:Drivers/CMSIS/Include/cmsis_gcc.h ****   \details Reverses the byte order in a 16-bit value and returns the signed 16-bit result. For exam
 323:Drivers/CMSIS/Include/cmsis_gcc.h ****   \param [in]    value  Value to reverse
 324:Drivers/CMSIS/Include/cmsis_gcc.h ****   \return               Reversed value
 325:Drivers/CMSIS/Include/cmsis_gcc.h ****  */
 326:Drivers/CMSIS/Include/cmsis_gcc.h **** __STATIC_FORCEINLINE int16_t __REVSH(int16_t value)
 327:Drivers/CMSIS/Include/cmsis_gcc.h **** {
 328:Drivers/CMSIS/Include/cmsis_gcc.h **** #if (__GNUC__ > 4) || (__GNUC__ == 4 && __GNUC_MINOR__ >= 8)
 329:Drivers/CMSIS/Include/cmsis_gcc.h ****   return (int16_t)__builtin_bswap16(value);
 330:Drivers/CMSIS/Include/cmsis_gcc.h **** #else
 331:Drivers/CMSIS/Include/cmsis_gcc.h ****   int16_t result;
 332:Drivers/CMSIS/Include/cmsis_gcc.h **** 
 333:Drivers/CMSIS/Include/cmsis_gcc.h ****   __ASM ("revsh %0, %1" : __CMSIS_GCC_OUT_REG (result) : __CMSIS_GCC_USE_REG (value) );
 334:Drivers/CMSIS/Include/cmsis_gcc.h ****   return result;
 335:Drivers/CMSIS/Include/cmsis_gcc.h **** #endif
 336:Drivers/CMSIS/Include/cmsis_gcc.h **** }
 337:Drivers/CMSIS/Include/cmsis_gcc.h **** 
 338:Drivers/CMSIS/Include/cmsis_gcc.h **** 
 339:Drivers/CMSIS/Include/cmsis_gcc.h **** /**
 340:Drivers/CMSIS/Include/cmsis_gcc.h ****   \brief   Rotate Right in unsigned value (32 bit)
 341:Drivers/CMSIS/Include/cmsis_gcc.h ****   \details Rotate Right (immediate) provides the value of the contents of a register rotated by a v
 342:Drivers/CMSIS/Include/cmsis_gcc.h ****   \param [in]    op1  Value to rotate
 343:Drivers/CMSIS/Include/cmsis_gcc.h ****   \param [in]    op2  Number of Bits to rotate
 344:Drivers/CMSIS/Include/cmsis_gcc.h ****   \return               Rotated value
 345:Drivers/CMSIS/Include/cmsis_gcc.h ****  */
 346:Drivers/CMSIS/Include/cmsis_gcc.h **** __STATIC_FORCEINLINE uint32_t __ROR(uint32_t op1, uint32_t op2)
 347:Drivers/CMSIS/Include/cmsis_gcc.h **** {
 348:Drivers/CMSIS/Include/cmsis_gcc.h ****   op2 %= 32U;
 349:Drivers/CMSIS/Include/cmsis_gcc.h ****   if (op2 == 0U)
 350:Drivers/CMSIS/Include/cmsis_gcc.h ****   {
 351:Drivers/CMSIS/Include/cmsis_gcc.h ****     return op1;
 352:Drivers/CMSIS/Include/cmsis_gcc.h ****   }
 353:Drivers/CMSIS/Include/cmsis_gcc.h ****   return (op1 >> op2) | (op1 << (32U - op2));
 354:Drivers/CMSIS/Include/cmsis_gcc.h **** }
 355:Drivers/CMSIS/Include/cmsis_gcc.h **** 
 356:Drivers/CMSIS/Include/cmsis_gcc.h **** 
 357:Drivers/CMSIS/Include/cmsis_gcc.h **** /**
 358:Drivers/CMSIS/Include/cmsis_gcc.h ****   \brief   Breakpoint
ARM GAS  C:\Users\cesco\AppData\Local\Temp\ccHBw06Y.s 			page 51


 359:Drivers/CMSIS/Include/cmsis_gcc.h ****   \details Causes the processor to enter Debug state.
 360:Drivers/CMSIS/Include/cmsis_gcc.h ****            Debug tools can use this to investigate system state when the instruction at a particula
 361:Drivers/CMSIS/Include/cmsis_gcc.h ****   \param [in]    value  is ignored by the processor.
 362:Drivers/CMSIS/Include/cmsis_gcc.h ****                  If required, a debugger can use it to store additional information about the break
 363:Drivers/CMSIS/Include/cmsis_gcc.h ****  */
 364:Drivers/CMSIS/Include/cmsis_gcc.h **** #define __BKPT(value)                       __ASM volatile ("bkpt "#value)
 365:Drivers/CMSIS/Include/cmsis_gcc.h **** 
 366:Drivers/CMSIS/Include/cmsis_gcc.h **** 
 367:Drivers/CMSIS/Include/cmsis_gcc.h **** /**
 368:Drivers/CMSIS/Include/cmsis_gcc.h ****   \brief   Reverse bit order of value
 369:Drivers/CMSIS/Include/cmsis_gcc.h ****   \details Reverses the bit order of the given value.
 370:Drivers/CMSIS/Include/cmsis_gcc.h ****   \param [in]    value  Value to reverse
 371:Drivers/CMSIS/Include/cmsis_gcc.h ****   \return               Reversed value
 372:Drivers/CMSIS/Include/cmsis_gcc.h ****  */
 373:Drivers/CMSIS/Include/cmsis_gcc.h **** __STATIC_FORCEINLINE uint32_t __RBIT(uint32_t value)
 374:Drivers/CMSIS/Include/cmsis_gcc.h **** {
 375:Drivers/CMSIS/Include/cmsis_gcc.h ****   uint32_t result;
 376:Drivers/CMSIS/Include/cmsis_gcc.h **** 
 377:Drivers/CMSIS/Include/cmsis_gcc.h **** #if ((defined (__ARM_ARCH_7M__      ) && (__ARM_ARCH_7M__      == 1)) || \
 378:Drivers/CMSIS/Include/cmsis_gcc.h ****      (defined (__ARM_ARCH_7EM__     ) && (__ARM_ARCH_7EM__     == 1)) || \
 379:Drivers/CMSIS/Include/cmsis_gcc.h ****      (defined (__ARM_ARCH_8M_MAIN__ ) && (__ARM_ARCH_8M_MAIN__ == 1))    )
 380:Drivers/CMSIS/Include/cmsis_gcc.h ****    __ASM ("rbit %0, %1" : "=r" (result) : "r" (value) );
 381:Drivers/CMSIS/Include/cmsis_gcc.h **** #else
 382:Drivers/CMSIS/Include/cmsis_gcc.h ****   uint32_t s = (4U /*sizeof(v)*/ * 8U) - 1U; /* extra shift needed at end */
 383:Drivers/CMSIS/Include/cmsis_gcc.h **** 
 384:Drivers/CMSIS/Include/cmsis_gcc.h ****   result = value;                      /* r will be reversed bits of v; first get LSB of v */
 385:Drivers/CMSIS/Include/cmsis_gcc.h ****   for (value >>= 1U; value != 0U; value >>= 1U)
 386:Drivers/CMSIS/Include/cmsis_gcc.h ****   {
 387:Drivers/CMSIS/Include/cmsis_gcc.h ****     result <<= 1U;
 388:Drivers/CMSIS/Include/cmsis_gcc.h ****     result |= value & 1U;
 389:Drivers/CMSIS/Include/cmsis_gcc.h ****     s--;
 390:Drivers/CMSIS/Include/cmsis_gcc.h ****   }
 391:Drivers/CMSIS/Include/cmsis_gcc.h ****   result <<= s;                        /* shift when v's highest bits are zero */
 392:Drivers/CMSIS/Include/cmsis_gcc.h **** #endif
 393:Drivers/CMSIS/Include/cmsis_gcc.h ****   return result;
 394:Drivers/CMSIS/Include/cmsis_gcc.h **** }
 395:Drivers/CMSIS/Include/cmsis_gcc.h **** 
 396:Drivers/CMSIS/Include/cmsis_gcc.h **** 
 397:Drivers/CMSIS/Include/cmsis_gcc.h **** /**
 398:Drivers/CMSIS/Include/cmsis_gcc.h ****   \brief   Count leading zeros
 399:Drivers/CMSIS/Include/cmsis_gcc.h ****   \details Counts the number of leading zeros of a data value.
 400:Drivers/CMSIS/Include/cmsis_gcc.h ****   \param [in]  value  Value to count the leading zeros
 401:Drivers/CMSIS/Include/cmsis_gcc.h ****   \return             number of leading zeros in value
 402:Drivers/CMSIS/Include/cmsis_gcc.h ****  */
 403:Drivers/CMSIS/Include/cmsis_gcc.h **** __STATIC_FORCEINLINE uint8_t __CLZ(uint32_t value)
 404:Drivers/CMSIS/Include/cmsis_gcc.h **** {
 405:Drivers/CMSIS/Include/cmsis_gcc.h ****   /* Even though __builtin_clz produces a CLZ instruction on ARM, formally
 406:Drivers/CMSIS/Include/cmsis_gcc.h ****      __builtin_clz(0) is undefined behaviour, so handle this case specially.
 407:Drivers/CMSIS/Include/cmsis_gcc.h ****      This guarantees ARM-compatible results if happening to compile on a non-ARM
 408:Drivers/CMSIS/Include/cmsis_gcc.h ****      target, and ensures the compiler doesn't decide to activate any
 409:Drivers/CMSIS/Include/cmsis_gcc.h ****      optimisations using the logic "value was passed to __builtin_clz, so it
 410:Drivers/CMSIS/Include/cmsis_gcc.h ****      is non-zero".
 411:Drivers/CMSIS/Include/cmsis_gcc.h ****      ARM GCC 7.3 and possibly earlier will optimise this test away, leaving a
 412:Drivers/CMSIS/Include/cmsis_gcc.h ****      single CLZ instruction.
 413:Drivers/CMSIS/Include/cmsis_gcc.h ****    */
 414:Drivers/CMSIS/Include/cmsis_gcc.h ****   if (value == 0U)
 415:Drivers/CMSIS/Include/cmsis_gcc.h ****   {
ARM GAS  C:\Users\cesco\AppData\Local\Temp\ccHBw06Y.s 			page 52


 416:Drivers/CMSIS/Include/cmsis_gcc.h ****     return 32U;
 417:Drivers/CMSIS/Include/cmsis_gcc.h ****   }
 418:Drivers/CMSIS/Include/cmsis_gcc.h ****   return __builtin_clz(value);
 419:Drivers/CMSIS/Include/cmsis_gcc.h **** }
 420:Drivers/CMSIS/Include/cmsis_gcc.h **** 
 421:Drivers/CMSIS/Include/cmsis_gcc.h **** 
 422:Drivers/CMSIS/Include/cmsis_gcc.h **** #if ((defined (__ARM_ARCH_7M__      ) && (__ARM_ARCH_7M__      == 1)) || \
 423:Drivers/CMSIS/Include/cmsis_gcc.h ****      (defined (__ARM_ARCH_7EM__     ) && (__ARM_ARCH_7EM__     == 1)) || \
 424:Drivers/CMSIS/Include/cmsis_gcc.h ****      (defined (__ARM_ARCH_8M_MAIN__ ) && (__ARM_ARCH_8M_MAIN__ == 1)) || \
 425:Drivers/CMSIS/Include/cmsis_gcc.h ****      (defined (__ARM_ARCH_8M_BASE__ ) && (__ARM_ARCH_8M_BASE__ == 1))    )
 426:Drivers/CMSIS/Include/cmsis_gcc.h **** /**
 427:Drivers/CMSIS/Include/cmsis_gcc.h ****   \brief   LDR Exclusive (8 bit)
 428:Drivers/CMSIS/Include/cmsis_gcc.h ****   \details Executes a exclusive LDR instruction for 8 bit value.
 429:Drivers/CMSIS/Include/cmsis_gcc.h ****   \param [in]    ptr  Pointer to data
 430:Drivers/CMSIS/Include/cmsis_gcc.h ****   \return             value of type uint8_t at (*ptr)
 431:Drivers/CMSIS/Include/cmsis_gcc.h ****  */
 432:Drivers/CMSIS/Include/cmsis_gcc.h **** __STATIC_FORCEINLINE uint8_t __LDREXB(volatile uint8_t *addr)
 433:Drivers/CMSIS/Include/cmsis_gcc.h **** {
 434:Drivers/CMSIS/Include/cmsis_gcc.h ****     uint32_t result;
 435:Drivers/CMSIS/Include/cmsis_gcc.h **** 
 436:Drivers/CMSIS/Include/cmsis_gcc.h **** #if (__GNUC__ > 4) || (__GNUC__ == 4 && __GNUC_MINOR__ >= 8)
 437:Drivers/CMSIS/Include/cmsis_gcc.h ****    __ASM volatile ("ldrexb %0, %1" : "=r" (result) : "Q" (*addr) );
 438:Drivers/CMSIS/Include/cmsis_gcc.h **** #else
 439:Drivers/CMSIS/Include/cmsis_gcc.h ****     /* Prior to GCC 4.8, "Q" will be expanded to [rx, #0] which is not
 440:Drivers/CMSIS/Include/cmsis_gcc.h ****        accepted by assembler. So has to use following less efficient pattern.
 441:Drivers/CMSIS/Include/cmsis_gcc.h ****     */
 442:Drivers/CMSIS/Include/cmsis_gcc.h ****    __ASM volatile ("ldrexb %0, [%1]" : "=r" (result) : "r" (addr) : "memory" );
 443:Drivers/CMSIS/Include/cmsis_gcc.h **** #endif
 444:Drivers/CMSIS/Include/cmsis_gcc.h ****    return ((uint8_t) result);    /* Add explicit type cast here */
 445:Drivers/CMSIS/Include/cmsis_gcc.h **** }
 446:Drivers/CMSIS/Include/cmsis_gcc.h **** 
 447:Drivers/CMSIS/Include/cmsis_gcc.h **** 
 448:Drivers/CMSIS/Include/cmsis_gcc.h **** /**
 449:Drivers/CMSIS/Include/cmsis_gcc.h ****   \brief   LDR Exclusive (16 bit)
 450:Drivers/CMSIS/Include/cmsis_gcc.h ****   \details Executes a exclusive LDR instruction for 16 bit values.
 451:Drivers/CMSIS/Include/cmsis_gcc.h ****   \param [in]    ptr  Pointer to data
 452:Drivers/CMSIS/Include/cmsis_gcc.h ****   \return        value of type uint16_t at (*ptr)
 453:Drivers/CMSIS/Include/cmsis_gcc.h ****  */
 454:Drivers/CMSIS/Include/cmsis_gcc.h **** __STATIC_FORCEINLINE uint16_t __LDREXH(volatile uint16_t *addr)
 455:Drivers/CMSIS/Include/cmsis_gcc.h **** {
 456:Drivers/CMSIS/Include/cmsis_gcc.h ****     uint32_t result;
 457:Drivers/CMSIS/Include/cmsis_gcc.h **** 
 458:Drivers/CMSIS/Include/cmsis_gcc.h **** #if (__GNUC__ > 4) || (__GNUC__ == 4 && __GNUC_MINOR__ >= 8)
 459:Drivers/CMSIS/Include/cmsis_gcc.h ****    __ASM volatile ("ldrexh %0, %1" : "=r" (result) : "Q" (*addr) );
 460:Drivers/CMSIS/Include/cmsis_gcc.h **** #else
 461:Drivers/CMSIS/Include/cmsis_gcc.h ****     /* Prior to GCC 4.8, "Q" will be expanded to [rx, #0] which is not
 462:Drivers/CMSIS/Include/cmsis_gcc.h ****        accepted by assembler. So has to use following less efficient pattern.
 463:Drivers/CMSIS/Include/cmsis_gcc.h ****     */
 464:Drivers/CMSIS/Include/cmsis_gcc.h ****    __ASM volatile ("ldrexh %0, [%1]" : "=r" (result) : "r" (addr) : "memory" );
 465:Drivers/CMSIS/Include/cmsis_gcc.h **** #endif
 466:Drivers/CMSIS/Include/cmsis_gcc.h ****    return ((uint16_t) result);    /* Add explicit type cast here */
 467:Drivers/CMSIS/Include/cmsis_gcc.h **** }
 468:Drivers/CMSIS/Include/cmsis_gcc.h **** 
 469:Drivers/CMSIS/Include/cmsis_gcc.h **** 
 470:Drivers/CMSIS/Include/cmsis_gcc.h **** /**
 471:Drivers/CMSIS/Include/cmsis_gcc.h ****   \brief   LDR Exclusive (32 bit)
 472:Drivers/CMSIS/Include/cmsis_gcc.h ****   \details Executes a exclusive LDR instruction for 32 bit values.
ARM GAS  C:\Users\cesco\AppData\Local\Temp\ccHBw06Y.s 			page 53


 473:Drivers/CMSIS/Include/cmsis_gcc.h ****   \param [in]    ptr  Pointer to data
 474:Drivers/CMSIS/Include/cmsis_gcc.h ****   \return        value of type uint32_t at (*ptr)
 475:Drivers/CMSIS/Include/cmsis_gcc.h ****  */
 476:Drivers/CMSIS/Include/cmsis_gcc.h **** __STATIC_FORCEINLINE uint32_t __LDREXW(volatile uint32_t *addr)
 477:Drivers/CMSIS/Include/cmsis_gcc.h **** {
 478:Drivers/CMSIS/Include/cmsis_gcc.h ****     uint32_t result;
 479:Drivers/CMSIS/Include/cmsis_gcc.h **** 
 480:Drivers/CMSIS/Include/cmsis_gcc.h ****    __ASM volatile ("ldrex %0, %1" : "=r" (result) : "Q" (*addr) );
 481:Drivers/CMSIS/Include/cmsis_gcc.h ****    return(result);
 482:Drivers/CMSIS/Include/cmsis_gcc.h **** }
 483:Drivers/CMSIS/Include/cmsis_gcc.h **** 
 484:Drivers/CMSIS/Include/cmsis_gcc.h **** 
 485:Drivers/CMSIS/Include/cmsis_gcc.h **** /**
 486:Drivers/CMSIS/Include/cmsis_gcc.h ****   \brief   STR Exclusive (8 bit)
 487:Drivers/CMSIS/Include/cmsis_gcc.h ****   \details Executes a exclusive STR instruction for 8 bit values.
 488:Drivers/CMSIS/Include/cmsis_gcc.h ****   \param [in]  value  Value to store
 489:Drivers/CMSIS/Include/cmsis_gcc.h ****   \param [in]    ptr  Pointer to location
 490:Drivers/CMSIS/Include/cmsis_gcc.h ****   \return          0  Function succeeded
 491:Drivers/CMSIS/Include/cmsis_gcc.h ****   \return          1  Function failed
 492:Drivers/CMSIS/Include/cmsis_gcc.h ****  */
 493:Drivers/CMSIS/Include/cmsis_gcc.h **** __STATIC_FORCEINLINE uint32_t __STREXB(uint8_t value, volatile uint8_t *addr)
 494:Drivers/CMSIS/Include/cmsis_gcc.h **** {
 495:Drivers/CMSIS/Include/cmsis_gcc.h ****    uint32_t result;
 496:Drivers/CMSIS/Include/cmsis_gcc.h **** 
 497:Drivers/CMSIS/Include/cmsis_gcc.h ****    __ASM volatile ("strexb %0, %2, %1" : "=&r" (result), "=Q" (*addr) : "r" ((uint32_t)value) );
 498:Drivers/CMSIS/Include/cmsis_gcc.h ****    return(result);
 499:Drivers/CMSIS/Include/cmsis_gcc.h **** }
 500:Drivers/CMSIS/Include/cmsis_gcc.h **** 
 501:Drivers/CMSIS/Include/cmsis_gcc.h **** 
 502:Drivers/CMSIS/Include/cmsis_gcc.h **** /**
 503:Drivers/CMSIS/Include/cmsis_gcc.h ****   \brief   STR Exclusive (16 bit)
 504:Drivers/CMSIS/Include/cmsis_gcc.h ****   \details Executes a exclusive STR instruction for 16 bit values.
 505:Drivers/CMSIS/Include/cmsis_gcc.h ****   \param [in]  value  Value to store
 506:Drivers/CMSIS/Include/cmsis_gcc.h ****   \param [in]    ptr  Pointer to location
 507:Drivers/CMSIS/Include/cmsis_gcc.h ****   \return          0  Function succeeded
 508:Drivers/CMSIS/Include/cmsis_gcc.h ****   \return          1  Function failed
 509:Drivers/CMSIS/Include/cmsis_gcc.h ****  */
 510:Drivers/CMSIS/Include/cmsis_gcc.h **** __STATIC_FORCEINLINE uint32_t __STREXH(uint16_t value, volatile uint16_t *addr)
 511:Drivers/CMSIS/Include/cmsis_gcc.h **** {
 512:Drivers/CMSIS/Include/cmsis_gcc.h ****    uint32_t result;
 513:Drivers/CMSIS/Include/cmsis_gcc.h **** 
 514:Drivers/CMSIS/Include/cmsis_gcc.h ****    __ASM volatile ("strexh %0, %2, %1" : "=&r" (result), "=Q" (*addr) : "r" ((uint32_t)value) );
 515:Drivers/CMSIS/Include/cmsis_gcc.h ****    return(result);
 516:Drivers/CMSIS/Include/cmsis_gcc.h **** }
 517:Drivers/CMSIS/Include/cmsis_gcc.h **** 
 518:Drivers/CMSIS/Include/cmsis_gcc.h **** 
 519:Drivers/CMSIS/Include/cmsis_gcc.h **** /**
 520:Drivers/CMSIS/Include/cmsis_gcc.h ****   \brief   STR Exclusive (32 bit)
 521:Drivers/CMSIS/Include/cmsis_gcc.h ****   \details Executes a exclusive STR instruction for 32 bit values.
 522:Drivers/CMSIS/Include/cmsis_gcc.h ****   \param [in]  value  Value to store
 523:Drivers/CMSIS/Include/cmsis_gcc.h ****   \param [in]    ptr  Pointer to location
 524:Drivers/CMSIS/Include/cmsis_gcc.h ****   \return          0  Function succeeded
 525:Drivers/CMSIS/Include/cmsis_gcc.h ****   \return          1  Function failed
 526:Drivers/CMSIS/Include/cmsis_gcc.h ****  */
 527:Drivers/CMSIS/Include/cmsis_gcc.h **** __STATIC_FORCEINLINE uint32_t __STREXW(uint32_t value, volatile uint32_t *addr)
 528:Drivers/CMSIS/Include/cmsis_gcc.h **** {
 529:Drivers/CMSIS/Include/cmsis_gcc.h ****    uint32_t result;
ARM GAS  C:\Users\cesco\AppData\Local\Temp\ccHBw06Y.s 			page 54


 530:Drivers/CMSIS/Include/cmsis_gcc.h **** 
 531:Drivers/CMSIS/Include/cmsis_gcc.h ****    __ASM volatile ("strex %0, %2, %1" : "=&r" (result), "=Q" (*addr) : "r" (value) );
 532:Drivers/CMSIS/Include/cmsis_gcc.h ****    return(result);
 533:Drivers/CMSIS/Include/cmsis_gcc.h **** }
 534:Drivers/CMSIS/Include/cmsis_gcc.h **** 
 535:Drivers/CMSIS/Include/cmsis_gcc.h **** 
 536:Drivers/CMSIS/Include/cmsis_gcc.h **** /**
 537:Drivers/CMSIS/Include/cmsis_gcc.h ****   \brief   Remove the exclusive lock
 538:Drivers/CMSIS/Include/cmsis_gcc.h ****   \details Removes the exclusive lock which is created by LDREX.
 539:Drivers/CMSIS/Include/cmsis_gcc.h ****  */
 540:Drivers/CMSIS/Include/cmsis_gcc.h **** __STATIC_FORCEINLINE void __CLREX(void)
 541:Drivers/CMSIS/Include/cmsis_gcc.h **** {
 542:Drivers/CMSIS/Include/cmsis_gcc.h ****   __ASM volatile ("clrex" ::: "memory");
 543:Drivers/CMSIS/Include/cmsis_gcc.h **** }
 544:Drivers/CMSIS/Include/cmsis_gcc.h **** 
 545:Drivers/CMSIS/Include/cmsis_gcc.h **** #endif /* ((defined (__ARM_ARCH_7M__      ) && (__ARM_ARCH_7M__      == 1)) || \
 546:Drivers/CMSIS/Include/cmsis_gcc.h ****            (defined (__ARM_ARCH_7EM__     ) && (__ARM_ARCH_7EM__     == 1)) || \
 547:Drivers/CMSIS/Include/cmsis_gcc.h ****            (defined (__ARM_ARCH_8M_MAIN__ ) && (__ARM_ARCH_8M_MAIN__ == 1)) || \
 548:Drivers/CMSIS/Include/cmsis_gcc.h ****            (defined (__ARM_ARCH_8M_BASE__ ) && (__ARM_ARCH_8M_BASE__ == 1))    ) */
 549:Drivers/CMSIS/Include/cmsis_gcc.h **** 
 550:Drivers/CMSIS/Include/cmsis_gcc.h **** 
 551:Drivers/CMSIS/Include/cmsis_gcc.h **** #if ((defined (__ARM_ARCH_7M__      ) && (__ARM_ARCH_7M__      == 1)) || \
 552:Drivers/CMSIS/Include/cmsis_gcc.h ****      (defined (__ARM_ARCH_7EM__     ) && (__ARM_ARCH_7EM__     == 1)) || \
 553:Drivers/CMSIS/Include/cmsis_gcc.h ****      (defined (__ARM_ARCH_8M_MAIN__ ) && (__ARM_ARCH_8M_MAIN__ == 1))    )
 554:Drivers/CMSIS/Include/cmsis_gcc.h **** /**
 555:Drivers/CMSIS/Include/cmsis_gcc.h ****   \brief   Signed Saturate
 556:Drivers/CMSIS/Include/cmsis_gcc.h ****   \details Saturates a signed value.
 557:Drivers/CMSIS/Include/cmsis_gcc.h ****   \param [in]  ARG1  Value to be saturated
 558:Drivers/CMSIS/Include/cmsis_gcc.h ****   \param [in]  ARG2  Bit position to saturate to (1..32)
 559:Drivers/CMSIS/Include/cmsis_gcc.h ****   \return             Saturated value
 560:Drivers/CMSIS/Include/cmsis_gcc.h ****  */
 561:Drivers/CMSIS/Include/cmsis_gcc.h **** #define __SSAT(ARG1, ARG2) \
 562:Drivers/CMSIS/Include/cmsis_gcc.h **** __extension__ \
 563:Drivers/CMSIS/Include/cmsis_gcc.h **** ({                          \
 564:Drivers/CMSIS/Include/cmsis_gcc.h ****   int32_t __RES, __ARG1 = (ARG1); \
 565:Drivers/CMSIS/Include/cmsis_gcc.h ****   __ASM volatile ("ssat %0, %1, %2" : "=r" (__RES) :  "I" (ARG2), "r" (__ARG1) : "cc" ); \
 566:Drivers/CMSIS/Include/cmsis_gcc.h ****   __RES; \
 567:Drivers/CMSIS/Include/cmsis_gcc.h ****  })
 568:Drivers/CMSIS/Include/cmsis_gcc.h **** 
 569:Drivers/CMSIS/Include/cmsis_gcc.h **** 
 570:Drivers/CMSIS/Include/cmsis_gcc.h **** /**
 571:Drivers/CMSIS/Include/cmsis_gcc.h ****   \brief   Unsigned Saturate
 572:Drivers/CMSIS/Include/cmsis_gcc.h ****   \details Saturates an unsigned value.
 573:Drivers/CMSIS/Include/cmsis_gcc.h ****   \param [in]  ARG1  Value to be saturated
 574:Drivers/CMSIS/Include/cmsis_gcc.h ****   \param [in]  ARG2  Bit position to saturate to (0..31)
 575:Drivers/CMSIS/Include/cmsis_gcc.h ****   \return             Saturated value
 576:Drivers/CMSIS/Include/cmsis_gcc.h ****  */
 577:Drivers/CMSIS/Include/cmsis_gcc.h **** #define __USAT(ARG1, ARG2) \
 578:Drivers/CMSIS/Include/cmsis_gcc.h **** __extension__ \
 579:Drivers/CMSIS/Include/cmsis_gcc.h **** ({                          \
 580:Drivers/CMSIS/Include/cmsis_gcc.h ****   uint32_t __RES, __ARG1 = (ARG1); \
 581:Drivers/CMSIS/Include/cmsis_gcc.h ****   __ASM volatile ("usat %0, %1, %2" : "=r" (__RES) :  "I" (ARG2), "r" (__ARG1) : "cc" ); \
 582:Drivers/CMSIS/Include/cmsis_gcc.h ****   __RES; \
 583:Drivers/CMSIS/Include/cmsis_gcc.h ****  })
 584:Drivers/CMSIS/Include/cmsis_gcc.h **** 
 585:Drivers/CMSIS/Include/cmsis_gcc.h **** 
 586:Drivers/CMSIS/Include/cmsis_gcc.h **** /**
ARM GAS  C:\Users\cesco\AppData\Local\Temp\ccHBw06Y.s 			page 55


 587:Drivers/CMSIS/Include/cmsis_gcc.h ****   \brief   Rotate Right with Extend (32 bit)
 588:Drivers/CMSIS/Include/cmsis_gcc.h ****   \details Moves each bit of a bitstring right by one bit.
 589:Drivers/CMSIS/Include/cmsis_gcc.h ****            The carry input is shifted in at the left end of the bitstring.
 590:Drivers/CMSIS/Include/cmsis_gcc.h ****   \param [in]    value  Value to rotate
 591:Drivers/CMSIS/Include/cmsis_gcc.h ****   \return               Rotated value
 592:Drivers/CMSIS/Include/cmsis_gcc.h ****  */
 593:Drivers/CMSIS/Include/cmsis_gcc.h **** __STATIC_FORCEINLINE uint32_t __RRX(uint32_t value)
 594:Drivers/CMSIS/Include/cmsis_gcc.h **** {
 595:Drivers/CMSIS/Include/cmsis_gcc.h ****   uint32_t result;
 596:Drivers/CMSIS/Include/cmsis_gcc.h **** 
 597:Drivers/CMSIS/Include/cmsis_gcc.h ****   __ASM volatile ("rrx %0, %1" : __CMSIS_GCC_OUT_REG (result) : __CMSIS_GCC_USE_REG (value) );
 598:Drivers/CMSIS/Include/cmsis_gcc.h ****   return(result);
 599:Drivers/CMSIS/Include/cmsis_gcc.h **** }
 600:Drivers/CMSIS/Include/cmsis_gcc.h **** 
 601:Drivers/CMSIS/Include/cmsis_gcc.h **** 
 602:Drivers/CMSIS/Include/cmsis_gcc.h **** /**
 603:Drivers/CMSIS/Include/cmsis_gcc.h ****   \brief   LDRT Unprivileged (8 bit)
 604:Drivers/CMSIS/Include/cmsis_gcc.h ****   \details Executes a Unprivileged LDRT instruction for 8 bit value.
 605:Drivers/CMSIS/Include/cmsis_gcc.h ****   \param [in]    ptr  Pointer to data
 606:Drivers/CMSIS/Include/cmsis_gcc.h ****   \return             value of type uint8_t at (*ptr)
 607:Drivers/CMSIS/Include/cmsis_gcc.h ****  */
 608:Drivers/CMSIS/Include/cmsis_gcc.h **** __STATIC_FORCEINLINE uint8_t __LDRBT(volatile uint8_t *ptr)
 609:Drivers/CMSIS/Include/cmsis_gcc.h **** {
 610:Drivers/CMSIS/Include/cmsis_gcc.h ****     uint32_t result;
 611:Drivers/CMSIS/Include/cmsis_gcc.h **** 
 612:Drivers/CMSIS/Include/cmsis_gcc.h **** #if (__GNUC__ > 4) || (__GNUC__ == 4 && __GNUC_MINOR__ >= 8)
 613:Drivers/CMSIS/Include/cmsis_gcc.h ****    __ASM volatile ("ldrbt %0, %1" : "=r" (result) : "Q" (*ptr) );
 614:Drivers/CMSIS/Include/cmsis_gcc.h **** #else
 615:Drivers/CMSIS/Include/cmsis_gcc.h ****     /* Prior to GCC 4.8, "Q" will be expanded to [rx, #0] which is not
 616:Drivers/CMSIS/Include/cmsis_gcc.h ****        accepted by assembler. So has to use following less efficient pattern.
 617:Drivers/CMSIS/Include/cmsis_gcc.h ****     */
 618:Drivers/CMSIS/Include/cmsis_gcc.h ****    __ASM volatile ("ldrbt %0, [%1]" : "=r" (result) : "r" (ptr) : "memory" );
 619:Drivers/CMSIS/Include/cmsis_gcc.h **** #endif
 620:Drivers/CMSIS/Include/cmsis_gcc.h ****    return ((uint8_t) result);    /* Add explicit type cast here */
 621:Drivers/CMSIS/Include/cmsis_gcc.h **** }
 622:Drivers/CMSIS/Include/cmsis_gcc.h **** 
 623:Drivers/CMSIS/Include/cmsis_gcc.h **** 
 624:Drivers/CMSIS/Include/cmsis_gcc.h **** /**
 625:Drivers/CMSIS/Include/cmsis_gcc.h ****   \brief   LDRT Unprivileged (16 bit)
 626:Drivers/CMSIS/Include/cmsis_gcc.h ****   \details Executes a Unprivileged LDRT instruction for 16 bit values.
 627:Drivers/CMSIS/Include/cmsis_gcc.h ****   \param [in]    ptr  Pointer to data
 628:Drivers/CMSIS/Include/cmsis_gcc.h ****   \return        value of type uint16_t at (*ptr)
 629:Drivers/CMSIS/Include/cmsis_gcc.h ****  */
 630:Drivers/CMSIS/Include/cmsis_gcc.h **** __STATIC_FORCEINLINE uint16_t __LDRHT(volatile uint16_t *ptr)
 631:Drivers/CMSIS/Include/cmsis_gcc.h **** {
 632:Drivers/CMSIS/Include/cmsis_gcc.h ****     uint32_t result;
 633:Drivers/CMSIS/Include/cmsis_gcc.h **** 
 634:Drivers/CMSIS/Include/cmsis_gcc.h **** #if (__GNUC__ > 4) || (__GNUC__ == 4 && __GNUC_MINOR__ >= 8)
 635:Drivers/CMSIS/Include/cmsis_gcc.h ****    __ASM volatile ("ldrht %0, %1" : "=r" (result) : "Q" (*ptr) );
 636:Drivers/CMSIS/Include/cmsis_gcc.h **** #else
 637:Drivers/CMSIS/Include/cmsis_gcc.h ****     /* Prior to GCC 4.8, "Q" will be expanded to [rx, #0] which is not
 638:Drivers/CMSIS/Include/cmsis_gcc.h ****        accepted by assembler. So has to use following less efficient pattern.
 639:Drivers/CMSIS/Include/cmsis_gcc.h ****     */
 640:Drivers/CMSIS/Include/cmsis_gcc.h ****    __ASM volatile ("ldrht %0, [%1]" : "=r" (result) : "r" (ptr) : "memory" );
 641:Drivers/CMSIS/Include/cmsis_gcc.h **** #endif
 642:Drivers/CMSIS/Include/cmsis_gcc.h ****    return ((uint16_t) result);    /* Add explicit type cast here */
 643:Drivers/CMSIS/Include/cmsis_gcc.h **** }
ARM GAS  C:\Users\cesco\AppData\Local\Temp\ccHBw06Y.s 			page 56


 644:Drivers/CMSIS/Include/cmsis_gcc.h **** 
 645:Drivers/CMSIS/Include/cmsis_gcc.h **** 
 646:Drivers/CMSIS/Include/cmsis_gcc.h **** /**
 647:Drivers/CMSIS/Include/cmsis_gcc.h ****   \brief   LDRT Unprivileged (32 bit)
 648:Drivers/CMSIS/Include/cmsis_gcc.h ****   \details Executes a Unprivileged LDRT instruction for 32 bit values.
 649:Drivers/CMSIS/Include/cmsis_gcc.h ****   \param [in]    ptr  Pointer to data
 650:Drivers/CMSIS/Include/cmsis_gcc.h ****   \return        value of type uint32_t at (*ptr)
 651:Drivers/CMSIS/Include/cmsis_gcc.h ****  */
 652:Drivers/CMSIS/Include/cmsis_gcc.h **** __STATIC_FORCEINLINE uint32_t __LDRT(volatile uint32_t *ptr)
 653:Drivers/CMSIS/Include/cmsis_gcc.h **** {
 654:Drivers/CMSIS/Include/cmsis_gcc.h ****     uint32_t result;
 655:Drivers/CMSIS/Include/cmsis_gcc.h **** 
 656:Drivers/CMSIS/Include/cmsis_gcc.h ****    __ASM volatile ("ldrt %0, %1" : "=r" (result) : "Q" (*ptr) );
 657:Drivers/CMSIS/Include/cmsis_gcc.h ****    return(result);
 658:Drivers/CMSIS/Include/cmsis_gcc.h **** }
 659:Drivers/CMSIS/Include/cmsis_gcc.h **** 
 660:Drivers/CMSIS/Include/cmsis_gcc.h **** 
 661:Drivers/CMSIS/Include/cmsis_gcc.h **** /**
 662:Drivers/CMSIS/Include/cmsis_gcc.h ****   \brief   STRT Unprivileged (8 bit)
 663:Drivers/CMSIS/Include/cmsis_gcc.h ****   \details Executes a Unprivileged STRT instruction for 8 bit values.
 664:Drivers/CMSIS/Include/cmsis_gcc.h ****   \param [in]  value  Value to store
 665:Drivers/CMSIS/Include/cmsis_gcc.h ****   \param [in]    ptr  Pointer to location
 666:Drivers/CMSIS/Include/cmsis_gcc.h ****  */
 667:Drivers/CMSIS/Include/cmsis_gcc.h **** __STATIC_FORCEINLINE void __STRBT(uint8_t value, volatile uint8_t *ptr)
 668:Drivers/CMSIS/Include/cmsis_gcc.h **** {
 669:Drivers/CMSIS/Include/cmsis_gcc.h ****    __ASM volatile ("strbt %1, %0" : "=Q" (*ptr) : "r" ((uint32_t)value) );
 670:Drivers/CMSIS/Include/cmsis_gcc.h **** }
 671:Drivers/CMSIS/Include/cmsis_gcc.h **** 
 672:Drivers/CMSIS/Include/cmsis_gcc.h **** 
 673:Drivers/CMSIS/Include/cmsis_gcc.h **** /**
 674:Drivers/CMSIS/Include/cmsis_gcc.h ****   \brief   STRT Unprivileged (16 bit)
 675:Drivers/CMSIS/Include/cmsis_gcc.h ****   \details Executes a Unprivileged STRT instruction for 16 bit values.
 676:Drivers/CMSIS/Include/cmsis_gcc.h ****   \param [in]  value  Value to store
 677:Drivers/CMSIS/Include/cmsis_gcc.h ****   \param [in]    ptr  Pointer to location
 678:Drivers/CMSIS/Include/cmsis_gcc.h ****  */
 679:Drivers/CMSIS/Include/cmsis_gcc.h **** __STATIC_FORCEINLINE void __STRHT(uint16_t value, volatile uint16_t *ptr)
 680:Drivers/CMSIS/Include/cmsis_gcc.h **** {
 681:Drivers/CMSIS/Include/cmsis_gcc.h ****    __ASM volatile ("strht %1, %0" : "=Q" (*ptr) : "r" ((uint32_t)value) );
 682:Drivers/CMSIS/Include/cmsis_gcc.h **** }
 683:Drivers/CMSIS/Include/cmsis_gcc.h **** 
 684:Drivers/CMSIS/Include/cmsis_gcc.h **** 
 685:Drivers/CMSIS/Include/cmsis_gcc.h **** /**
 686:Drivers/CMSIS/Include/cmsis_gcc.h ****   \brief   STRT Unprivileged (32 bit)
 687:Drivers/CMSIS/Include/cmsis_gcc.h ****   \details Executes a Unprivileged STRT instruction for 32 bit values.
 688:Drivers/CMSIS/Include/cmsis_gcc.h ****   \param [in]  value  Value to store
 689:Drivers/CMSIS/Include/cmsis_gcc.h ****   \param [in]    ptr  Pointer to location
 690:Drivers/CMSIS/Include/cmsis_gcc.h ****  */
 691:Drivers/CMSIS/Include/cmsis_gcc.h **** __STATIC_FORCEINLINE void __STRT(uint32_t value, volatile uint32_t *ptr)
 692:Drivers/CMSIS/Include/cmsis_gcc.h **** {
 693:Drivers/CMSIS/Include/cmsis_gcc.h ****    __ASM volatile ("strt %1, %0" : "=Q" (*ptr) : "r" (value) );
 694:Drivers/CMSIS/Include/cmsis_gcc.h **** }
 695:Drivers/CMSIS/Include/cmsis_gcc.h **** 
 696:Drivers/CMSIS/Include/cmsis_gcc.h **** #else  /* ((defined (__ARM_ARCH_7M__      ) && (__ARM_ARCH_7M__      == 1)) || \
 697:Drivers/CMSIS/Include/cmsis_gcc.h ****            (defined (__ARM_ARCH_7EM__     ) && (__ARM_ARCH_7EM__     == 1)) || \
 698:Drivers/CMSIS/Include/cmsis_gcc.h ****            (defined (__ARM_ARCH_8M_MAIN__ ) && (__ARM_ARCH_8M_MAIN__ == 1))    ) */
 699:Drivers/CMSIS/Include/cmsis_gcc.h **** 
 700:Drivers/CMSIS/Include/cmsis_gcc.h **** /**
ARM GAS  C:\Users\cesco\AppData\Local\Temp\ccHBw06Y.s 			page 57


 701:Drivers/CMSIS/Include/cmsis_gcc.h ****   \brief   Signed Saturate
 702:Drivers/CMSIS/Include/cmsis_gcc.h ****   \details Saturates a signed value.
 703:Drivers/CMSIS/Include/cmsis_gcc.h ****   \param [in]  value  Value to be saturated
 704:Drivers/CMSIS/Include/cmsis_gcc.h ****   \param [in]    sat  Bit position to saturate to (1..32)
 705:Drivers/CMSIS/Include/cmsis_gcc.h ****   \return             Saturated value
 706:Drivers/CMSIS/Include/cmsis_gcc.h ****  */
 707:Drivers/CMSIS/Include/cmsis_gcc.h **** __STATIC_FORCEINLINE int32_t __SSAT(int32_t val, uint32_t sat)
 708:Drivers/CMSIS/Include/cmsis_gcc.h **** {
 709:Drivers/CMSIS/Include/cmsis_gcc.h ****   if ((sat >= 1U) && (sat <= 32U))
 710:Drivers/CMSIS/Include/cmsis_gcc.h ****   {
 711:Drivers/CMSIS/Include/cmsis_gcc.h ****     const int32_t max = (int32_t)((1U << (sat - 1U)) - 1U);
 712:Drivers/CMSIS/Include/cmsis_gcc.h ****     const int32_t min = -1 - max ;
 713:Drivers/CMSIS/Include/cmsis_gcc.h ****     if (val > max)
 714:Drivers/CMSIS/Include/cmsis_gcc.h ****     {
 715:Drivers/CMSIS/Include/cmsis_gcc.h ****       return max;
 716:Drivers/CMSIS/Include/cmsis_gcc.h ****     }
 717:Drivers/CMSIS/Include/cmsis_gcc.h ****     else if (val < min)
 718:Drivers/CMSIS/Include/cmsis_gcc.h ****     {
 719:Drivers/CMSIS/Include/cmsis_gcc.h ****       return min;
 720:Drivers/CMSIS/Include/cmsis_gcc.h ****     }
 721:Drivers/CMSIS/Include/cmsis_gcc.h ****   }
 722:Drivers/CMSIS/Include/cmsis_gcc.h ****   return val;
 723:Drivers/CMSIS/Include/cmsis_gcc.h **** }
 724:Drivers/CMSIS/Include/cmsis_gcc.h **** 
 725:Drivers/CMSIS/Include/cmsis_gcc.h **** /**
 726:Drivers/CMSIS/Include/cmsis_gcc.h ****   \brief   Unsigned Saturate
 727:Drivers/CMSIS/Include/cmsis_gcc.h ****   \details Saturates an unsigned value.
 728:Drivers/CMSIS/Include/cmsis_gcc.h ****   \param [in]  value  Value to be saturated
 729:Drivers/CMSIS/Include/cmsis_gcc.h ****   \param [in]    sat  Bit position to saturate to (0..31)
 730:Drivers/CMSIS/Include/cmsis_gcc.h ****   \return             Saturated value
 731:Drivers/CMSIS/Include/cmsis_gcc.h ****  */
 732:Drivers/CMSIS/Include/cmsis_gcc.h **** __STATIC_FORCEINLINE uint32_t __USAT(int32_t val, uint32_t sat)
 733:Drivers/CMSIS/Include/cmsis_gcc.h **** {
 734:Drivers/CMSIS/Include/cmsis_gcc.h ****   if (sat <= 31U)
 735:Drivers/CMSIS/Include/cmsis_gcc.h ****   {
 736:Drivers/CMSIS/Include/cmsis_gcc.h ****     const uint32_t max = ((1U << sat) - 1U);
 737:Drivers/CMSIS/Include/cmsis_gcc.h ****     if (val > (int32_t)max)
 738:Drivers/CMSIS/Include/cmsis_gcc.h ****     {
 739:Drivers/CMSIS/Include/cmsis_gcc.h ****       return max;
 740:Drivers/CMSIS/Include/cmsis_gcc.h ****     }
 741:Drivers/CMSIS/Include/cmsis_gcc.h ****     else if (val < 0)
 742:Drivers/CMSIS/Include/cmsis_gcc.h ****     {
 743:Drivers/CMSIS/Include/cmsis_gcc.h ****       return 0U;
 744:Drivers/CMSIS/Include/cmsis_gcc.h ****     }
 745:Drivers/CMSIS/Include/cmsis_gcc.h ****   }
 746:Drivers/CMSIS/Include/cmsis_gcc.h ****   return (uint32_t)val;
 747:Drivers/CMSIS/Include/cmsis_gcc.h **** }
 748:Drivers/CMSIS/Include/cmsis_gcc.h **** 
 749:Drivers/CMSIS/Include/cmsis_gcc.h **** #endif /* ((defined (__ARM_ARCH_7M__      ) && (__ARM_ARCH_7M__      == 1)) || \
 750:Drivers/CMSIS/Include/cmsis_gcc.h ****            (defined (__ARM_ARCH_7EM__     ) && (__ARM_ARCH_7EM__     == 1)) || \
 751:Drivers/CMSIS/Include/cmsis_gcc.h ****            (defined (__ARM_ARCH_8M_MAIN__ ) && (__ARM_ARCH_8M_MAIN__ == 1))    ) */
 752:Drivers/CMSIS/Include/cmsis_gcc.h **** 
 753:Drivers/CMSIS/Include/cmsis_gcc.h **** 
 754:Drivers/CMSIS/Include/cmsis_gcc.h **** #if ((defined (__ARM_ARCH_8M_MAIN__ ) && (__ARM_ARCH_8M_MAIN__ == 1)) || \
 755:Drivers/CMSIS/Include/cmsis_gcc.h ****      (defined (__ARM_ARCH_8M_BASE__ ) && (__ARM_ARCH_8M_BASE__ == 1))    )
 756:Drivers/CMSIS/Include/cmsis_gcc.h **** /**
 757:Drivers/CMSIS/Include/cmsis_gcc.h ****   \brief   Load-Acquire (8 bit)
ARM GAS  C:\Users\cesco\AppData\Local\Temp\ccHBw06Y.s 			page 58


 758:Drivers/CMSIS/Include/cmsis_gcc.h ****   \details Executes a LDAB instruction for 8 bit value.
 759:Drivers/CMSIS/Include/cmsis_gcc.h ****   \param [in]    ptr  Pointer to data
 760:Drivers/CMSIS/Include/cmsis_gcc.h ****   \return             value of type uint8_t at (*ptr)
 761:Drivers/CMSIS/Include/cmsis_gcc.h ****  */
 762:Drivers/CMSIS/Include/cmsis_gcc.h **** __STATIC_FORCEINLINE uint8_t __LDAB(volatile uint8_t *ptr)
 763:Drivers/CMSIS/Include/cmsis_gcc.h **** {
 764:Drivers/CMSIS/Include/cmsis_gcc.h ****     uint32_t result;
 765:Drivers/CMSIS/Include/cmsis_gcc.h **** 
 766:Drivers/CMSIS/Include/cmsis_gcc.h ****    __ASM volatile ("ldab %0, %1" : "=r" (result) : "Q" (*ptr) : "memory" );
 767:Drivers/CMSIS/Include/cmsis_gcc.h ****    return ((uint8_t) result);
 768:Drivers/CMSIS/Include/cmsis_gcc.h **** }
 769:Drivers/CMSIS/Include/cmsis_gcc.h **** 
 770:Drivers/CMSIS/Include/cmsis_gcc.h **** 
 771:Drivers/CMSIS/Include/cmsis_gcc.h **** /**
 772:Drivers/CMSIS/Include/cmsis_gcc.h ****   \brief   Load-Acquire (16 bit)
 773:Drivers/CMSIS/Include/cmsis_gcc.h ****   \details Executes a LDAH instruction for 16 bit values.
 774:Drivers/CMSIS/Include/cmsis_gcc.h ****   \param [in]    ptr  Pointer to data
 775:Drivers/CMSIS/Include/cmsis_gcc.h ****   \return        value of type uint16_t at (*ptr)
 776:Drivers/CMSIS/Include/cmsis_gcc.h ****  */
 777:Drivers/CMSIS/Include/cmsis_gcc.h **** __STATIC_FORCEINLINE uint16_t __LDAH(volatile uint16_t *ptr)
 778:Drivers/CMSIS/Include/cmsis_gcc.h **** {
 779:Drivers/CMSIS/Include/cmsis_gcc.h ****     uint32_t result;
 780:Drivers/CMSIS/Include/cmsis_gcc.h **** 
 781:Drivers/CMSIS/Include/cmsis_gcc.h ****    __ASM volatile ("ldah %0, %1" : "=r" (result) : "Q" (*ptr) : "memory" );
 782:Drivers/CMSIS/Include/cmsis_gcc.h ****    return ((uint16_t) result);
 783:Drivers/CMSIS/Include/cmsis_gcc.h **** }
 784:Drivers/CMSIS/Include/cmsis_gcc.h **** 
 785:Drivers/CMSIS/Include/cmsis_gcc.h **** 
 786:Drivers/CMSIS/Include/cmsis_gcc.h **** /**
 787:Drivers/CMSIS/Include/cmsis_gcc.h ****   \brief   Load-Acquire (32 bit)
 788:Drivers/CMSIS/Include/cmsis_gcc.h ****   \details Executes a LDA instruction for 32 bit values.
 789:Drivers/CMSIS/Include/cmsis_gcc.h ****   \param [in]    ptr  Pointer to data
 790:Drivers/CMSIS/Include/cmsis_gcc.h ****   \return        value of type uint32_t at (*ptr)
 791:Drivers/CMSIS/Include/cmsis_gcc.h ****  */
 792:Drivers/CMSIS/Include/cmsis_gcc.h **** __STATIC_FORCEINLINE uint32_t __LDA(volatile uint32_t *ptr)
 793:Drivers/CMSIS/Include/cmsis_gcc.h **** {
 794:Drivers/CMSIS/Include/cmsis_gcc.h ****     uint32_t result;
 795:Drivers/CMSIS/Include/cmsis_gcc.h **** 
 796:Drivers/CMSIS/Include/cmsis_gcc.h ****    __ASM volatile ("lda %0, %1" : "=r" (result) : "Q" (*ptr) : "memory" );
 797:Drivers/CMSIS/Include/cmsis_gcc.h ****    return(result);
 798:Drivers/CMSIS/Include/cmsis_gcc.h **** }
 799:Drivers/CMSIS/Include/cmsis_gcc.h **** 
 800:Drivers/CMSIS/Include/cmsis_gcc.h **** 
 801:Drivers/CMSIS/Include/cmsis_gcc.h **** /**
 802:Drivers/CMSIS/Include/cmsis_gcc.h ****   \brief   Store-Release (8 bit)
 803:Drivers/CMSIS/Include/cmsis_gcc.h ****   \details Executes a STLB instruction for 8 bit values.
 804:Drivers/CMSIS/Include/cmsis_gcc.h ****   \param [in]  value  Value to store
 805:Drivers/CMSIS/Include/cmsis_gcc.h ****   \param [in]    ptr  Pointer to location
 806:Drivers/CMSIS/Include/cmsis_gcc.h ****  */
 807:Drivers/CMSIS/Include/cmsis_gcc.h **** __STATIC_FORCEINLINE void __STLB(uint8_t value, volatile uint8_t *ptr)
 808:Drivers/CMSIS/Include/cmsis_gcc.h **** {
 809:Drivers/CMSIS/Include/cmsis_gcc.h ****    __ASM volatile ("stlb %1, %0" : "=Q" (*ptr) : "r" ((uint32_t)value) : "memory" );
 810:Drivers/CMSIS/Include/cmsis_gcc.h **** }
 811:Drivers/CMSIS/Include/cmsis_gcc.h **** 
 812:Drivers/CMSIS/Include/cmsis_gcc.h **** 
 813:Drivers/CMSIS/Include/cmsis_gcc.h **** /**
 814:Drivers/CMSIS/Include/cmsis_gcc.h ****   \brief   Store-Release (16 bit)
ARM GAS  C:\Users\cesco\AppData\Local\Temp\ccHBw06Y.s 			page 59


 815:Drivers/CMSIS/Include/cmsis_gcc.h ****   \details Executes a STLH instruction for 16 bit values.
 816:Drivers/CMSIS/Include/cmsis_gcc.h ****   \param [in]  value  Value to store
 817:Drivers/CMSIS/Include/cmsis_gcc.h ****   \param [in]    ptr  Pointer to location
 818:Drivers/CMSIS/Include/cmsis_gcc.h ****  */
 819:Drivers/CMSIS/Include/cmsis_gcc.h **** __STATIC_FORCEINLINE void __STLH(uint16_t value, volatile uint16_t *ptr)
 820:Drivers/CMSIS/Include/cmsis_gcc.h **** {
 821:Drivers/CMSIS/Include/cmsis_gcc.h ****    __ASM volatile ("stlh %1, %0" : "=Q" (*ptr) : "r" ((uint32_t)value) : "memory" );
 822:Drivers/CMSIS/Include/cmsis_gcc.h **** }
 823:Drivers/CMSIS/Include/cmsis_gcc.h **** 
 824:Drivers/CMSIS/Include/cmsis_gcc.h **** 
 825:Drivers/CMSIS/Include/cmsis_gcc.h **** /**
 826:Drivers/CMSIS/Include/cmsis_gcc.h ****   \brief   Store-Release (32 bit)
 827:Drivers/CMSIS/Include/cmsis_gcc.h ****   \details Executes a STL instruction for 32 bit values.
 828:Drivers/CMSIS/Include/cmsis_gcc.h ****   \param [in]  value  Value to store
 829:Drivers/CMSIS/Include/cmsis_gcc.h ****   \param [in]    ptr  Pointer to location
 830:Drivers/CMSIS/Include/cmsis_gcc.h ****  */
 831:Drivers/CMSIS/Include/cmsis_gcc.h **** __STATIC_FORCEINLINE void __STL(uint32_t value, volatile uint32_t *ptr)
 832:Drivers/CMSIS/Include/cmsis_gcc.h **** {
 833:Drivers/CMSIS/Include/cmsis_gcc.h ****    __ASM volatile ("stl %1, %0" : "=Q" (*ptr) : "r" ((uint32_t)value) : "memory" );
 834:Drivers/CMSIS/Include/cmsis_gcc.h **** }
 835:Drivers/CMSIS/Include/cmsis_gcc.h **** 
 836:Drivers/CMSIS/Include/cmsis_gcc.h **** 
 837:Drivers/CMSIS/Include/cmsis_gcc.h **** /**
 838:Drivers/CMSIS/Include/cmsis_gcc.h ****   \brief   Load-Acquire Exclusive (8 bit)
 839:Drivers/CMSIS/Include/cmsis_gcc.h ****   \details Executes a LDAB exclusive instruction for 8 bit value.
 840:Drivers/CMSIS/Include/cmsis_gcc.h ****   \param [in]    ptr  Pointer to data
 841:Drivers/CMSIS/Include/cmsis_gcc.h ****   \return             value of type uint8_t at (*ptr)
 842:Drivers/CMSIS/Include/cmsis_gcc.h ****  */
 843:Drivers/CMSIS/Include/cmsis_gcc.h **** __STATIC_FORCEINLINE uint8_t __LDAEXB(volatile uint8_t *ptr)
 844:Drivers/CMSIS/Include/cmsis_gcc.h **** {
 845:Drivers/CMSIS/Include/cmsis_gcc.h ****     uint32_t result;
 846:Drivers/CMSIS/Include/cmsis_gcc.h **** 
 847:Drivers/CMSIS/Include/cmsis_gcc.h ****    __ASM volatile ("ldaexb %0, %1" : "=r" (result) : "Q" (*ptr) : "memory" );
 848:Drivers/CMSIS/Include/cmsis_gcc.h ****    return ((uint8_t) result);
 849:Drivers/CMSIS/Include/cmsis_gcc.h **** }
 850:Drivers/CMSIS/Include/cmsis_gcc.h **** 
 851:Drivers/CMSIS/Include/cmsis_gcc.h **** 
 852:Drivers/CMSIS/Include/cmsis_gcc.h **** /**
 853:Drivers/CMSIS/Include/cmsis_gcc.h ****   \brief   Load-Acquire Exclusive (16 bit)
 854:Drivers/CMSIS/Include/cmsis_gcc.h ****   \details Executes a LDAH exclusive instruction for 16 bit values.
 855:Drivers/CMSIS/Include/cmsis_gcc.h ****   \param [in]    ptr  Pointer to data
 856:Drivers/CMSIS/Include/cmsis_gcc.h ****   \return        value of type uint16_t at (*ptr)
 857:Drivers/CMSIS/Include/cmsis_gcc.h ****  */
 858:Drivers/CMSIS/Include/cmsis_gcc.h **** __STATIC_FORCEINLINE uint16_t __LDAEXH(volatile uint16_t *ptr)
 859:Drivers/CMSIS/Include/cmsis_gcc.h **** {
 860:Drivers/CMSIS/Include/cmsis_gcc.h ****     uint32_t result;
 861:Drivers/CMSIS/Include/cmsis_gcc.h **** 
 862:Drivers/CMSIS/Include/cmsis_gcc.h ****    __ASM volatile ("ldaexh %0, %1" : "=r" (result) : "Q" (*ptr) : "memory" );
 863:Drivers/CMSIS/Include/cmsis_gcc.h ****    return ((uint16_t) result);
 864:Drivers/CMSIS/Include/cmsis_gcc.h **** }
 865:Drivers/CMSIS/Include/cmsis_gcc.h **** 
 866:Drivers/CMSIS/Include/cmsis_gcc.h **** 
 867:Drivers/CMSIS/Include/cmsis_gcc.h **** /**
 868:Drivers/CMSIS/Include/cmsis_gcc.h ****   \brief   Load-Acquire Exclusive (32 bit)
 869:Drivers/CMSIS/Include/cmsis_gcc.h ****   \details Executes a LDA exclusive instruction for 32 bit values.
 870:Drivers/CMSIS/Include/cmsis_gcc.h ****   \param [in]    ptr  Pointer to data
 871:Drivers/CMSIS/Include/cmsis_gcc.h ****   \return        value of type uint32_t at (*ptr)
ARM GAS  C:\Users\cesco\AppData\Local\Temp\ccHBw06Y.s 			page 60


 872:Drivers/CMSIS/Include/cmsis_gcc.h ****  */
 873:Drivers/CMSIS/Include/cmsis_gcc.h **** __STATIC_FORCEINLINE uint32_t __LDAEX(volatile uint32_t *ptr)
 874:Drivers/CMSIS/Include/cmsis_gcc.h **** {
 875:Drivers/CMSIS/Include/cmsis_gcc.h ****     uint32_t result;
 876:Drivers/CMSIS/Include/cmsis_gcc.h **** 
 877:Drivers/CMSIS/Include/cmsis_gcc.h ****    __ASM volatile ("ldaex %0, %1" : "=r" (result) : "Q" (*ptr) : "memory" );
 878:Drivers/CMSIS/Include/cmsis_gcc.h ****    return(result);
 879:Drivers/CMSIS/Include/cmsis_gcc.h **** }
 880:Drivers/CMSIS/Include/cmsis_gcc.h **** 
 881:Drivers/CMSIS/Include/cmsis_gcc.h **** 
 882:Drivers/CMSIS/Include/cmsis_gcc.h **** /**
 883:Drivers/CMSIS/Include/cmsis_gcc.h ****   \brief   Store-Release Exclusive (8 bit)
 884:Drivers/CMSIS/Include/cmsis_gcc.h ****   \details Executes a STLB exclusive instruction for 8 bit values.
 885:Drivers/CMSIS/Include/cmsis_gcc.h ****   \param [in]  value  Value to store
 886:Drivers/CMSIS/Include/cmsis_gcc.h ****   \param [in]    ptr  Pointer to location
 887:Drivers/CMSIS/Include/cmsis_gcc.h ****   \return          0  Function succeeded
 888:Drivers/CMSIS/Include/cmsis_gcc.h ****   \return          1  Function failed
 889:Drivers/CMSIS/Include/cmsis_gcc.h ****  */
 890:Drivers/CMSIS/Include/cmsis_gcc.h **** __STATIC_FORCEINLINE uint32_t __STLEXB(uint8_t value, volatile uint8_t *ptr)
 891:Drivers/CMSIS/Include/cmsis_gcc.h **** {
 892:Drivers/CMSIS/Include/cmsis_gcc.h ****    uint32_t result;
 893:Drivers/CMSIS/Include/cmsis_gcc.h **** 
 894:Drivers/CMSIS/Include/cmsis_gcc.h ****    __ASM volatile ("stlexb %0, %2, %1" : "=&r" (result), "=Q" (*ptr) : "r" ((uint32_t)value) : "mem
 895:Drivers/CMSIS/Include/cmsis_gcc.h ****    return(result);
 896:Drivers/CMSIS/Include/cmsis_gcc.h **** }
 897:Drivers/CMSIS/Include/cmsis_gcc.h **** 
 898:Drivers/CMSIS/Include/cmsis_gcc.h **** 
 899:Drivers/CMSIS/Include/cmsis_gcc.h **** /**
 900:Drivers/CMSIS/Include/cmsis_gcc.h ****   \brief   Store-Release Exclusive (16 bit)
 901:Drivers/CMSIS/Include/cmsis_gcc.h ****   \details Executes a STLH exclusive instruction for 16 bit values.
 902:Drivers/CMSIS/Include/cmsis_gcc.h ****   \param [in]  value  Value to store
 903:Drivers/CMSIS/Include/cmsis_gcc.h ****   \param [in]    ptr  Pointer to location
 904:Drivers/CMSIS/Include/cmsis_gcc.h ****   \return          0  Function succeeded
 905:Drivers/CMSIS/Include/cmsis_gcc.h ****   \return          1  Function failed
 906:Drivers/CMSIS/Include/cmsis_gcc.h ****  */
 907:Drivers/CMSIS/Include/cmsis_gcc.h **** __STATIC_FORCEINLINE uint32_t __STLEXH(uint16_t value, volatile uint16_t *ptr)
 908:Drivers/CMSIS/Include/cmsis_gcc.h **** {
 909:Drivers/CMSIS/Include/cmsis_gcc.h ****    uint32_t result;
 910:Drivers/CMSIS/Include/cmsis_gcc.h **** 
 911:Drivers/CMSIS/Include/cmsis_gcc.h ****    __ASM volatile ("stlexh %0, %2, %1" : "=&r" (result), "=Q" (*ptr) : "r" ((uint32_t)value) : "mem
 912:Drivers/CMSIS/Include/cmsis_gcc.h ****    return(result);
 913:Drivers/CMSIS/Include/cmsis_gcc.h **** }
 914:Drivers/CMSIS/Include/cmsis_gcc.h **** 
 915:Drivers/CMSIS/Include/cmsis_gcc.h **** 
 916:Drivers/CMSIS/Include/cmsis_gcc.h **** /**
 917:Drivers/CMSIS/Include/cmsis_gcc.h ****   \brief   Store-Release Exclusive (32 bit)
 918:Drivers/CMSIS/Include/cmsis_gcc.h ****   \details Executes a STL exclusive instruction for 32 bit values.
 919:Drivers/CMSIS/Include/cmsis_gcc.h ****   \param [in]  value  Value to store
 920:Drivers/CMSIS/Include/cmsis_gcc.h ****   \param [in]    ptr  Pointer to location
 921:Drivers/CMSIS/Include/cmsis_gcc.h ****   \return          0  Function succeeded
 922:Drivers/CMSIS/Include/cmsis_gcc.h ****   \return          1  Function failed
 923:Drivers/CMSIS/Include/cmsis_gcc.h ****  */
 924:Drivers/CMSIS/Include/cmsis_gcc.h **** __STATIC_FORCEINLINE uint32_t __STLEX(uint32_t value, volatile uint32_t *ptr)
 925:Drivers/CMSIS/Include/cmsis_gcc.h **** {
 926:Drivers/CMSIS/Include/cmsis_gcc.h ****    uint32_t result;
 927:Drivers/CMSIS/Include/cmsis_gcc.h **** 
 928:Drivers/CMSIS/Include/cmsis_gcc.h ****    __ASM volatile ("stlex %0, %2, %1" : "=&r" (result), "=Q" (*ptr) : "r" ((uint32_t)value) : "memo
ARM GAS  C:\Users\cesco\AppData\Local\Temp\ccHBw06Y.s 			page 61


 929:Drivers/CMSIS/Include/cmsis_gcc.h ****    return(result);
 930:Drivers/CMSIS/Include/cmsis_gcc.h **** }
 931:Drivers/CMSIS/Include/cmsis_gcc.h **** 
 932:Drivers/CMSIS/Include/cmsis_gcc.h **** #endif /* ((defined (__ARM_ARCH_8M_MAIN__ ) && (__ARM_ARCH_8M_MAIN__ == 1)) || \
 933:Drivers/CMSIS/Include/cmsis_gcc.h ****            (defined (__ARM_ARCH_8M_BASE__ ) && (__ARM_ARCH_8M_BASE__ == 1))    ) */
 934:Drivers/CMSIS/Include/cmsis_gcc.h **** 
 935:Drivers/CMSIS/Include/cmsis_gcc.h **** /*@}*/ /* end of group CMSIS_Core_InstructionInterface */
 936:Drivers/CMSIS/Include/cmsis_gcc.h **** 
 937:Drivers/CMSIS/Include/cmsis_gcc.h **** 
 938:Drivers/CMSIS/Include/cmsis_gcc.h **** /* ###########################  Core Function Access  ########################### */
 939:Drivers/CMSIS/Include/cmsis_gcc.h **** /** \ingroup  CMSIS_Core_FunctionInterface
 940:Drivers/CMSIS/Include/cmsis_gcc.h ****     \defgroup CMSIS_Core_RegAccFunctions CMSIS Core Register Access Functions
 941:Drivers/CMSIS/Include/cmsis_gcc.h ****   @{
 942:Drivers/CMSIS/Include/cmsis_gcc.h ****  */
 943:Drivers/CMSIS/Include/cmsis_gcc.h **** 
 944:Drivers/CMSIS/Include/cmsis_gcc.h **** /**
 945:Drivers/CMSIS/Include/cmsis_gcc.h ****   \brief   Enable IRQ Interrupts
 946:Drivers/CMSIS/Include/cmsis_gcc.h ****   \details Enables IRQ interrupts by clearing special-purpose register PRIMASK.
 947:Drivers/CMSIS/Include/cmsis_gcc.h ****            Can only be executed in Privileged modes.
 948:Drivers/CMSIS/Include/cmsis_gcc.h ****  */
 949:Drivers/CMSIS/Include/cmsis_gcc.h **** __STATIC_FORCEINLINE void __enable_irq(void)
 1314              		.loc 2 949 27 view .LVU368
 1315              	.LBB26:
 950:Drivers/CMSIS/Include/cmsis_gcc.h **** {
 951:Drivers/CMSIS/Include/cmsis_gcc.h ****   __ASM volatile ("cpsie i" : : : "memory");
 1316              		.loc 2 951 3 view .LVU369
 1317              		.syntax unified
 1318              	@ 951 "Drivers/CMSIS/Include/cmsis_gcc.h" 1
 1319 0004 62B6     		cpsie i
 1320              	@ 0 "" 2
 1321              		.thumb
 1322              		.syntax unified
 1323              	.LBE26:
 1324              	.LBE25:
1095:Core/Src/main.c ****       break;
 1325              		.loc 1 1095 7 view .LVU370
 1326              	.LBE24:
1096:Core/Src/main.c ****     }
1097:Core/Src/main.c **** 
1098:Core/Src/main.c ****     pad = g_spiTrigQ[g_spiTrigTail].pad;
1099:Core/Src/main.c ****     vel = g_spiTrigQ[g_spiTrigTail].vel;
1100:Core/Src/main.c ****     g_spiTrigTail = (uint8_t)((g_spiTrigTail + 1U) % SPI_TRIG_Q_LEN);
1101:Core/Src/main.c ****     __enable_irq();
1102:Core/Src/main.c **** 
1103:Core/Src/main.c ****     uint8_t inst = (uint8_t)(pad % NUM_INSTRUMENTS);
1104:Core/Src/main.c ****     int32_t gain = 12000 + ((int32_t)vel * 140);
1105:Core/Src/main.c ****     gain = (gain * g_liveVolume) / 100;
1106:Core/Src/main.c ****     gain = (gain * g_trackVolume[inst]) / 100;
1107:Core/Src/main.c ****     gain = (gain * g_abLiveTrimQ8) >> 8;
1108:Core/Src/main.c ****     if (gain > 32000) gain = 32000;
1109:Core/Src/main.c ****     int8_t pan = 0;
1110:Core/Src/main.c **** 
1111:Core/Src/main.c ****     if (inst == 2) pan = -10;
1112:Core/Src/main.c ****     else if (inst == 3) pan = 12;
1113:Core/Src/main.c **** 
1114:Core/Src/main.c ****     TriggerVoice(inst, (int16_t)gain, pan);
1115:Core/Src/main.c ****   }
ARM GAS  C:\Users\cesco\AppData\Local\Temp\ccHBw06Y.s 			page 62


1116:Core/Src/main.c **** }
 1327              		.loc 1 1116 1 is_stmt 0 view .LVU371
 1328 0006 08BD     		pop	{r3, pc}
 1329              	.LVL146:
 1330              	.L117:
 1331              	.LBB31:
1111:Core/Src/main.c ****     else if (inst == 3) pan = 12;
 1332              		.loc 1 1111 24 discriminator 1 view .LVU372
 1333 0008 6FF00902 		mvn	r2, #9
 1334              	.L114:
 1335              	.LVL147:
1114:Core/Src/main.c ****   }
 1336              		.loc 1 1114 5 is_stmt 1 view .LVU373
 1337 000c 09B2     		sxth	r1, r1
 1338              	.LVL148:
1114:Core/Src/main.c ****   }
 1339              		.loc 1 1114 5 is_stmt 0 view .LVU374
 1340 000e FFF7FEFF 		bl	TriggerVoice
 1341              	.LVL149:
1114:Core/Src/main.c ****   }
 1342              		.loc 1 1114 5 view .LVU375
 1343              	.LBE31:
1086:Core/Src/main.c ****   {
 1344              		.loc 1 1086 9 is_stmt 1 view .LVU376
 1345              	.L115:
1086:Core/Src/main.c ****   {
 1346              		.loc 1 1086 3 view .LVU377
 1347              	.LBB32:
1088:Core/Src/main.c ****     uint8_t vel;
 1348              		.loc 1 1088 5 view .LVU378
1089:Core/Src/main.c **** 
 1349              		.loc 1 1089 5 view .LVU379
1091:Core/Src/main.c ****     if (g_spiTrigTail == g_spiTrigHead)
 1350              		.loc 1 1091 5 view .LVU380
 1351              	.LBB27:
 1352              	.LBI27:
 952:Drivers/CMSIS/Include/cmsis_gcc.h **** }
 953:Drivers/CMSIS/Include/cmsis_gcc.h **** 
 954:Drivers/CMSIS/Include/cmsis_gcc.h **** 
 955:Drivers/CMSIS/Include/cmsis_gcc.h **** /**
 956:Drivers/CMSIS/Include/cmsis_gcc.h ****   \brief   Disable IRQ Interrupts
 957:Drivers/CMSIS/Include/cmsis_gcc.h ****   \details Disables IRQ interrupts by setting special-purpose register PRIMASK.
 958:Drivers/CMSIS/Include/cmsis_gcc.h ****            Can only be executed in Privileged modes.
 959:Drivers/CMSIS/Include/cmsis_gcc.h ****  */
 960:Drivers/CMSIS/Include/cmsis_gcc.h **** __STATIC_FORCEINLINE void __disable_irq(void)
 1353              		.loc 2 960 27 view .LVU381
 1354              	.LBB28:
 961:Drivers/CMSIS/Include/cmsis_gcc.h **** {
 962:Drivers/CMSIS/Include/cmsis_gcc.h ****   __ASM volatile ("cpsid i" : : : "memory");
 1355              		.loc 2 962 3 view .LVU382
 1356              		.syntax unified
 1357              	@ 962 "Drivers/CMSIS/Include/cmsis_gcc.h" 1
 1358 0012 72B6     		cpsid i
 1359              	@ 0 "" 2
 1360              		.thumb
 1361              		.syntax unified
 1362              	.LBE28:
ARM GAS  C:\Users\cesco\AppData\Local\Temp\ccHBw06Y.s 			page 63


 1363              	.LBE27:
1092:Core/Src/main.c ****     {
 1364              		.loc 1 1092 5 view .LVU383
1092:Core/Src/main.c ****     {
 1365              		.loc 1 1092 23 is_stmt 0 view .LVU384
 1366 0014 214B     		ldr	r3, .L122
 1367 0016 1B78     		ldrb	r3, [r3]	@ zero_extendqisi2
 1368 0018 214A     		ldr	r2, .L122+4
 1369 001a 1278     		ldrb	r2, [r2]	@ zero_extendqisi2
1092:Core/Src/main.c ****     {
 1370              		.loc 1 1092 8 view .LVU385
 1371 001c 9A42     		cmp	r2, r3
 1372 001e F1D0     		beq	.L121
1098:Core/Src/main.c ****     vel = g_spiTrigQ[g_spiTrigTail].vel;
 1373              		.loc 1 1098 5 is_stmt 1 view .LVU386
1098:Core/Src/main.c ****     vel = g_spiTrigQ[g_spiTrigTail].vel;
 1374              		.loc 1 1098 36 is_stmt 0 view .LVU387
 1375 0020 1E4A     		ldr	r2, .L122
 1376 0022 1178     		ldrb	r1, [r2]	@ zero_extendqisi2
 1377 0024 C9B2     		uxtb	r1, r1
1098:Core/Src/main.c ****     vel = g_spiTrigQ[g_spiTrigTail].vel;
 1378              		.loc 1 1098 9 view .LVU388
 1379 0026 1F4B     		ldr	r3, .L122+8
 1380 0028 13F81100 		ldrb	r0, [r3, r1, lsl #1]	@ zero_extendqisi2
 1381 002c C0B2     		uxtb	r0, r0
 1382              	.LVL150:
1099:Core/Src/main.c ****     g_spiTrigTail = (uint8_t)((g_spiTrigTail + 1U) % SPI_TRIG_Q_LEN);
 1383              		.loc 1 1099 5 is_stmt 1 view .LVU389
1099:Core/Src/main.c ****     g_spiTrigTail = (uint8_t)((g_spiTrigTail + 1U) % SPI_TRIG_Q_LEN);
 1384              		.loc 1 1099 36 is_stmt 0 view .LVU390
 1385 002e 1178     		ldrb	r1, [r2]	@ zero_extendqisi2
1099:Core/Src/main.c ****     g_spiTrigTail = (uint8_t)((g_spiTrigTail + 1U) % SPI_TRIG_Q_LEN);
 1386              		.loc 1 1099 9 view .LVU391
 1387 0030 03EB4103 		add	r3, r3, r1, lsl #1
 1388 0034 93F801C0 		ldrb	ip, [r3, #1]	@ zero_extendqisi2
 1389 0038 5FFA8CFC 		uxtb	ip, ip
 1390              	.LVL151:
1100:Core/Src/main.c ****     __enable_irq();
 1391              		.loc 1 1100 5 is_stmt 1 view .LVU392
1100:Core/Src/main.c ****     __enable_irq();
 1392              		.loc 1 1100 21 is_stmt 0 view .LVU393
 1393 003c 1378     		ldrb	r3, [r2]	@ zero_extendqisi2
 1394 003e 0133     		adds	r3, r3, #1
 1395 0040 03F00F03 		and	r3, r3, #15
1100:Core/Src/main.c ****     __enable_irq();
 1396              		.loc 1 1100 19 view .LVU394
 1397 0044 1370     		strb	r3, [r2]
1101:Core/Src/main.c **** 
 1398              		.loc 1 1101 5 is_stmt 1 view .LVU395
 1399              	.LBB29:
 1400              	.LBI29:
 949:Drivers/CMSIS/Include/cmsis_gcc.h **** {
 1401              		.loc 2 949 27 view .LVU396
 1402              	.LBB30:
 951:Drivers/CMSIS/Include/cmsis_gcc.h **** }
 1403              		.loc 2 951 3 view .LVU397
 1404              		.syntax unified
ARM GAS  C:\Users\cesco\AppData\Local\Temp\ccHBw06Y.s 			page 64


 1405              	@ 951 "Drivers/CMSIS/Include/cmsis_gcc.h" 1
 1406 0046 62B6     		cpsie i
 1407              	@ 0 "" 2
 1408              		.thumb
 1409              		.syntax unified
 1410              	.LBE30:
 1411              	.LBE29:
1103:Core/Src/main.c ****     int32_t gain = 12000 + ((int32_t)vel * 140);
 1412              		.loc 1 1103 5 view .LVU398
1103:Core/Src/main.c ****     int32_t gain = 12000 + ((int32_t)vel * 140);
 1413              		.loc 1 1103 13 is_stmt 0 view .LVU399
 1414 0048 00F00F00 		and	r0, r0, #15
 1415              	.LVL152:
1104:Core/Src/main.c ****     gain = (gain * g_liveVolume) / 100;
 1416              		.loc 1 1104 5 is_stmt 1 view .LVU400
1104:Core/Src/main.c ****     gain = (gain * g_liveVolume) / 100;
 1417              		.loc 1 1104 13 is_stmt 0 view .LVU401
 1418 004c 8C23     		movs	r3, #140
 1419 004e 42F6E061 		movw	r1, #12000
 1420 0052 03FB0C11 		mla	r1, r3, ip, r1
 1421              	.LVL153:
1105:Core/Src/main.c ****     gain = (gain * g_trackVolume[inst]) / 100;
 1422              		.loc 1 1105 5 is_stmt 1 view .LVU402
1105:Core/Src/main.c ****     gain = (gain * g_trackVolume[inst]) / 100;
 1423              		.loc 1 1105 18 is_stmt 0 view .LVU403
 1424 0056 144B     		ldr	r3, .L122+12
 1425 0058 1B78     		ldrb	r3, [r3]	@ zero_extendqisi2
 1426 005a 03FB01F1 		mul	r1, r3, r1
 1427              	.LVL154:
1105:Core/Src/main.c ****     gain = (gain * g_trackVolume[inst]) / 100;
 1428              		.loc 1 1105 10 view .LVU404
 1429 005e 134B     		ldr	r3, .L122+16
 1430 0060 83FB0121 		smull	r2, r1, r3, r1
 1431 0064 4911     		asrs	r1, r1, #5
 1432              	.LVL155:
1106:Core/Src/main.c ****     gain = (gain * g_abLiveTrimQ8) >> 8;
 1433              		.loc 1 1106 5 is_stmt 1 view .LVU405
1106:Core/Src/main.c ****     gain = (gain * g_abLiveTrimQ8) >> 8;
 1434              		.loc 1 1106 33 is_stmt 0 view .LVU406
 1435 0066 124A     		ldr	r2, .L122+20
 1436 0068 125C     		ldrb	r2, [r2, r0]	@ zero_extendqisi2
1106:Core/Src/main.c ****     gain = (gain * g_abLiveTrimQ8) >> 8;
 1437              		.loc 1 1106 18 view .LVU407
 1438 006a 02FB01F1 		mul	r1, r2, r1
 1439              	.LVL156:
1106:Core/Src/main.c ****     gain = (gain * g_abLiveTrimQ8) >> 8;
 1440              		.loc 1 1106 10 view .LVU408
 1441 006e 83FB0123 		smull	r2, r3, r3, r1
 1442 0072 C917     		asrs	r1, r1, #31
 1443 0074 C1EB6311 		rsb	r1, r1, r3, asr #5
 1444              	.LVL157:
1107:Core/Src/main.c ****     if (gain > 32000) gain = 32000;
 1445              		.loc 1 1107 5 is_stmt 1 view .LVU409
1107:Core/Src/main.c ****     if (gain > 32000) gain = 32000;
 1446              		.loc 1 1107 18 is_stmt 0 view .LVU410
 1447 0078 0E4B     		ldr	r3, .L122+24
 1448 007a 1B78     		ldrb	r3, [r3]	@ zero_extendqisi2
ARM GAS  C:\Users\cesco\AppData\Local\Temp\ccHBw06Y.s 			page 65


 1449 007c 03FB01F1 		mul	r1, r3, r1
 1450              	.LVL158:
1107:Core/Src/main.c ****     if (gain > 32000) gain = 32000;
 1451              		.loc 1 1107 10 view .LVU411
 1452 0080 0912     		asrs	r1, r1, #8
 1453              	.LVL159:
1108:Core/Src/main.c ****     int8_t pan = 0;
 1454              		.loc 1 1108 5 is_stmt 1 view .LVU412
1108:Core/Src/main.c ****     int8_t pan = 0;
 1455              		.loc 1 1108 8 is_stmt 0 view .LVU413
 1456 0082 B1F5FA4F 		cmp	r1, #32000
 1457 0086 01DD     		ble	.L113
1108:Core/Src/main.c ****     int8_t pan = 0;
 1458              		.loc 1 1108 28 discriminator 1 view .LVU414
 1459 0088 4FF4FA41 		mov	r1, #32000
 1460              	.LVL160:
 1461              	.L113:
1109:Core/Src/main.c **** 
 1462              		.loc 1 1109 5 is_stmt 1 view .LVU415
1111:Core/Src/main.c ****     else if (inst == 3) pan = 12;
 1463              		.loc 1 1111 5 view .LVU416
1111:Core/Src/main.c ****     else if (inst == 3) pan = 12;
 1464              		.loc 1 1111 8 is_stmt 0 view .LVU417
 1465 008c 0228     		cmp	r0, #2
 1466 008e BBD0     		beq	.L117
1112:Core/Src/main.c **** 
 1467              		.loc 1 1112 10 is_stmt 1 view .LVU418
1112:Core/Src/main.c **** 
 1468              		.loc 1 1112 13 is_stmt 0 view .LVU419
 1469 0090 0328     		cmp	r0, #3
 1470 0092 01D0     		beq	.L118
1109:Core/Src/main.c **** 
 1471              		.loc 1 1109 12 view .LVU420
 1472 0094 0022     		movs	r2, #0
 1473 0096 B9E7     		b	.L114
 1474              	.L118:
1112:Core/Src/main.c **** 
 1475              		.loc 1 1112 29 discriminator 1 view .LVU421
 1476 0098 0C22     		movs	r2, #12
 1477 009a B7E7     		b	.L114
 1478              	.L123:
 1479              		.align	2
 1480              	.L122:
 1481 009c 00000000 		.word	g_spiTrigTail
 1482 00a0 00000000 		.word	g_spiTrigHead
 1483 00a4 00000000 		.word	g_spiTrigQ
 1484 00a8 00000000 		.word	g_liveVolume
 1485 00ac 1F85EB51 		.word	1374389535
 1486 00b0 00000000 		.word	g_trackVolume
 1487 00b4 00000000 		.word	g_abLiveTrimQ8
 1488              	.LBE32:
 1489              		.cfi_endproc
 1490              	.LFE164:
 1492              		.section	.text.SpiCrc16,"ax",%progbits
 1493              		.align	1
 1494              		.syntax unified
 1495              		.thumb
ARM GAS  C:\Users\cesco\AppData\Local\Temp\ccHBw06Y.s 			page 66


 1496              		.thumb_func
 1498              	SpiCrc16:
 1499              	.LVL161:
 1500              	.LFB165:
1117:Core/Src/main.c **** 
1118:Core/Src/main.c **** static uint16_t SpiCrc16(const uint8_t *data, uint16_t len)
1119:Core/Src/main.c **** {
 1501              		.loc 1 1119 1 is_stmt 1 view -0
 1502              		.cfi_startproc
 1503              		@ args = 0, pretend = 0, frame = 0
 1504              		@ frame_needed = 0, uses_anonymous_args = 0
 1505              		.loc 1 1119 1 is_stmt 0 view .LVU423
 1506 0000 00B5     		push	{lr}
 1507              	.LCFI9:
 1508              		.cfi_def_cfa_offset 4
 1509              		.cfi_offset 14, -4
 1510 0002 8646     		mov	lr, r0
1120:Core/Src/main.c ****   uint16_t crc = 0xFFFF;
 1511              		.loc 1 1120 3 is_stmt 1 view .LVU424
 1512              	.LVL162:
1121:Core/Src/main.c ****   for (uint16_t i = 0; i < len; i++)
 1513              		.loc 1 1121 3 view .LVU425
 1514              	.LBB33:
 1515              		.loc 1 1121 8 view .LVU426
 1516              		.loc 1 1121 17 is_stmt 0 view .LVU427
 1517 0004 4FF0000C 		mov	ip, #0
 1518              	.LBE33:
1120:Core/Src/main.c ****   uint16_t crc = 0xFFFF;
 1519              		.loc 1 1120 12 view .LVU428
 1520 0008 4FF6FF70 		movw	r0, #65535
 1521              	.LVL163:
 1522              	.LBB36:
 1523              		.loc 1 1121 3 view .LVU429
 1524 000c 10E0     		b	.L125
 1525              	.LVL164:
 1526              	.L127:
 1527              	.LBB34:
1122:Core/Src/main.c ****   {
1123:Core/Src/main.c ****     crc ^= data[i];
1124:Core/Src/main.c ****     for (uint8_t b = 0; b < 8; b++)
1125:Core/Src/main.c ****     {
1126:Core/Src/main.c ****       if (crc & 1U) crc = (uint16_t)((crc >> 1) ^ 0xA001U);
1127:Core/Src/main.c ****       else crc >>= 1;
 1528              		.loc 1 1127 12 is_stmt 1 view .LVU430
 1529              		.loc 1 1127 16 is_stmt 0 view .LVU431
 1530 000e 4008     		lsrs	r0, r0, #1
 1531              	.LVL165:
 1532              	.L128:
1124:Core/Src/main.c ****     {
 1533              		.loc 1 1124 33 is_stmt 1 discriminator 2 view .LVU432
 1534 0010 0133     		adds	r3, r3, #1
 1535              	.LVL166:
1124:Core/Src/main.c ****     {
 1536              		.loc 1 1124 33 is_stmt 0 discriminator 2 view .LVU433
 1537 0012 DBB2     		uxtb	r3, r3
 1538              	.LVL167:
 1539              	.L126:
ARM GAS  C:\Users\cesco\AppData\Local\Temp\ccHBw06Y.s 			page 67


1124:Core/Src/main.c ****     {
 1540              		.loc 1 1124 27 is_stmt 1 discriminator 1 view .LVU434
 1541 0014 072B     		cmp	r3, #7
 1542 0016 07D8     		bhi	.L132
1126:Core/Src/main.c ****       else crc >>= 1;
 1543              		.loc 1 1126 7 view .LVU435
1126:Core/Src/main.c ****       else crc >>= 1;
 1544              		.loc 1 1126 10 is_stmt 0 view .LVU436
 1545 0018 10F0010F 		tst	r0, #1
 1546 001c F7D0     		beq	.L127
1126:Core/Src/main.c ****       else crc >>= 1;
 1547              		.loc 1 1126 21 is_stmt 1 discriminator 1 view .LVU437
1126:Core/Src/main.c ****       else crc >>= 1;
 1548              		.loc 1 1126 25 is_stmt 0 discriminator 1 view .LVU438
 1549 001e 4AF20102 		movw	r2, #40961
 1550 0022 82EA5000 		eor	r0, r2, r0, lsr #1
 1551              	.LVL168:
1126:Core/Src/main.c ****       else crc >>= 1;
 1552              		.loc 1 1126 25 discriminator 1 view .LVU439
 1553 0026 F3E7     		b	.L128
 1554              	.L132:
1126:Core/Src/main.c ****       else crc >>= 1;
 1555              		.loc 1 1126 25 discriminator 1 view .LVU440
 1556              	.LBE34:
1121:Core/Src/main.c ****   {
 1557              		.loc 1 1121 34 is_stmt 1 discriminator 2 view .LVU441
 1558 0028 0CF1010C 		add	ip, ip, #1
 1559              	.LVL169:
1121:Core/Src/main.c ****   {
 1560              		.loc 1 1121 34 is_stmt 0 discriminator 2 view .LVU442
 1561 002c 1FFA8CFC 		uxth	ip, ip
 1562              	.LVL170:
 1563              	.L125:
1121:Core/Src/main.c ****   {
 1564              		.loc 1 1121 26 is_stmt 1 discriminator 1 view .LVU443
 1565 0030 8C45     		cmp	ip, r1
 1566 0032 04D2     		bcs	.L133
1123:Core/Src/main.c ****     for (uint8_t b = 0; b < 8; b++)
 1567              		.loc 1 1123 5 view .LVU444
1123:Core/Src/main.c ****     for (uint8_t b = 0; b < 8; b++)
 1568              		.loc 1 1123 16 is_stmt 0 view .LVU445
 1569 0034 1EF80C30 		ldrb	r3, [lr, ip]	@ zero_extendqisi2
1123:Core/Src/main.c ****     for (uint8_t b = 0; b < 8; b++)
 1570              		.loc 1 1123 9 view .LVU446
 1571 0038 5840     		eors	r0, r0, r3
 1572              	.LVL171:
1124:Core/Src/main.c ****     {
 1573              		.loc 1 1124 5 is_stmt 1 view .LVU447
 1574              	.LBB35:
1124:Core/Src/main.c ****     {
 1575              		.loc 1 1124 10 view .LVU448
1124:Core/Src/main.c ****     {
 1576              		.loc 1 1124 18 is_stmt 0 view .LVU449
 1577 003a 0023     		movs	r3, #0
1124:Core/Src/main.c ****     {
 1578              		.loc 1 1124 5 view .LVU450
 1579 003c EAE7     		b	.L126
ARM GAS  C:\Users\cesco\AppData\Local\Temp\ccHBw06Y.s 			page 68


 1580              	.LVL172:
 1581              	.L133:
1124:Core/Src/main.c ****     {
 1582              		.loc 1 1124 5 view .LVU451
 1583              	.LBE35:
 1584              	.LBE36:
1128:Core/Src/main.c ****     }
1129:Core/Src/main.c ****   }
1130:Core/Src/main.c ****   return crc;
 1585              		.loc 1 1130 3 is_stmt 1 view .LVU452
1131:Core/Src/main.c **** }
 1586              		.loc 1 1131 1 is_stmt 0 view .LVU453
 1587 003e 5DF804FB 		ldr	pc, [sp], #4
 1588              		.cfi_endproc
 1589              	.LFE165:
 1591              		.section	.text.SpiQueueTrigger,"ax",%progbits
 1592              		.align	1
 1593              		.syntax unified
 1594              		.thumb
 1595              		.thumb_func
 1597              	SpiQueueTrigger:
 1598              	.LVL173:
 1599              	.LFB166:
1132:Core/Src/main.c **** 
1133:Core/Src/main.c **** static void SpiQueueTrigger(uint8_t pad, uint8_t vel)
1134:Core/Src/main.c **** {
 1600              		.loc 1 1134 1 is_stmt 1 view -0
 1601              		.cfi_startproc
 1602              		@ args = 0, pretend = 0, frame = 0
 1603              		@ frame_needed = 0, uses_anonymous_args = 0
 1604              		@ link register save eliminated.
1135:Core/Src/main.c ****   uint8_t next = (uint8_t)((g_spiTrigHead + 1U) % SPI_TRIG_Q_LEN);
 1605              		.loc 1 1135 3 view .LVU455
 1606              		.loc 1 1135 18 is_stmt 0 view .LVU456
 1607 0000 0D4B     		ldr	r3, .L140
 1608 0002 1B78     		ldrb	r3, [r3]	@ zero_extendqisi2
 1609 0004 0133     		adds	r3, r3, #1
 1610              		.loc 1 1135 11 view .LVU457
 1611 0006 03F00F03 		and	r3, r3, #15
 1612              	.LVL174:
1136:Core/Src/main.c ****   if (next == g_spiTrigTail) return;
 1613              		.loc 1 1136 3 is_stmt 1 view .LVU458
 1614              		.loc 1 1136 12 is_stmt 0 view .LVU459
 1615 000a 0C4A     		ldr	r2, .L140+4
 1616 000c 1278     		ldrb	r2, [r2]	@ zero_extendqisi2
 1617              		.loc 1 1136 6 view .LVU460
 1618 000e 9A42     		cmp	r2, r3
 1619 0010 10D0     		beq	.L137
1134:Core/Src/main.c ****   uint8_t next = (uint8_t)((g_spiTrigHead + 1U) % SPI_TRIG_Q_LEN);
 1620              		.loc 1 1134 1 view .LVU461
 1621 0012 10B4     		push	{r4}
 1622              	.LCFI10:
 1623              		.cfi_def_cfa_offset 4
 1624              		.cfi_offset 4, -4
1137:Core/Src/main.c ****   g_spiTrigQ[g_spiTrigHead].pad = pad;
 1625              		.loc 1 1137 3 is_stmt 1 view .LVU462
 1626              		.loc 1 1137 28 is_stmt 0 view .LVU463
ARM GAS  C:\Users\cesco\AppData\Local\Temp\ccHBw06Y.s 			page 69


 1627 0014 084C     		ldr	r4, .L140
 1628 0016 94F800C0 		ldrb	ip, [r4]	@ zero_extendqisi2
 1629 001a 5FFA8CFC 		uxtb	ip, ip
 1630              		.loc 1 1137 33 view .LVU464
 1631 001e 084A     		ldr	r2, .L140+8
 1632 0020 02F81C00 		strb	r0, [r2, ip, lsl #1]
1138:Core/Src/main.c ****   g_spiTrigQ[g_spiTrigHead].vel = vel;
 1633              		.loc 1 1138 3 is_stmt 1 view .LVU465
 1634              		.loc 1 1138 28 is_stmt 0 view .LVU466
 1635 0024 2078     		ldrb	r0, [r4]	@ zero_extendqisi2
 1636              	.LVL175:
 1637              		.loc 1 1138 33 view .LVU467
 1638 0026 02EB4002 		add	r2, r2, r0, lsl #1
 1639              	.LVL176:
 1640              		.loc 1 1138 33 view .LVU468
 1641 002a 5170     		strb	r1, [r2, #1]
 1642              	.LVL177:
1139:Core/Src/main.c ****   g_spiTrigHead = next;
 1643              		.loc 1 1139 3 is_stmt 1 view .LVU469
 1644              		.loc 1 1139 17 is_stmt 0 view .LVU470
 1645 002c 2370     		strb	r3, [r4]
1140:Core/Src/main.c **** }
 1646              		.loc 1 1140 1 view .LVU471
 1647 002e 5DF8044B 		ldr	r4, [sp], #4
 1648              	.LCFI11:
 1649              		.cfi_restore 4
 1650              		.cfi_def_cfa_offset 0
 1651 0032 7047     		bx	lr
 1652              	.LVL178:
 1653              	.L137:
 1654              		.loc 1 1140 1 view .LVU472
 1655 0034 7047     		bx	lr
 1656              	.L141:
 1657 0036 00BF     		.align	2
 1658              	.L140:
 1659 0038 00000000 		.word	g_spiTrigHead
 1660 003c 00000000 		.word	g_spiTrigTail
 1661 0040 00000000 		.word	g_spiTrigQ
 1662              		.cfi_endproc
 1663              	.LFE166:
 1665              		.section	.text.ActiveVoicesCount,"ax",%progbits
 1666              		.align	1
 1667              		.syntax unified
 1668              		.thumb
 1669              		.thumb_func
 1671              	ActiveVoicesCount:
 1672              	.LFB169:
1141:Core/Src/main.c **** 
1142:Core/Src/main.c **** /* Re-arm SPI slave para recibir el siguiente header de 8 bytes (Txn 1) */
1143:Core/Src/main.c **** static void SpiRearmReceive(void)
1144:Core/Src/main.c **** {
1145:Core/Src/main.c ****   g_spiWaitingPayload = 0;
1146:Core/Src/main.c ****   HAL_SPI_Receive_DMA(&hspi1, g_spiRxBuf, 8);
1147:Core/Src/main.c **** }
1148:Core/Src/main.c **** 
1149:Core/Src/main.c **** static void SpiEnqueueResponse(uint8_t cmd, uint16_t sequence, const uint8_t *payload, uint16_t len
1150:Core/Src/main.c **** {
ARM GAS  C:\Users\cesco\AppData\Local\Temp\ccHBw06Y.s 			page 70


1151:Core/Src/main.c ****   /* Comandos sin respuesta (TRIG_LIVE, SMPL_*, volumen, etc.): solo Txn 1.
1152:Core/Src/main.c ****    * El ESP32 NO espera Txn 2 → rearmar RX directamente. */
1153:Core/Src/main.c ****   if (len == 0U && payload == NULL)
1154:Core/Src/main.c ****   {
1155:Core/Src/main.c ****     SpiRearmReceive();
1156:Core/Src/main.c ****     return;
1157:Core/Src/main.c ****   }
1158:Core/Src/main.c **** 
1159:Core/Src/main.c ****   /* Comandos con respuesta (PING, GET_PEAKS, etc.): construir Txn 2 */
1160:Core/Src/main.c ****   uint16_t crc = SpiCrc16(payload, len);
1161:Core/Src/main.c ****   g_spiTxBuf[0] = SPI_MAGIC_RESP;
1162:Core/Src/main.c ****   g_spiTxBuf[1] = cmd;
1163:Core/Src/main.c ****   g_spiTxBuf[2] = (uint8_t)(len & 0xFFU);
1164:Core/Src/main.c ****   g_spiTxBuf[3] = (uint8_t)((len >> 8) & 0xFFU);
1165:Core/Src/main.c ****   g_spiTxBuf[4] = (uint8_t)(sequence & 0xFFU);
1166:Core/Src/main.c ****   g_spiTxBuf[5] = (uint8_t)((sequence >> 8) & 0xFFU);
1167:Core/Src/main.c ****   g_spiTxBuf[6] = (uint8_t)(crc & 0xFFU);
1168:Core/Src/main.c ****   g_spiTxBuf[7] = (uint8_t)((crc >> 8) & 0xFFU);
1169:Core/Src/main.c ****   if (len > 0U && payload != NULL)
1170:Core/Src/main.c ****     memcpy(g_spiTxBuf + 8U, payload, len);
1171:Core/Src/main.c **** 
1172:Core/Src/main.c ****   /* Txn 2: master clokea N bytes y STM32 transmite la respuesta */
1173:Core/Src/main.c ****   HAL_SPI_Transmit_IT(&hspi1, g_spiTxBuf, (uint16_t)(8U + len));
1174:Core/Src/main.c **** }
1175:Core/Src/main.c **** 
1176:Core/Src/main.c **** static uint8_t ActiveVoicesCount(void)
1177:Core/Src/main.c **** {
 1673              		.loc 1 1177 1 is_stmt 1 view -0
 1674              		.cfi_startproc
 1675              		@ args = 0, pretend = 0, frame = 0
 1676              		@ frame_needed = 0, uses_anonymous_args = 0
 1677              		@ link register save eliminated.
1178:Core/Src/main.c ****   uint8_t cnt = 0;
 1678              		.loc 1 1178 3 view .LVU474
 1679              	.LVL179:
1179:Core/Src/main.c ****   for (uint32_t i = 0; i < MAX_VOICES; i++) if (g_voices[i].active) cnt++;
 1680              		.loc 1 1179 3 view .LVU475
 1681              	.LBB37:
 1682              		.loc 1 1179 8 view .LVU476
 1683              		.loc 1 1179 17 is_stmt 0 view .LVU477
 1684 0000 0023     		movs	r3, #0
 1685              	.LBE37:
1178:Core/Src/main.c ****   uint8_t cnt = 0;
 1686              		.loc 1 1178 11 view .LVU478
 1687 0002 1846     		mov	r0, r3
 1688              	.LBB38:
 1689              		.loc 1 1179 3 view .LVU479
 1690 0004 00E0     		b	.L143
 1691              	.LVL180:
 1692              	.L144:
 1693              		.loc 1 1179 41 is_stmt 1 discriminator 4 view .LVU480
 1694 0006 0133     		adds	r3, r3, #1
 1695              	.LVL181:
 1696              	.L143:
 1697              		.loc 1 1179 26 discriminator 5 view .LVU481
 1698 0008 092B     		cmp	r3, #9
 1699 000a 07D8     		bhi	.L146
ARM GAS  C:\Users\cesco\AppData\Local\Temp\ccHBw06Y.s 			page 71


 1700              		.loc 1 1179 45 discriminator 6 view .LVU482
 1701              		.loc 1 1179 60 is_stmt 0 discriminator 6 view .LVU483
 1702 000c 1A01     		lsls	r2, r3, #4
 1703 000e 0449     		ldr	r1, .L147
 1704 0010 8A5C     		ldrb	r2, [r1, r2]	@ zero_extendqisi2
 1705              		.loc 1 1179 48 discriminator 6 view .LVU484
 1706 0012 002A     		cmp	r2, #0
 1707 0014 F7D0     		beq	.L144
 1708              		.loc 1 1179 69 is_stmt 1 discriminator 2 view .LVU485
 1709              		.loc 1 1179 72 is_stmt 0 discriminator 2 view .LVU486
 1710 0016 0130     		adds	r0, r0, #1
 1711              	.LVL182:
 1712              		.loc 1 1179 72 discriminator 2 view .LVU487
 1713 0018 C0B2     		uxtb	r0, r0
 1714              	.LVL183:
 1715              		.loc 1 1179 72 discriminator 2 view .LVU488
 1716 001a F4E7     		b	.L144
 1717              	.LVL184:
 1718              	.L146:
 1719              		.loc 1 1179 72 discriminator 2 view .LVU489
 1720              	.LBE38:
1180:Core/Src/main.c ****   return cnt;
 1721              		.loc 1 1180 3 is_stmt 1 view .LVU490
1181:Core/Src/main.c **** }
 1722              		.loc 1 1181 1 is_stmt 0 view .LVU491
 1723 001c 7047     		bx	lr
 1724              	.L148:
 1725 001e 00BF     		.align	2
 1726              	.L147:
 1727 0020 00000000 		.word	g_voices
 1728              		.cfi_endproc
 1729              	.LFE169:
 1731              		.section	.text.StopInstrumentVoices,"ax",%progbits
 1732              		.align	1
 1733              		.syntax unified
 1734              		.thumb
 1735              		.thumb_func
 1737              	StopInstrumentVoices:
 1738              	.LVL185:
 1739              	.LFB170:
1182:Core/Src/main.c **** 
1183:Core/Src/main.c **** 
1184:Core/Src/main.c **** static void StopInstrumentVoices(uint8_t inst)
1185:Core/Src/main.c **** {
 1740              		.loc 1 1185 1 is_stmt 1 view -0
 1741              		.cfi_startproc
 1742              		@ args = 0, pretend = 0, frame = 0
 1743              		@ frame_needed = 0, uses_anonymous_args = 0
 1744              		@ link register save eliminated.
1186:Core/Src/main.c ****   for (uint32_t i = 0; i < MAX_VOICES; i++)
 1745              		.loc 1 1186 3 view .LVU493
 1746              	.LBB39:
 1747              		.loc 1 1186 8 view .LVU494
 1748              		.loc 1 1186 17 is_stmt 0 view .LVU495
 1749 0000 0023     		movs	r3, #0
 1750              		.loc 1 1186 3 view .LVU496
 1751 0002 00E0     		b	.L150
ARM GAS  C:\Users\cesco\AppData\Local\Temp\ccHBw06Y.s 			page 72


 1752              	.LVL186:
 1753              	.L151:
 1754              		.loc 1 1186 41 is_stmt 1 discriminator 2 view .LVU497
 1755 0004 0133     		adds	r3, r3, #1
 1756              	.LVL187:
 1757              	.L150:
 1758              		.loc 1 1186 26 discriminator 1 view .LVU498
 1759 0006 092B     		cmp	r3, #9
 1760 0008 0FD8     		bhi	.L153
1187:Core/Src/main.c ****   {
1188:Core/Src/main.c ****     if (g_voices[i].active && g_voices[i].inst == inst) g_voices[i].active = 0;
 1761              		.loc 1 1188 5 view .LVU499
 1762              		.loc 1 1188 20 is_stmt 0 view .LVU500
 1763 000a 1A01     		lsls	r2, r3, #4
 1764 000c 0749     		ldr	r1, .L154
 1765 000e 8A5C     		ldrb	r2, [r1, r2]	@ zero_extendqisi2
 1766              		.loc 1 1188 8 view .LVU501
 1767 0010 002A     		cmp	r2, #0
 1768 0012 F7D0     		beq	.L151
 1769              		.loc 1 1188 42 discriminator 1 view .LVU502
 1770 0014 01EB0312 		add	r2, r1, r3, lsl #4
 1771 0018 5278     		ldrb	r2, [r2, #1]	@ zero_extendqisi2
 1772              		.loc 1 1188 28 discriminator 1 view .LVU503
 1773 001a 8242     		cmp	r2, r0
 1774 001c F2D1     		bne	.L151
 1775              		.loc 1 1188 57 is_stmt 1 discriminator 2 view .LVU504
 1776              		.loc 1 1188 76 is_stmt 0 discriminator 2 view .LVU505
 1777 001e 1A01     		lsls	r2, r3, #4
 1778 0020 4FF0000C 		mov	ip, #0
 1779 0024 01F802C0 		strb	ip, [r1, r2]
 1780 0028 ECE7     		b	.L151
 1781              	.L153:
 1782              	.LBE39:
1189:Core/Src/main.c ****   }
1190:Core/Src/main.c **** }
 1783              		.loc 1 1190 1 view .LVU506
 1784 002a 7047     		bx	lr
 1785              	.L155:
 1786              		.align	2
 1787              	.L154:
 1788 002c 00000000 		.word	g_voices
 1789              		.cfi_endproc
 1790              	.LFE170:
 1792              		.section	.text.StopAllVoices,"ax",%progbits
 1793              		.align	1
 1794              		.syntax unified
 1795              		.thumb
 1796              		.thumb_func
 1798              	StopAllVoices:
 1799              	.LFB171:
1191:Core/Src/main.c **** 
1192:Core/Src/main.c **** static void StopAllVoices(void)
1193:Core/Src/main.c **** {
 1800              		.loc 1 1193 1 is_stmt 1 view -0
 1801              		.cfi_startproc
 1802              		@ args = 0, pretend = 0, frame = 0
 1803              		@ frame_needed = 0, uses_anonymous_args = 0
ARM GAS  C:\Users\cesco\AppData\Local\Temp\ccHBw06Y.s 			page 73


 1804              		@ link register save eliminated.
1194:Core/Src/main.c ****   for (uint32_t i = 0; i < MAX_VOICES; i++) g_voices[i].active = 0;
 1805              		.loc 1 1194 3 view .LVU508
 1806              	.LBB40:
 1807              		.loc 1 1194 8 view .LVU509
 1808              	.LVL188:
 1809              		.loc 1 1194 17 is_stmt 0 view .LVU510
 1810 0000 0023     		movs	r3, #0
 1811              		.loc 1 1194 3 view .LVU511
 1812 0002 04E0     		b	.L157
 1813              	.LVL189:
 1814              	.L158:
 1815              		.loc 1 1194 45 is_stmt 1 discriminator 3 view .LVU512
 1816              		.loc 1 1194 64 is_stmt 0 discriminator 3 view .LVU513
 1817 0004 1A01     		lsls	r2, r3, #4
 1818 0006 0349     		ldr	r1, .L159
 1819 0008 0020     		movs	r0, #0
 1820 000a 8854     		strb	r0, [r1, r2]
 1821              		.loc 1 1194 41 is_stmt 1 discriminator 3 view .LVU514
 1822 000c 0133     		adds	r3, r3, #1
 1823              	.LVL190:
 1824              	.L157:
 1825              		.loc 1 1194 26 discriminator 1 view .LVU515
 1826 000e 092B     		cmp	r3, #9
 1827 0010 F8D9     		bls	.L158
 1828              	.LBE40:
1195:Core/Src/main.c **** }
 1829              		.loc 1 1195 1 is_stmt 0 view .LVU516
 1830 0012 7047     		bx	lr
 1831              	.L160:
 1832              		.align	2
 1833              	.L159:
 1834 0014 00000000 		.word	g_voices
 1835              		.cfi_endproc
 1836              	.LFE171:
 1838              		.section	.text.ClearPadAllFx,"ax",%progbits
 1839              		.align	1
 1840              		.syntax unified
 1841              		.thumb
 1842              		.thumb_func
 1844              	ClearPadAllFx:
 1845              	.LVL191:
 1846              	.LFB174:
1196:Core/Src/main.c **** 
1197:Core/Src/main.c **** static void ClearTrackLiveFx(uint8_t track)
1198:Core/Src/main.c **** {
1199:Core/Src/main.c ****   g_trackEcho[track].active = 0U;
1200:Core/Src/main.c ****   g_trackEcho[track].delaySamples = 0U;
1201:Core/Src/main.c ****   g_trackEcho[track].feedbackQ8 = 0U;
1202:Core/Src/main.c ****   g_trackEcho[track].mixQ8 = 0U;
1203:Core/Src/main.c ****   g_trackEcho[track].writePos = 0U;
1204:Core/Src/main.c **** 
1205:Core/Src/main.c ****   g_trackFlanger[track].active = 0U;
1206:Core/Src/main.c ****   g_trackFlanger[track].depthQ8 = 0U;
1207:Core/Src/main.c ****   g_trackFlanger[track].feedbackQ8 = 0U;
1208:Core/Src/main.c ****   g_trackFlanger[track].mixQ8 = 0U;
1209:Core/Src/main.c ****   g_trackFlanger[track].rateStep = 0U;
ARM GAS  C:\Users\cesco\AppData\Local\Temp\ccHBw06Y.s 			page 74


1210:Core/Src/main.c ****   g_trackFlanger[track].writePos = 0U;
1211:Core/Src/main.c ****   g_trackFlanger[track].phase = 0U;
1212:Core/Src/main.c **** 
1213:Core/Src/main.c ****   g_trackComp[track].active = 0U;
1214:Core/Src/main.c ****   g_trackComp[track].envQ15 = 0U;
1215:Core/Src/main.c **** 
1216:Core/Src/main.c ****   memset(g_trackEchoBuf[track], 0, sizeof(g_trackEchoBuf[track]));
1217:Core/Src/main.c ****   memset(g_trackFlangerBuf[track], 0, sizeof(g_trackFlangerBuf[track]));
1218:Core/Src/main.c **** }
1219:Core/Src/main.c **** 
1220:Core/Src/main.c **** static void ClearTrackAllFx(uint8_t track)
1221:Core/Src/main.c **** {
1222:Core/Src/main.c ****   g_trackFilterType[track] = 0U;
1223:Core/Src/main.c ****   g_trackFilterCutQ8[track] = 200U;
1224:Core/Src/main.c ****   g_trackFilterResQ8[track] = 32U;
1225:Core/Src/main.c ****   g_trackFilterState[track] = 0;
1226:Core/Src/main.c ****   g_trackDistQ8[track] = 0U;
1227:Core/Src/main.c ****   g_trackBitDepth[track] = 16U;
1228:Core/Src/main.c ****   ClearTrackLiveFx(track);
1229:Core/Src/main.c **** }
1230:Core/Src/main.c **** 
1231:Core/Src/main.c **** static void ClearPadAllFx(uint8_t pad)
1232:Core/Src/main.c **** {
 1847              		.loc 1 1232 1 is_stmt 1 view -0
 1848              		.cfi_startproc
 1849              		@ args = 0, pretend = 0, frame = 0
 1850              		@ frame_needed = 0, uses_anonymous_args = 0
 1851              		@ link register save eliminated.
1233:Core/Src/main.c ****   g_padFilterType[pad] = 0U;
 1852              		.loc 1 1233 3 view .LVU518
 1853              		.loc 1 1233 24 is_stmt 0 view .LVU519
 1854 0000 0023     		movs	r3, #0
 1855 0002 204A     		ldr	r2, .L162
 1856 0004 1354     		strb	r3, [r2, r0]
1234:Core/Src/main.c ****   g_padFilterCutQ8[pad] = 200U;
 1857              		.loc 1 1234 3 is_stmt 1 view .LVU520
 1858              		.loc 1 1234 25 is_stmt 0 view .LVU521
 1859 0006 204A     		ldr	r2, .L162+4
 1860 0008 C821     		movs	r1, #200
 1861 000a 1154     		strb	r1, [r2, r0]
1235:Core/Src/main.c ****   g_padFilterResQ8[pad] = 32U;
 1862              		.loc 1 1235 3 is_stmt 1 view .LVU522
 1863              		.loc 1 1235 25 is_stmt 0 view .LVU523
 1864 000c 1F4A     		ldr	r2, .L162+8
 1865 000e 2021     		movs	r1, #32
 1866 0010 1154     		strb	r1, [r2, r0]
1236:Core/Src/main.c ****   g_padFilterState[pad] = 0;
 1867              		.loc 1 1236 3 is_stmt 1 view .LVU524
 1868              		.loc 1 1236 25 is_stmt 0 view .LVU525
 1869 0012 1F4A     		ldr	r2, .L162+12
 1870 0014 42F82030 		str	r3, [r2, r0, lsl #2]
1237:Core/Src/main.c ****   g_padDistQ8[pad] = 0U;
 1871              		.loc 1 1237 3 is_stmt 1 view .LVU526
 1872              		.loc 1 1237 20 is_stmt 0 view .LVU527
 1873 0018 1E4A     		ldr	r2, .L162+16
 1874 001a 1354     		strb	r3, [r2, r0]
1238:Core/Src/main.c ****   g_padBitDepth[pad] = 16U;
ARM GAS  C:\Users\cesco\AppData\Local\Temp\ccHBw06Y.s 			page 75


 1875              		.loc 1 1238 3 is_stmt 1 view .LVU528
 1876              		.loc 1 1238 22 is_stmt 0 view .LVU529
 1877 001c 1E4A     		ldr	r2, .L162+20
 1878 001e 1021     		movs	r1, #16
 1879 0020 1154     		strb	r1, [r2, r0]
1239:Core/Src/main.c ****   g_padStutterEnabled[pad] = 0U;
 1880              		.loc 1 1239 3 is_stmt 1 view .LVU530
 1881              		.loc 1 1239 28 is_stmt 0 view .LVU531
 1882 0022 1E4A     		ldr	r2, .L162+24
 1883 0024 1354     		strb	r3, [r2, r0]
1240:Core/Src/main.c ****   g_padStutterCount[pad] = 0U;
 1884              		.loc 1 1240 3 is_stmt 1 view .LVU532
 1885              		.loc 1 1240 26 is_stmt 0 view .LVU533
 1886 0026 1E4A     		ldr	r2, .L162+28
 1887 0028 22F81030 		strh	r3, [r2, r0, lsl #1]	@ movhi
1241:Core/Src/main.c **** 
1242:Core/Src/main.c ****   g_padScratchActive[pad] = 0U;
 1888              		.loc 1 1242 3 is_stmt 1 view .LVU534
 1889              		.loc 1 1242 27 is_stmt 0 view .LVU535
 1890 002c 1D4A     		ldr	r2, .L162+32
 1891 002e 1354     		strb	r3, [r2, r0]
1243:Core/Src/main.c ****   g_padScratchRateQ8[pad] = 0U;
 1892              		.loc 1 1243 3 is_stmt 1 view .LVU536
 1893              		.loc 1 1243 27 is_stmt 0 view .LVU537
 1894 0030 1D4A     		ldr	r2, .L162+36
 1895 0032 22F81030 		strh	r3, [r2, r0, lsl #1]	@ movhi
1244:Core/Src/main.c ****   g_padScratchDepthQ8[pad] = 0U;
 1896              		.loc 1 1244 3 is_stmt 1 view .LVU538
 1897              		.loc 1 1244 28 is_stmt 0 view .LVU539
 1898 0036 1D4A     		ldr	r2, .L162+40
 1899 0038 1354     		strb	r3, [r2, r0]
1245:Core/Src/main.c ****   g_padScratchCutQ8[pad] = 128U;
 1900              		.loc 1 1245 3 is_stmt 1 view .LVU540
 1901              		.loc 1 1245 26 is_stmt 0 view .LVU541
 1902 003a 1D4A     		ldr	r2, .L162+44
 1903 003c 8021     		movs	r1, #128
 1904 003e 1154     		strb	r1, [r2, r0]
1246:Core/Src/main.c ****   g_padScratchCrackleQ8[pad] = 0U;
 1905              		.loc 1 1246 3 is_stmt 1 view .LVU542
 1906              		.loc 1 1246 30 is_stmt 0 view .LVU543
 1907 0040 1C4A     		ldr	r2, .L162+48
 1908 0042 1354     		strb	r3, [r2, r0]
1247:Core/Src/main.c ****   g_padScratchPhase[pad] = 0U;
 1909              		.loc 1 1247 3 is_stmt 1 view .LVU544
 1910              		.loc 1 1247 26 is_stmt 0 view .LVU545
 1911 0044 1C4A     		ldr	r2, .L162+52
 1912 0046 22F81030 		strh	r3, [r2, r0, lsl #1]	@ movhi
1248:Core/Src/main.c ****   g_padScratchState[pad] = 0;
 1913              		.loc 1 1248 3 is_stmt 1 view .LVU546
 1914              		.loc 1 1248 26 is_stmt 0 view .LVU547
 1915 004a 1C4A     		ldr	r2, .L162+56
 1916 004c 42F82030 		str	r3, [r2, r0, lsl #2]
1249:Core/Src/main.c **** 
1250:Core/Src/main.c ****   g_padTurnActive[pad] = 0U;
 1917              		.loc 1 1250 3 is_stmt 1 view .LVU548
 1918              		.loc 1 1250 24 is_stmt 0 view .LVU549
 1919 0050 1B4A     		ldr	r2, .L162+60
ARM GAS  C:\Users\cesco\AppData\Local\Temp\ccHBw06Y.s 			page 76


 1920 0052 1354     		strb	r3, [r2, r0]
1251:Core/Src/main.c ****   g_padTurnAuto[pad] = 0U;
 1921              		.loc 1 1251 3 is_stmt 1 view .LVU550
 1922              		.loc 1 1251 22 is_stmt 0 view .LVU551
 1923 0054 1B4A     		ldr	r2, .L162+64
 1924 0056 1354     		strb	r3, [r2, r0]
1252:Core/Src/main.c ****   g_padTurnMode[pad] = 0;
 1925              		.loc 1 1252 3 is_stmt 1 view .LVU552
 1926              		.loc 1 1252 22 is_stmt 0 view .LVU553
 1927 0058 1B4A     		ldr	r2, .L162+68
 1928 005a 1354     		strb	r3, [r2, r0]
1253:Core/Src/main.c ****   g_padTurnBrakeMs[pad] = 150U;
 1929              		.loc 1 1253 3 is_stmt 1 view .LVU554
 1930              		.loc 1 1253 25 is_stmt 0 view .LVU555
 1931 005c 1B4A     		ldr	r2, .L162+72
 1932 005e 9621     		movs	r1, #150
 1933 0060 22F81010 		strh	r1, [r2, r0, lsl #1]	@ movhi
1254:Core/Src/main.c ****   g_padTurnBackspinMs[pad] = 120U;
 1934              		.loc 1 1254 3 is_stmt 1 view .LVU556
 1935              		.loc 1 1254 28 is_stmt 0 view .LVU557
 1936 0064 1A4A     		ldr	r2, .L162+76
 1937 0066 7821     		movs	r1, #120
 1938 0068 22F81010 		strh	r1, [r2, r0, lsl #1]	@ movhi
1255:Core/Src/main.c ****   g_padTurnRateQ8[pad] = 0U;
 1939              		.loc 1 1255 3 is_stmt 1 view .LVU558
 1940              		.loc 1 1255 24 is_stmt 0 view .LVU559
 1941 006c 194A     		ldr	r2, .L162+80
 1942 006e 22F81030 		strh	r3, [r2, r0, lsl #1]	@ movhi
1256:Core/Src/main.c ****   g_padTurnNoiseQ8[pad] = 0U;
 1943              		.loc 1 1256 3 is_stmt 1 view .LVU560
 1944              		.loc 1 1256 25 is_stmt 0 view .LVU561
 1945 0072 194A     		ldr	r2, .L162+84
 1946 0074 1354     		strb	r3, [r2, r0]
1257:Core/Src/main.c ****   g_padTurnPhase[pad] = 0U;
 1947              		.loc 1 1257 3 is_stmt 1 view .LVU562
 1948              		.loc 1 1257 23 is_stmt 0 view .LVU563
 1949 0076 194A     		ldr	r2, .L162+88
 1950 0078 22F81030 		strh	r3, [r2, r0, lsl #1]	@ movhi
1258:Core/Src/main.c ****   g_padTurnCounter[pad] = 0U;
 1951              		.loc 1 1258 3 is_stmt 1 view .LVU564
 1952              		.loc 1 1258 25 is_stmt 0 view .LVU565
 1953 007c 184A     		ldr	r2, .L162+92
 1954 007e 22F81030 		strh	r3, [r2, r0, lsl #1]	@ movhi
1259:Core/Src/main.c **** }
 1955              		.loc 1 1259 1 view .LVU566
 1956 0082 7047     		bx	lr
 1957              	.L163:
 1958              		.align	2
 1959              	.L162:
 1960 0084 00000000 		.word	g_padFilterType
 1961 0088 00000000 		.word	g_padFilterCutQ8
 1962 008c 00000000 		.word	g_padFilterResQ8
 1963 0090 00000000 		.word	g_padFilterState
 1964 0094 00000000 		.word	g_padDistQ8
 1965 0098 00000000 		.word	g_padBitDepth
 1966 009c 00000000 		.word	g_padStutterEnabled
 1967 00a0 00000000 		.word	g_padStutterCount
ARM GAS  C:\Users\cesco\AppData\Local\Temp\ccHBw06Y.s 			page 77


 1968 00a4 00000000 		.word	g_padScratchActive
 1969 00a8 00000000 		.word	g_padScratchRateQ8
 1970 00ac 00000000 		.word	g_padScratchDepthQ8
 1971 00b0 00000000 		.word	g_padScratchCutQ8
 1972 00b4 00000000 		.word	g_padScratchCrackleQ8
 1973 00b8 00000000 		.word	g_padScratchPhase
 1974 00bc 00000000 		.word	g_padScratchState
 1975 00c0 00000000 		.word	g_padTurnActive
 1976 00c4 00000000 		.word	g_padTurnAuto
 1977 00c8 00000000 		.word	g_padTurnMode
 1978 00cc 00000000 		.word	g_padTurnBrakeMs
 1979 00d0 00000000 		.word	g_padTurnBackspinMs
 1980 00d4 00000000 		.word	g_padTurnRateQ8
 1981 00d8 00000000 		.word	g_padTurnNoiseQ8
 1982 00dc 00000000 		.word	g_padTurnPhase
 1983 00e0 00000000 		.word	g_padTurnCounter
 1984              		.cfi_endproc
 1985              	.LFE174:
 1987              		.section	.text.ProcessSequencerStep,"ax",%progbits
 1988              		.align	1
 1989              		.syntax unified
 1990              		.thumb
 1991              		.thumb_func
 1993              	ProcessSequencerStep:
 1994              	.LFB181:
1260:Core/Src/main.c **** 
1261:Core/Src/main.c **** static void SpiHandleCommand(uint8_t cmd, const uint8_t *payload, uint16_t len, uint16_t seq)
1262:Core/Src/main.c **** {
1263:Core/Src/main.c ****   uint8_t sendGenericAck = 1U;
1264:Core/Src/main.c **** 
1265:Core/Src/main.c ****   switch (cmd)
1266:Core/Src/main.c ****   {
1267:Core/Src/main.c ****     case CMD_TRIGGER_SEQ:
1268:Core/Src/main.c ****       if (len >= 2U)
1269:Core/Src/main.c ****       {
1270:Core/Src/main.c ****         uint8_t pad = payload[0];
1271:Core/Src/main.c ****         uint8_t vel = payload[1];
1272:Core/Src/main.c ****         if (len >= 3U)
1273:Core/Src/main.c ****         {
1274:Core/Src/main.c ****           uint16_t tv = payload[2];
1275:Core/Src/main.c ****           vel = (uint8_t)((vel * tv) / 100U);
1276:Core/Src/main.c ****         }
1277:Core/Src/main.c ****         SpiQueueTrigger(pad, vel);
1278:Core/Src/main.c ****       }
1279:Core/Src/main.c ****       break;
1280:Core/Src/main.c **** 
1281:Core/Src/main.c ****     case CMD_TRIGGER_LIVE:
1282:Core/Src/main.c ****       if (len >= 2U) SpiQueueTrigger(payload[0], payload[1]);
1283:Core/Src/main.c ****       break;
1284:Core/Src/main.c **** 
1285:Core/Src/main.c ****     case CMD_TRIGGER_STOP_ALL:
1286:Core/Src/main.c ****       StopAllVoices();
1287:Core/Src/main.c ****       break;
1288:Core/Src/main.c **** 
1289:Core/Src/main.c ****     case CMD_TRIGGER_STOP:
1290:Core/Src/main.c ****       if (len >= 1U) StopInstrumentVoices((uint8_t)(payload[0] % NUM_INSTRUMENTS));
1291:Core/Src/main.c ****       break;
ARM GAS  C:\Users\cesco\AppData\Local\Temp\ccHBw06Y.s 			page 78


1292:Core/Src/main.c **** 
1293:Core/Src/main.c ****     case CMD_MASTER_VOLUME:
1294:Core/Src/main.c ****       if (len >= 1U)
1295:Core/Src/main.c ****       {
1296:Core/Src/main.c ****         uint8_t v = payload[0];
1297:Core/Src/main.c ****         if (v > 180U) v = 180U;
1298:Core/Src/main.c ****         g_masterVolume = v;
1299:Core/Src/main.c ****       }
1300:Core/Src/main.c ****       break;
1301:Core/Src/main.c **** 
1302:Core/Src/main.c ****     case CMD_SEQ_VOLUME:
1303:Core/Src/main.c ****       if (len >= 1U)
1304:Core/Src/main.c ****       {
1305:Core/Src/main.c ****         uint8_t v = payload[0];
1306:Core/Src/main.c ****         if (v > 200U) v = 200U;
1307:Core/Src/main.c ****         g_seqVolume = v;
1308:Core/Src/main.c ****       }
1309:Core/Src/main.c ****       break;
1310:Core/Src/main.c **** 
1311:Core/Src/main.c ****     case CMD_LIVE_VOLUME:
1312:Core/Src/main.c ****       if (len >= 1U)
1313:Core/Src/main.c ****       {
1314:Core/Src/main.c ****         uint8_t v = payload[0];
1315:Core/Src/main.c ****         if (v > 200U) v = 200U;
1316:Core/Src/main.c ****         g_liveVolume = v;
1317:Core/Src/main.c ****       }
1318:Core/Src/main.c ****       break;
1319:Core/Src/main.c **** 
1320:Core/Src/main.c ****     case CMD_TRACK_VOLUME:
1321:Core/Src/main.c ****       if (len >= 2U)
1322:Core/Src/main.c ****       {
1323:Core/Src/main.c ****         uint8_t tr = payload[0] % NUM_INSTRUMENTS;
1324:Core/Src/main.c ****         uint8_t v = payload[1];
1325:Core/Src/main.c ****         if (v > 200U) v = 200U;
1326:Core/Src/main.c ****         g_trackVolume[tr] = v;
1327:Core/Src/main.c ****       }
1328:Core/Src/main.c ****       break;
1329:Core/Src/main.c **** 
1330:Core/Src/main.c ****     case CMD_LIVE_PITCH:
1331:Core/Src/main.c ****       if (len >= 4U)
1332:Core/Src/main.c ****       {
1333:Core/Src/main.c ****         float pitch;
1334:Core/Src/main.c ****         memcpy(&pitch, payload, sizeof(float));
1335:Core/Src/main.c ****         if (pitch < 0.25f) pitch = 0.25f;
1336:Core/Src/main.c ****         if (pitch > 4.0f) pitch = 4.0f;
1337:Core/Src/main.c ****         uint32_t q12 = (uint32_t)(pitch * 4096.0f);
1338:Core/Src/main.c ****         if (q12 < 512U) q12 = 512U;
1339:Core/Src/main.c ****         if (q12 > 16384U) q12 = 16384U;
1340:Core/Src/main.c ****         for (uint32_t i = 0; i < NUM_INSTRUMENTS; i++) g_instPitchQ12[i] = (uint16_t)q12;
1341:Core/Src/main.c ****       }
1342:Core/Src/main.c ****       break;
1343:Core/Src/main.c **** 
1344:Core/Src/main.c ****     case CMD_FILTER_TYPE:
1345:Core/Src/main.c ****       if (len >= 16U)
1346:Core/Src/main.c ****       {
1347:Core/Src/main.c ****         g_globalFilterType = payload[0];
1348:Core/Src/main.c ****         g_globalDistMode = payload[1] & 0x03U;
ARM GAS  C:\Users\cesco\AppData\Local\Temp\ccHBw06Y.s 			page 79


1349:Core/Src/main.c ****         g_globalBitDepth = payload[2];
1350:Core/Src/main.c ****         if (g_globalBitDepth < 4U) g_globalBitDepth = 4U;
1351:Core/Src/main.c ****         if (g_globalBitDepth > 16U) g_globalBitDepth = 16U;
1352:Core/Src/main.c ****         float cutoff, resonance, distortion;
1353:Core/Src/main.c ****         memcpy(&cutoff, &payload[4], sizeof(float));
1354:Core/Src/main.c ****         memcpy(&resonance, &payload[8], sizeof(float));
1355:Core/Src/main.c ****         memcpy(&distortion, &payload[12], sizeof(float));
1356:Core/Src/main.c ****         g_globalFilterCutQ8 = CutoffHzToQ8(cutoff);
1357:Core/Src/main.c ****         g_globalFilterResQ8 = ResonanceToQ8(resonance);
1358:Core/Src/main.c ****         if (distortion < 0.0f) distortion = 0.0f;
1359:Core/Src/main.c ****         if (distortion > 100.0f) distortion = 100.0f;
1360:Core/Src/main.c ****         g_globalDistQ8 = (uint8_t)((distortion * 255.0f) / 100.0f);
1361:Core/Src/main.c ****       }
1362:Core/Src/main.c ****       else if (len >= 1U)
1363:Core/Src/main.c ****       {
1364:Core/Src/main.c ****         g_globalFilterType = payload[0];
1365:Core/Src/main.c ****       }
1366:Core/Src/main.c ****       break;
1367:Core/Src/main.c **** 
1368:Core/Src/main.c ****     case CMD_FILTER_CUTOFF:
1369:Core/Src/main.c ****       if (len >= 4U)
1370:Core/Src/main.c ****       {
1371:Core/Src/main.c ****         float cutoff;
1372:Core/Src/main.c ****         memcpy(&cutoff, payload, sizeof(float));
1373:Core/Src/main.c ****         g_globalFilterCutQ8 = CutoffHzToQ8(cutoff);
1374:Core/Src/main.c ****       }
1375:Core/Src/main.c ****       break;
1376:Core/Src/main.c **** 
1377:Core/Src/main.c ****     case CMD_FILTER_RESONANCE:
1378:Core/Src/main.c ****       if (len >= 4U)
1379:Core/Src/main.c ****       {
1380:Core/Src/main.c ****         float resonance;
1381:Core/Src/main.c ****         memcpy(&resonance, payload, sizeof(float));
1382:Core/Src/main.c ****         g_globalFilterResQ8 = ResonanceToQ8(resonance);
1383:Core/Src/main.c ****       }
1384:Core/Src/main.c ****       break;
1385:Core/Src/main.c **** 
1386:Core/Src/main.c ****     case CMD_FILTER_BITDEPTH:
1387:Core/Src/main.c ****       if (len >= 1U)
1388:Core/Src/main.c ****       {
1389:Core/Src/main.c ****         uint8_t bits = payload[0];
1390:Core/Src/main.c ****         if (bits < 4U) bits = 4U;
1391:Core/Src/main.c ****         if (bits > 16U) bits = 16U;
1392:Core/Src/main.c ****         g_globalBitDepth = bits;
1393:Core/Src/main.c ****       }
1394:Core/Src/main.c ****       break;
1395:Core/Src/main.c **** 
1396:Core/Src/main.c ****     case CMD_FILTER_DISTORTION:
1397:Core/Src/main.c ****       if (len >= 4U)
1398:Core/Src/main.c ****       {
1399:Core/Src/main.c ****         float distortion;
1400:Core/Src/main.c ****         memcpy(&distortion, payload, sizeof(float));
1401:Core/Src/main.c ****         if (distortion < 0.0f) distortion = 0.0f;
1402:Core/Src/main.c ****         if (distortion > 100.0f) distortion = 100.0f;
1403:Core/Src/main.c ****         g_globalDistQ8 = (uint8_t)((distortion * 255.0f) / 100.0f);
1404:Core/Src/main.c ****       }
1405:Core/Src/main.c ****       else if (len >= 1U)
ARM GAS  C:\Users\cesco\AppData\Local\Temp\ccHBw06Y.s 			page 80


1406:Core/Src/main.c ****       {
1407:Core/Src/main.c ****         g_globalDistQ8 = payload[0];
1408:Core/Src/main.c ****       }
1409:Core/Src/main.c ****       break;
1410:Core/Src/main.c **** 
1411:Core/Src/main.c ****     case CMD_FILTER_DIST_MODE:
1412:Core/Src/main.c ****       if (len >= 1U) g_globalDistMode = payload[0] & 0x03U;
1413:Core/Src/main.c ****       break;
1414:Core/Src/main.c **** 
1415:Core/Src/main.c ****     case CMD_FILTER_SR_REDUCE:
1416:Core/Src/main.c ****       if (len >= 4U)
1417:Core/Src/main.c ****       {
1418:Core/Src/main.c ****         float sr;
1419:Core/Src/main.c ****         memcpy(&sr, payload, sizeof(float));
1420:Core/Src/main.c ****         if (sr < 1.0f) sr = 1.0f;
1421:Core/Src/main.c ****         if (sr > 16.0f) sr = 16.0f;
1422:Core/Src/main.c ****         g_globalSrReduce = (uint8_t)sr;
1423:Core/Src/main.c ****       }
1424:Core/Src/main.c ****       else if (len >= 1U)
1425:Core/Src/main.c ****       {
1426:Core/Src/main.c ****         uint8_t d = payload[0];
1427:Core/Src/main.c ****         if (d < 1U) d = 1U;
1428:Core/Src/main.c ****         if (d > 16U) d = 16U;
1429:Core/Src/main.c ****         g_globalSrReduce = d;
1430:Core/Src/main.c ****       }
1431:Core/Src/main.c ****       break;
1432:Core/Src/main.c **** 
1433:Core/Src/main.c ****     case CMD_TRACK_FILTER:
1434:Core/Src/main.c ****       if (len >= 17U)
1435:Core/Src/main.c ****       {
1436:Core/Src/main.c ****         uint8_t track = payload[0] % NUM_INSTRUMENTS;
1437:Core/Src/main.c ****         g_trackFilterType[track] = payload[1];
1438:Core/Src/main.c ****         float cutoff, resonance;
1439:Core/Src/main.c ****         memcpy(&cutoff, &payload[4], sizeof(float));
1440:Core/Src/main.c ****         memcpy(&resonance, &payload[8], sizeof(float));
1441:Core/Src/main.c ****         g_trackFilterCutQ8[track] = CutoffHzToQ8(cutoff);
1442:Core/Src/main.c ****         g_trackFilterResQ8[track] = ResonanceToQ8(resonance);
1443:Core/Src/main.c ****       }
1444:Core/Src/main.c ****       break;
1445:Core/Src/main.c **** 
1446:Core/Src/main.c ****     case CMD_TRACK_CLEAR_FILTER:
1447:Core/Src/main.c ****       if (len >= 1U)
1448:Core/Src/main.c ****       {
1449:Core/Src/main.c ****         uint8_t track = payload[0] % NUM_INSTRUMENTS;
1450:Core/Src/main.c ****         g_trackFilterType[track] = 0U;
1451:Core/Src/main.c ****         g_trackFilterCutQ8[track] = 0U;
1452:Core/Src/main.c ****         g_trackFilterResQ8[track] = 0U;
1453:Core/Src/main.c ****       }
1454:Core/Src/main.c ****       break;
1455:Core/Src/main.c **** 
1456:Core/Src/main.c ****     case CMD_TRACK_CLEAR_FX:
1457:Core/Src/main.c ****       if (len >= 1U)
1458:Core/Src/main.c ****       {
1459:Core/Src/main.c ****         uint8_t track = payload[0] % NUM_INSTRUMENTS;
1460:Core/Src/main.c ****         ClearTrackAllFx(track);
1461:Core/Src/main.c ****       }
1462:Core/Src/main.c ****       break;
ARM GAS  C:\Users\cesco\AppData\Local\Temp\ccHBw06Y.s 			page 81


1463:Core/Src/main.c **** 
1464:Core/Src/main.c ****     case CMD_DELAY_ACTIVE:
1465:Core/Src/main.c ****       if (len >= 1U) g_delayActive = payload[0] ? 1U : 0U;
1466:Core/Src/main.c ****       break;
1467:Core/Src/main.c **** 
1468:Core/Src/main.c ****     case CMD_DELAY_FEEDBACK:
1469:Core/Src/main.c ****       if (len >= 4U)
1470:Core/Src/main.c ****       {
1471:Core/Src/main.c ****         float fb;
1472:Core/Src/main.c ****         memcpy(&fb, payload, sizeof(float));
1473:Core/Src/main.c ****         if (fb < 0.0f) fb = 0.0f;
1474:Core/Src/main.c ****         if (fb > 0.95f) fb = 0.95f;
1475:Core/Src/main.c ****         g_delayFbQ8 = (uint8_t)(fb * 255.0f);
1476:Core/Src/main.c ****       }
